---
triple:          'arm64-apple-darwin'
binary-path:     '/Users/kainoaborges/Code/game_engine/src/main.o'
relocations:
  - { offsetInCU: 0x57, offset: 0x57, size: 0x8, addend: 0x0, symName: __ZN12GlobalCameraL4gPosE, symObjAddr: 0x3101AC, symBinAddr: 0x10007C008, symSize: 0x0 }
  - { offsetInCU: 0x70, offset: 0x70, size: 0x8, addend: 0x0, symName: __ZN12GlobalCameraL8gForwardE, symObjAddr: 0x3101B8, symBinAddr: 0x10007C014, symSize: 0x0 }
  - { offsetInCU: 0x89, offset: 0x89, size: 0x8, addend: 0x0, symName: __ZN12GlobalCamera4gFovE, symObjAddr: 0x6F874, symBinAddr: 0x10007C000, symSize: 0x0 }
  - { offsetInCU: 0xA2, offset: 0xA2, size: 0x8, addend: 0x0, symName: __ZN12GlobalCamera3gUpE, symObjAddr: 0x310204, symBinAddr: 0x10007C060, symSize: 0x0 }
  - { offsetInCU: 0xBB, offset: 0xBB, size: 0x8, addend: 0x0, symName: __ZN12GlobalCamera4gResE, symObjAddr: 0x6F878, symBinAddr: 0x10007C004, symSize: 0x0 }
  - { offsetInCU: 0xD4, offset: 0xD4, size: 0x8, addend: 0x0, symName: __ZN12GlobalCamera11gResolutionE, symObjAddr: 0x310210, symBinAddr: 0x10007C06C, symSize: 0x0 }
  - { offsetInCU: 0xED, offset: 0xED, size: 0x8, addend: 0x0, symName: __ZN12GlobalCamera7gCameraE, symObjAddr: 0x310218, symBinAddr: 0x10007C074, symSize: 0x0 }
  - { offsetInCU: 0x860, offset: 0x860, size: 0x8, addend: 0x0, symName: __ZN7tinyobjL14tryParseDoubleEPKcS1_Pd, symObjAddr: 0x11028, symBinAddr: 0x100013860, symSize: 0x678 }
  - { offsetInCU: 0x88B, offset: 0x88B, size: 0x8, addend: 0x0, symName: __ZZN7tinyobjL14tryParseDoubleEPKcS1_PdE7pow_lut, symObjAddr: 0x6FC88, symBinAddr: 0x1000733E8, symSize: 0x0 }
  - { offsetInCU: 0x126D, offset: 0x126D, size: 0x8, addend: 0x0, symName: __ZN7tinyobj25ParseTextureNameAndOptionEPNSt3__112basic_stringIcNS0_11char_traitsIcEENS0_9allocatorIcEEEEPNS_16texture_option_tEPKc, symObjAddr: 0x2188, symBinAddr: 0x1000049C0, symSize: 0xA28 }
  - { offsetInCU: 0x1306, offset: 0x1306, size: 0x8, addend: 0x0, symName: __ZN7tinyobjL10parseOnOffEPPKcb, symObjAddr: 0x2BDC, symBinAddr: 0x100005414, symSize: 0x110 }
  - { offsetInCU: 0x1361, offset: 0x1361, size: 0x8, addend: 0x0, symName: __ZN7tinyobjL9parseRealEPPKcd, symObjAddr: 0x2CEC, symBinAddr: 0x100005524, symSize: 0xA8 }
  - { offsetInCU: 0x13CB, offset: 0x13CB, size: 0x8, addend: 0x0, symName: __ZN7tinyobjL10parseReal3EPfS0_S0_PPKcddd, symObjAddr: 0x2D94, symBinAddr: 0x1000055CC, symSize: 0x70 }
  - { offsetInCU: 0x144F, offset: 0x144F, size: 0x8, addend: 0x0, symName: __ZN7tinyobjL16parseTextureTypeEPPKcNS_14texture_type_tE, symObjAddr: 0x2E04, symBinAddr: 0x10000563C, symSize: 0x228 }
  - { offsetInCU: 0x14AA, offset: 0x14AA, size: 0x8, addend: 0x0, symName: __ZN7tinyobjL8parseIntEPPKc, symObjAddr: 0x302C, symBinAddr: 0x100005864, symSize: 0x78 }
  - { offsetInCU: 0x14E7, offset: 0x14E7, size: 0x8, addend: 0x0, symName: __ZN7tinyobjL10parseReal2EPfS0_PPKcdd, symObjAddr: 0x30A4, symBinAddr: 0x1000058DC, symSize: 0x54 }
  - { offsetInCU: 0x154D, offset: 0x154D, size: 0x8, addend: 0x0, symName: __ZN7tinyobjL11parseStringEPPKc, symObjAddr: 0x30F8, symBinAddr: 0x100005930, symSize: 0x134 }
  - { offsetInCU: 0x159A, offset: 0x159A, size: 0x8, addend: 0x0, symName: __ZN7tinyobj7LoadMtlEPNSt3__13mapINS0_12basic_stringIcNS0_11char_traitsIcEENS0_9allocatorIcEEEEiNS0_4lessIS7_EENS5_INS0_4pairIKS7_iEEEEEEPNS0_6vectorINS_10material_tENS5_ISH_EEEEPNS0_13basic_istreamIcS4_EEPS7_SO_, symObjAddr: 0x32B8, symBinAddr: 0x100005AF0, symSize: 0x1B18 }
  - { offsetInCU: 0x1818, offset: 0x1818, size: 0x8, addend: 0x0, symName: __ZN7tinyobjL12InitMaterialEPNS_10material_tE, symObjAddr: 0x4DFC, symBinAddr: 0x100007634, symSize: 0x308 }
  - { offsetInCU: 0x185F, offset: 0x185F, size: 0x8, addend: 0x0, symName: __ZN7tinyobjL11safeGetlineERNSt3__113basic_istreamIcNS0_11char_traitsIcEEEERNS0_12basic_stringIcS3_NS0_9allocatorIcEEEE, symObjAddr: 0x5208, symBinAddr: 0x100007A40, symSize: 0x158 }
  - { offsetInCU: 0x195D, offset: 0x195D, size: 0x8, addend: 0x0, symName: __ZN7tinyobjL8JoinPathERKNSt3__112basic_stringIcNS0_11char_traitsIcEENS0_9allocatorIcEEEES8_, symObjAddr: 0x6298, symBinAddr: 0x100008AD0, symSize: 0x128 }
  - { offsetInCU: 0x1A35, offset: 0x1A35, size: 0x8, addend: 0x0, symName: __ZN7tinyobj7LoadObjEPNS_8attrib_tEPNSt3__16vectorINS_7shape_tENS2_9allocatorIS4_EEEEPNS3_INS_10material_tENS5_IS9_EEEEPNS2_12basic_stringIcNS2_11char_traitsIcEENS5_IcEEEESI_PKcSK_bb, symObjAddr: 0x65D4, symBinAddr: 0x100008E0C, symSize: 0x354 }
  - { offsetInCU: 0x1B42, offset: 0x1B42, size: 0x8, addend: 0x0, symName: __ZN7tinyobj7LoadObjEPNS_8attrib_tEPNSt3__16vectorINS_7shape_tENS2_9allocatorIS4_EEEEPNS3_INS_10material_tENS5_IS9_EEEEPNS2_12basic_stringIcNS2_11char_traitsIcEENS5_IcEEEESI_PNS2_13basic_istreamIcSF_EEPNS_14MaterialReaderEbb, symObjAddr: 0x6A30, symBinAddr: 0x100009268, symSize: 0x2B68 }
  - { offsetInCU: 0x22B5, offset: 0x22B5, size: 0x8, addend: 0x0, symName: __ZN7tinyobjL20parseVertexWithColorEPfS0_S0_S0_S0_S0_PPKcddd, symObjAddr: 0x96F8, symBinAddr: 0x10000BF30, symSize: 0x168 }
  - { offsetInCU: 0x2397, offset: 0x2397, size: 0x8, addend: 0x0, symName: __ZN7tinyobjL11parseTripleEPPKciiiPNS_14vertex_index_tERKNS_15warning_contextE, symObjAddr: 0x9A54, symBinAddr: 0x10000C28C, symSize: 0x330 }
  - { offsetInCU: 0x241F, offset: 0x241F, size: 0x8, addend: 0x0, symName: __ZN7tinyobjL8toStringImEENSt3__112basic_stringIcNS1_11char_traitsIcEENS1_9allocatorIcEEEERKT_, symObjAddr: 0x9E30, symBinAddr: 0x10000C668, symSize: 0x9C }
  - { offsetInCU: 0x2465, offset: 0x2465, size: 0x8, addend: 0x0, symName: __ZN7tinyobjL19exportGroupsToShapeEPNS_7shape_tERKNS_9PrimGroupERKNSt3__16vectorINS_5tag_tENS5_9allocatorIS7_EEEEiRKNS5_12basic_stringIcNS5_11char_traitsIcEENS8_IcEEEEbRKNS6_IfNS8_IfEEEEPSH_, symObjAddr: 0xA348, symBinAddr: 0x10000CB80, symSize: 0x1594 }
  - { offsetInCU: 0x2B03, offset: 0x2B03, size: 0x8, addend: 0x0, symName: __ZN7tinyobjL11SplitStringERKNSt3__112basic_stringIcNS0_11char_traitsIcEENS0_9allocatorIcEEEEccRNS0_6vectorIS6_NS4_IS6_EEEE, symObjAddr: 0xB930, symBinAddr: 0x10000E168, symSize: 0x158 }
  - { offsetInCU: 0x2BA2, offset: 0x2BA2, size: 0x8, addend: 0x0, symName: __ZN7tinyobjL14parseTagTripleEPPKc, symObjAddr: 0xBCC4, symBinAddr: 0x10000E4FC, symSize: 0x1A0 }
  - { offsetInCU: 0x2BDF, offset: 0x2BDF, size: 0x8, addend: 0x0, symName: __ZN7tinyobj19LoadObjWithCallbackERNSt3__113basic_istreamIcNS0_11char_traitsIcEEEERKNS_10callback_tEPvPNS_14MaterialReaderEPNS0_12basic_stringIcS3_NS0_9allocatorIcEEEESG_, symObjAddr: 0xC338, symBinAddr: 0x10000EB70, symSize: 0x131C }
  - { offsetInCU: 0x2F8F, offset: 0x2F8F, size: 0x8, addend: 0x0, symName: __ZN7tinyobjL14parseRawTripleEPPKc, symObjAddr: 0xD80C, symBinAddr: 0x100010044, symSize: 0x1E8 }
  - { offsetInCU: 0x3215, offset: 0x3215, size: 0x8, addend: 0x0, symName: __ZN7tinyobjL10InitTexOptEPNS_16texture_option_tEb, symObjAddr: 0x126E4, symBinAddr: 0x100014F1C, symSize: 0xE8 }
  - { offsetInCU: 0x324E, offset: 0x324E, size: 0x8, addend: 0x0, symName: __ZN7tinyobjL9parseRealEPPKcPf, symObjAddr: 0x15014, symBinAddr: 0x10001784C, symSize: 0xCC }
  - { offsetInCU: 0x32D5, offset: 0x32D5, size: 0x8, addend: 0x0, symName: __ZN7tinyobjL8fixIndexEiiPibRKNS_15warning_contextE, symObjAddr: 0x15A08, symBinAddr: 0x100018240, symSize: 0x234 }
  - { offsetInCU: 0x339C, offset: 0x339C, size: 0x8, addend: 0x0, symName: __ZN7tinyobj9GetLengthERNS_12TinyObjPointE, symObjAddr: 0x16550, symBinAddr: 0x100018D88, symSize: 0x5C }
  - { offsetInCU: 0x33CA, offset: 0x33CA, size: 0x8, addend: 0x0, symName: __ZN7tinyobj9NormalizeENS_12TinyObjPointE, symObjAddr: 0x165C4, symBinAddr: 0x100018DFC, symSize: 0x74 }
  - { offsetInCU: 0x3407, offset: 0x3407, size: 0x8, addend: 0x0, symName: __ZN7tinyobj5crossERKNS_12TinyObjPointES2_, symObjAddr: 0x16638, symBinAddr: 0x100018E70, symSize: 0xAC }
  - { offsetInCU: 0x3444, offset: 0x3444, size: 0x8, addend: 0x0, symName: __ZN7tinyobj12WorldToLocalERKNS_12TinyObjPointES2_S2_S2_, symObjAddr: 0x1673C, symBinAddr: 0x100018F74, symSize: 0x74 }
  - { offsetInCU: 0x349F, offset: 0x349F, size: 0x8, addend: 0x0, symName: __ZN7tinyobj3dotERKNS_12TinyObjPointES2_, symObjAddr: 0x19DE0, symBinAddr: 0x10001C618, symSize: 0x50 }
  - { offsetInCU: 0x35FE, offset: 0x35FE, size: 0x8, addend: 0x0, symName: __ZNSt3__1L19piecewise_constructE, symObjAddr: 0x6FD6D, symBinAddr: 0x1000734CD, symSize: 0x0 }
  - { offsetInCU: 0x1164E, offset: 0x1164E, size: 0x8, addend: 0x0, symName: __ZNSt3__16copy_nB7v160006IPKcmPcEENS_9enable_ifIXsr33__is_cpp17_random_access_iteratorIT_EE5valueET1_E4typeES5_T0_S6_, symObjAddr: 0x13D70, symBinAddr: 0x1000165A8, symSize: 0x44 }
  - { offsetInCU: 0x1EB21, offset: 0x1EB21, size: 0x8, addend: 0x0, symName: __ZNSt3__111__introsortINS_17_ClassicAlgPolicyERZN6mapbox6detail6EarcutIjE14eliminateHolesINS_6vectorINS7_INS_5arrayIfLm2EEENS_9allocatorIS9_EEEENSA_ISC_EEEEEEPNS5_4NodeERKT_SG_EUlPKSF_SL_E_PSG_EEvT1_SP_T0_NS_15iterator_traitsISP_E15difference_typeE, symObjAddr: 0x21084, symBinAddr: 0x1000238BC, symSize: 0x708 }
  - { offsetInCU: 0x1EC7C, offset: 0x1EC7C, size: 0x8, addend: 0x0, symName: __ZNSt3__118__insertion_sort_3B7v160006INS_17_ClassicAlgPolicyERZN6mapbox6detail6EarcutIjE14eliminateHolesINS_6vectorINS7_INS_5arrayIfLm2EEENS_9allocatorIS9_EEEENSA_ISC_EEEEEEPNS5_4NodeERKT_SG_EUlPKSF_SL_E_PSG_EEvT1_SP_T0_, symObjAddr: 0x218F4, symBinAddr: 0x10002412C, symSize: 0x150 }
  - { offsetInCU: 0x1ED4F, offset: 0x1ED4F, size: 0x8, addend: 0x0, symName: __ZNSt3__111__sift_downB7v160006INS_17_ClassicAlgPolicyERZN6mapbox6detail6EarcutIjE14eliminateHolesINS_6vectorINS7_INS_5arrayIfLm2EEENS_9allocatorIS9_EEEENSA_ISC_EEEEEEPNS5_4NodeERKT_SG_EUlPKSF_SL_E_PSG_EEvT1_OT0_NS_15iterator_traitsISP_E15difference_typeESP_, symObjAddr: 0x22360, symBinAddr: 0x100024B98, symSize: 0x220 }
  - { offsetInCU: 0x1EDFC, offset: 0x1EDFC, size: 0x8, addend: 0x0, symName: __ZNSt3__117__floyd_sift_downB7v160006INS_17_ClassicAlgPolicyERZN6mapbox6detail6EarcutIjE14eliminateHolesINS_6vectorINS7_INS_5arrayIfLm2EEENS_9allocatorIS9_EEEENSA_ISC_EEEEEEPNS5_4NodeERKT_SG_EUlPKSF_SL_E_PSG_EET1_SP_OT0_NS_15iterator_traitsISP_E15difference_typeE, symObjAddr: 0x22704, symBinAddr: 0x100024F3C, symSize: 0x104 }
  - { offsetInCU: 0x1EE94, offset: 0x1EE94, size: 0x8, addend: 0x0, symName: __ZNSt3__127__insertion_sort_incompleteIRZN6mapbox6detail6EarcutIjE14eliminateHolesINS_6vectorINS6_INS_5arrayIfLm2EEENS_9allocatorIS8_EEEENS9_ISB_EEEEEEPNS4_4NodeERKT_SF_EUlPKSE_SK_E_PSF_EEbT0_SO_SG_, symObjAddr: 0x21C98, symBinAddr: 0x1000244D0, symSize: 0x324 }
  - { offsetInCU: 0x237A8, offset: 0x237A8, size: 0x8, addend: 0x0, symName: __ZNSt3__17advanceB7v160006IPN7tinyobj5tag_tEmmvEEvRT_T0_, symObjAddr: 0x25664, symBinAddr: 0x100027E9C, symSize: 0x50 }
  - { offsetInCU: 0x2384B, offset: 0x2384B, size: 0x8, addend: 0x0, symName: __ZNSt3__17advanceB7v160006IPimmvEEvRT_T0_, symObjAddr: 0x26114, symBinAddr: 0x10002894C, symSize: 0x50 }
  - { offsetInCU: 0x239F8, offset: 0x239F8, size: 0x8, addend: 0x0, symName: __ZNSt3__17advanceB7v160006IPfmmvEEvRT_T0_, symObjAddr: 0x2712C, symBinAddr: 0x100029964, symSize: 0x50 }
  - { offsetInCU: 0x23BA5, offset: 0x23BA5, size: 0x8, addend: 0x0, symName: __ZNSt3__17advanceB7v160006IPNS_12basic_stringIcNS_11char_traitsIcEENS_9allocatorIcEEEEmmvEEvRT_T0_, symObjAddr: 0x287EC, symBinAddr: 0x10002B024, symSize: 0x50 }
  - { offsetInCU: 0x2A065, offset: 0x2A065, size: 0x8, addend: 0x0, symName: __ZNSt3__17advanceB7v160006IP4Vec3mmvEEvRT_T0_, symObjAddr: 0x2E1F0, symBinAddr: 0x100030A28, symSize: 0x50 }
  - { offsetInCU: 0x300D4, offset: 0x300D4, size: 0x8, addend: 0x0, symName: __ZNSt3__17advanceB7v160006IP4FacemmvEEvRT_T0_, symObjAddr: 0x31E68, symBinAddr: 0x1000346A0, symSize: 0x50 }
  - { offsetInCU: 0x35F97, offset: 0x35F97, size: 0x8, addend: 0x0, symName: __ZNSt3__16chronomiB7v160006IxNS_5ratioILl1ELl1000000EEExS3_EENS_11common_typeIJNS0_8durationIT_T0_EENS5_IT1_T2_EEEE4typeERKS8_RKSB_, symObjAddr: 0x48B50, symBinAddr: 0x10004B388, symSize: 0x70 }
  - { offsetInCU: 0x3600D, offset: 0x3600D, size: 0x8, addend: 0x0, symName: __ZNSt3__16chrono13duration_castB7v160006INS0_8durationIxNS_5ratioILl1ELl1EEEEExNS3_ILl1ELl1000000EEEEENS_9enable_ifIXsr13__is_durationIT_EE5valueES8_E4typeERKNS2_IT0_T1_EE, symObjAddr: 0xFF78, symBinAddr: 0x1000127B0, symSize: 0x30 }
  - { offsetInCU: 0x36054, offset: 0x36054, size: 0x8, addend: 0x0, symName: __ZNSt3__16chronomiB7v160006INS0_12system_clockENS0_8durationIxNS_5ratioILl1ELl1000000EEEEES6_EENS_11common_typeIJT0_T1_EE4typeERKNS0_10time_pointIT_S8_EERKNSC_ISD_S9_EE, symObjAddr: 0xFFA8, symBinAddr: 0x1000127E0, symSize: 0x58 }
  - { offsetInCU: 0x38A6C, offset: 0x38A6C, size: 0x8, addend: 0x0, symName: __ZNSt3__110__function10__not_nullB7v160006IZN9_Renderer9renderCPUEiEUlvE_EEbRKT_, symObjAddr: 0x416B0, symBinAddr: 0x100043EE8, symSize: 0x18 }
  - { offsetInCU: 0x38A9F, offset: 0x38A9F, size: 0x8, addend: 0x0, symName: __ZNSt3__110__function10__not_nullB7v160006IZN9_Renderer9renderCPUEiEUlvE0_EEbRKT_, symObjAddr: 0x46AF8, symBinAddr: 0x100049330, symSize: 0x18 }
  - { offsetInCU: 0x40037, offset: 0x40037, size: 0x8, addend: 0x0, symName: __ZNSt3__124__put_character_sequenceB7v160006IcNS_11char_traitsIcEEEERNS_13basic_ostreamIT_T0_EES7_PKS4_m, symObjAddr: 0x48CF0, symBinAddr: 0x10004B528, symSize: 0x1EC }
  - { offsetInCU: 0x4835C, offset: 0x4835C, size: 0x8, addend: 0x0, symName: __ZNSt3__17advanceB7v160006INS_21__tree_const_iteratorINS_12__value_typeINS_12basic_stringIcNS_11char_traitsIcEENS_9allocatorIcEEEES8_EEPNS_11__tree_nodeIS9_PvEElEEllvEEvRT_T0_, symObjAddr: 0x52F94, symBinAddr: 0x1000557CC, symSize: 0x50 }
  - { offsetInCU: 0x5266A, offset: 0x5266A, size: 0x8, addend: 0x0, symName: __ZNSt3__1lsB7v160006INS_11char_traitsIcEEEERNS_13basic_ostreamIcT_EES6_PKc, symObjAddr: 0x1154, symBinAddr: 0x10000398C, symSize: 0x48 }
  - { offsetInCU: 0x52B8A, offset: 0x52B8A, size: 0x8, addend: 0x0, symName: __ZNSt3__1lsB7v160006IcNS_11char_traitsIcEENS_9allocatorIcEEEERNS_13basic_ostreamIT_T0_EES9_RKNS_12basic_stringIS6_S7_T1_EE, symObjAddr: 0x5688, symBinAddr: 0x100007EC0, symSize: 0x4C }
  - { offsetInCU: 0x52DF6, offset: 0x52DF6, size: 0x8, addend: 0x0, symName: __ZNSt3__17getlineB7v160006IcNS_11char_traitsIcEENS_9allocatorIcEEEERNS_13basic_istreamIT_T0_EES9_RNS_12basic_stringIS6_S7_T1_EES6_, symObjAddr: 0x5FA0, symBinAddr: 0x1000087D8, symSize: 0x238 }
  - { offsetInCU: 0x53B46, offset: 0x53B46, size: 0x8, addend: 0x0, symName: __ZNSt3__1plB7v160006IcNS_11char_traitsIcEENS_9allocatorIcEEEENS_12basic_stringIT_T0_T1_EEOS9_PKS6_, symObjAddr: 0x9DAC, symBinAddr: 0x10000C5E4, symSize: 0x40 }
  - { offsetInCU: 0x53B9E, offset: 0x53B9E, size: 0x8, addend: 0x0, symName: __ZNSt3__1plB7v160006IcNS_11char_traitsIcEENS_9allocatorIcEEEENS_12basic_stringIT_T0_T1_EEPKS6_OS9_, symObjAddr: 0x9DEC, symBinAddr: 0x10000C624, symSize: 0x44 }
  - { offsetInCU: 0x53BF6, offset: 0x53BF6, size: 0x8, addend: 0x0, symName: __ZNSt3__1neB7v160006ERKNS_20__map_const_iteratorINS_21__tree_const_iteratorINS_12__value_typeINS_12basic_stringIcNS_11char_traitsIcEENS_9allocatorIcEEEEiEEPNS_11__tree_nodeIS9_PvEElEEEESH_, symObjAddr: 0xA2B4, symBinAddr: 0x10000CAEC, symSize: 0x30 }
  - { offsetInCU: 0x53C33, offset: 0x53C33, size: 0x8, addend: 0x0, symName: __ZNSt3__14endlB7v160006IcNS_11char_traitsIcEEEERNS_13basic_ostreamIT_T0_EES7_, symObjAddr: 0xFD34, symBinAddr: 0x10001256C, symSize: 0x58 }
  - { offsetInCU: 0x53C73, offset: 0x53C73, size: 0x8, addend: 0x0, symName: __ZNSt3__1lsB7v160006INS_11char_traitsIcEEEERNS_13basic_ostreamIcT_EES6_c, symObjAddr: 0x10000, symBinAddr: 0x100012838, symSize: 0x34 }
  - { offsetInCU: 0x53D11, offset: 0x53D11, size: 0x8, addend: 0x0, symName: __ZNSt3__119__debug_db_insert_cB7v160006INS_12basic_stringIcNS_11char_traitsIcEENS_9allocatorIcEEEEEEvPT_, symObjAddr: 0x118FC, symBinAddr: 0x100014134, symSize: 0x10 }
  - { offsetInCU: 0x53D42, offset: 0x53D42, size: 0x8, addend: 0x0, symName: __ZNSt3__18distanceB7v160006IPKcEENS_15iterator_traitsIT_E15difference_typeES4_S4_, symObjAddr: 0x119C8, symBinAddr: 0x100014200, symSize: 0x2C }
  - { offsetInCU: 0x53D85, offset: 0x53D85, size: 0x8, addend: 0x0, symName: __ZNSt3__119__allocate_at_leastB7v160006INS_9allocatorIcEEEENS_19__allocation_resultINS_16allocator_traitsIT_E7pointerEEERS5_m, symObjAddr: 0x11B7C, symBinAddr: 0x1000143B4, symSize: 0x40 }
  - { offsetInCU: 0x53DC9, offset: 0x53DC9, size: 0x8, addend: 0x0, symName: __ZNSt3__110__distanceB7v160006IPKcEENS_15iterator_traitsIT_E15difference_typeES4_S4_NS_26random_access_iterator_tagE, symObjAddr: 0x11D7C, symBinAddr: 0x1000145B4, symSize: 0x20 }
  - { offsetInCU: 0x54004, offset: 0x54004, size: 0x8, addend: 0x0, symName: __ZNSt3__120__throw_length_errorB7v160006EPKc, symObjAddr: 0x11E4C, symBinAddr: 0x100014684, symSize: 0x64 }
  - { offsetInCU: 0x5405F, offset: 0x5405F, size: 0x8, addend: 0x0, symName: __ZNSt3__117__libcpp_allocateB7v160006Emm, symObjAddr: 0x12008, symBinAddr: 0x100014840, symSize: 0x60 }
  - { offsetInCU: 0x540B9, offset: 0x540B9, size: 0x8, addend: 0x0, symName: __ZNSt3__124__is_overaligned_for_newB7v160006Em, symObjAddr: 0x12068, symBinAddr: 0x1000148A0, symSize: 0x20 }
  - { offsetInCU: 0x540E7, offset: 0x540E7, size: 0x8, addend: 0x0, symName: __ZNSt3__121__libcpp_operator_newB7v160006IJmSt11align_val_tEEEPvDpT_, symObjAddr: 0x12088, symBinAddr: 0x1000148C0, symSize: 0x2C }
  - { offsetInCU: 0x54134, offset: 0x54134, size: 0x8, addend: 0x0, symName: __ZNSt3__121__libcpp_operator_newB7v160006IJmEEEPvDpT_, symObjAddr: 0x120B4, symBinAddr: 0x1000148EC, symSize: 0x24 }
  - { offsetInCU: 0x541A0, offset: 0x541A0, size: 0x8, addend: 0x0, symName: __ZNSt3__17launderB7v160006INS_4pairIKNS_12basic_stringIcNS_11char_traitsIcEENS_9allocatorIcEEEES7_EEEEPT_SB_, symObjAddr: 0x12AC8, symBinAddr: 0x100015300, symSize: 0x24 }
  - { offsetInCU: 0x541D7, offset: 0x541D7, size: 0x8, addend: 0x0, symName: __ZNSt3__19__launderB7v160006INS_4pairIKNS_12basic_stringIcNS_11char_traitsIcEENS_9allocatorIcEEEES7_EEEEPT_SB_, symObjAddr: 0x12AEC, symBinAddr: 0x100015324, symSize: 0x14 }
  - { offsetInCU: 0x5420E, offset: 0x5420E, size: 0x8, addend: 0x0, symName: __ZNSt3__119__libcpp_deallocateB7v160006EPvmm, symObjAddr: 0x12B44, symBinAddr: 0x10001537C, symSize: 0x60 }
  - { offsetInCU: 0x54273, offset: 0x54273, size: 0x8, addend: 0x0, symName: __ZNSt3__127__do_deallocate_handle_sizeB7v160006IJSt11align_val_tEEEvPvmDpT_, symObjAddr: 0x12BA4, symBinAddr: 0x1000153DC, symSize: 0x30 }
  - { offsetInCU: 0x542C6, offset: 0x542C6, size: 0x8, addend: 0x0, symName: __ZNSt3__127__do_deallocate_handle_sizeB7v160006IJEEEvPvmDpT_, symObjAddr: 0x12BD4, symBinAddr: 0x10001540C, symSize: 0x28 }
  - { offsetInCU: 0x54304, offset: 0x54304, size: 0x8, addend: 0x0, symName: __ZNSt3__124__libcpp_operator_deleteB7v160006IJPvSt11align_val_tEEEvDpT_, symObjAddr: 0x12BFC, symBinAddr: 0x100015434, symSize: 0x2C }
  - { offsetInCU: 0x5434D, offset: 0x5434D, size: 0x8, addend: 0x0, symName: __ZNSt3__124__libcpp_operator_deleteB7v160006IJPvEEEvDpT_, symObjAddr: 0x12C28, symBinAddr: 0x100015460, symSize: 0x24 }
  - { offsetInCU: 0x54383, offset: 0x54383, size: 0x8, addend: 0x0, symName: __ZNSt3__125__debug_db_invalidate_allB7v160006INS_12basic_stringIcNS_11char_traitsIcEENS_9allocatorIcEEEEEEvPT_, symObjAddr: 0x12E98, symBinAddr: 0x1000156D0, symSize: 0x10 }
  - { offsetInCU: 0x543B4, offset: 0x543B4, size: 0x8, addend: 0x0, symName: __ZNSt3__1plB7v160006IcNS_11char_traitsIcEENS_9allocatorIcEEEENS_12basic_stringIT_T0_T1_EEOS9_RKS9_, symObjAddr: 0x13434, symBinAddr: 0x100015C6C, symSize: 0x40 }
  - { offsetInCU: 0x5440C, offset: 0x5440C, size: 0x8, addend: 0x0, symName: __ZNSt3__1plB7v160006IcNS_11char_traitsIcEENS_9allocatorIcEEEENS_12basic_stringIT_T0_T1_EERKS9_OS9_, symObjAddr: 0x13474, symBinAddr: 0x100015CAC, symSize: 0x44 }
  - { offsetInCU: 0x54464, offset: 0x54464, size: 0x8, addend: 0x0, symName: __ZNSt3__1plB7v160006IcNS_11char_traitsIcEENS_9allocatorIcEEEENS_12basic_stringIT_T0_T1_EERKS9_SB_, symObjAddr: 0x134B8, symBinAddr: 0x100015CF0, symSize: 0x134 }
  - { offsetInCU: 0x54539, offset: 0x54539, size: 0x8, addend: 0x0, symName: __ZNSt3__112__to_addressB7v160006IKcEEPT_S3_, symObjAddr: 0x138D8, symBinAddr: 0x100016110, symSize: 0x14 }
  - { offsetInCU: 0x5456F, offset: 0x5456F, size: 0x8, addend: 0x0, symName: __ZNSt3__115__debug_db_swapB7v160006INS_12basic_stringIcNS_11char_traitsIcEENS_9allocatorIcEEEEEEvPT_S8_, symObjAddr: 0x139B0, symBinAddr: 0x1000161E8, symSize: 0x14 }
  - { offsetInCU: 0x545AF, offset: 0x545AF, size: 0x8, addend: 0x0, symName: __ZNSt3__112__to_addressB7v160006IcEEPT_S2_, symObjAddr: 0x13A90, symBinAddr: 0x1000162C8, symSize: 0x14 }
  - { offsetInCU: 0x545E4, offset: 0x545E4, size: 0x8, addend: 0x0, symName: __ZNSt3__14copyB7v160006IPKcPcEET0_T_S5_S4_, symObjAddr: 0x13DB4, symBinAddr: 0x1000165EC, symSize: 0x40 }
  - { offsetInCU: 0x5463E, offset: 0x5463E, size: 0x8, addend: 0x0, symName: __ZNSt3__16__copyB7v160006INS_17_ClassicAlgPolicyEPKcS3_PcEENS_4pairIT0_T2_EES6_T1_S7_, symObjAddr: 0x13DF4, symBinAddr: 0x10001662C, symSize: 0x44 }
  - { offsetInCU: 0x546AA, offset: 0x546AA, size: 0x8, addend: 0x0, symName: __ZNSt3__123__dispatch_copy_or_moveB7v160006INS_17_ClassicAlgPolicyENS_11__copy_loopIS1_EENS_14__copy_trivialEPKcS6_PcEENS_4pairIT2_T4_EES9_T3_SA_, symObjAddr: 0x13E38, symBinAddr: 0x100016670, symSize: 0x44 }
  - { offsetInCU: 0x54728, offset: 0x54728, size: 0x8, addend: 0x0, symName: __ZNSt3__121__unwrap_and_dispatchB7v160006INS_10__overloadINS_11__copy_loopINS_17_ClassicAlgPolicyEEENS_14__copy_trivialEEEPKcS8_PcLi0EEENS_4pairIT0_T2_EESB_T1_SC_, symObjAddr: 0x13E7C, symBinAddr: 0x1000166B4, symSize: 0xB4 }
  - { offsetInCU: 0x547B6, offset: 0x547B6, size: 0x8, addend: 0x0, symName: __ZNSt3__114__unwrap_rangeB7v160006IPKcS2_EENS_4pairIT0_S4_EET_S6_, symObjAddr: 0x13F30, symBinAddr: 0x100016768, symSize: 0x60 }
  - { offsetInCU: 0x549FF, offset: 0x549FF, size: 0x8, addend: 0x0, symName: __ZNSt3__113__unwrap_iterB7v160006IPcNS_18__unwrap_iter_implIS1_Lb1EEELi0EEEDTclsrT0_8__unwrapclsr3stdE7declvalIT_EEEES5_, symObjAddr: 0x13FD8, symBinAddr: 0x100016810, symSize: 0x24 }
  - { offsetInCU: 0x54A43, offset: 0x54A43, size: 0x8, addend: 0x0, symName: __ZNSt3__19make_pairB7v160006IPKcPcEENS_4pairINS_18__unwrap_ref_decayIT_E4typeENS5_IT0_E4typeEEEOS6_OS9_, symObjAddr: 0x13FFC, symBinAddr: 0x100016834, symSize: 0x38 }
  - { offsetInCU: 0x54A92, offset: 0x54A92, size: 0x8, addend: 0x0, symName: __ZNSt3__114__rewrap_rangeB7v160006IPKcS2_EET_S3_T0_, symObjAddr: 0x14034, symBinAddr: 0x10001686C, symSize: 0x2C }
  - { offsetInCU: 0x54ADE, offset: 0x54ADE, size: 0x8, addend: 0x0, symName: __ZNSt3__113__rewrap_iterB7v160006IPcS1_NS_18__unwrap_iter_implIS1_Lb1EEEEET_S4_T0_, symObjAddr: 0x14060, symBinAddr: 0x100016898, symSize: 0x3C }
  - { offsetInCU: 0x54B33, offset: 0x54B33, size: 0x8, addend: 0x0, symName: __ZNSt3__19make_pairB7v160006IPKcS2_EENS_4pairINS_18__unwrap_ref_decayIT_E4typeENS4_IT0_E4typeEEEOS5_OS8_, symObjAddr: 0x1409C, symBinAddr: 0x1000168D4, symSize: 0x38 }
  - { offsetInCU: 0x54B82, offset: 0x54B82, size: 0x8, addend: 0x0, symName: __ZNSt3__113__unwrap_iterB7v160006IPKcNS_18__unwrap_iter_implIS2_Lb1EEELi0EEEDTclsrT0_8__unwrapclsr3stdE7declvalIT_EEEES6_, symObjAddr: 0x140D4, symBinAddr: 0x10001690C, symSize: 0x24 }
  - { offsetInCU: 0x54CED, offset: 0x54CED, size: 0x8, addend: 0x0, symName: __ZNSt3__119__copy_trivial_implB7v160006IKccEENS_4pairIPT_PT0_EES4_S4_S6_, symObjAddr: 0x1418C, symBinAddr: 0x1000169C4, symSize: 0x7C }
  - { offsetInCU: 0x54D55, offset: 0x54D55, size: 0x8, addend: 0x0, symName: __ZNSt3__19make_pairB7v160006IRPKcPcEENS_4pairINS_18__unwrap_ref_decayIT_E4typeENS6_IT0_E4typeEEEOS7_OSA_, symObjAddr: 0x14208, symBinAddr: 0x100016A40, symSize: 0x38 }
  - { offsetInCU: 0x54DF7, offset: 0x54DF7, size: 0x8, addend: 0x0, symName: __ZNSt3__113__rewrap_iterB7v160006IPKcS2_NS_18__unwrap_iter_implIS2_Lb1EEEEET_S5_T0_, symObjAddr: 0x14344, symBinAddr: 0x100016B7C, symSize: 0x3C }
  - { offsetInCU: 0x54E4C, offset: 0x54E4C, size: 0x8, addend: 0x0, symName: __ZNSt3__16fill_nB7v160006IPcmcEET_S2_T0_RKT1_, symObjAddr: 0x14410, symBinAddr: 0x100016C48, symSize: 0x44 }
  - { offsetInCU: 0x54EB0, offset: 0x54EB0, size: 0x8, addend: 0x0, symName: __ZNSt3__18__fill_nB7v160006IPcmcEET_S2_T0_RKT1_, symObjAddr: 0x14454, symBinAddr: 0x100016C8C, symSize: 0x64 }
  - { offsetInCU: 0x54F14, offset: 0x54F14, size: 0x8, addend: 0x0, symName: __ZNSt3__121__convert_to_integralB7v160006Em, symObjAddr: 0x144B8, symBinAddr: 0x100016CF0, symSize: 0x14 }
  - { offsetInCU: 0x54F41, offset: 0x54F41, size: 0x8, addend: 0x0, symName: __ZNSt3__119__debug_db_insert_cB7v160006INS_6vectorIN7tinyobj6face_tENS_9allocatorIS3_EEEEEEvPT_, symObjAddr: 0x147A0, symBinAddr: 0x100016FD8, symSize: 0x10 }
  - { offsetInCU: 0x54F73, offset: 0x54F73, size: 0x8, addend: 0x0, symName: __ZNSt3__119__debug_db_insert_cB7v160006INS_6vectorIN7tinyobj8__line_tENS_9allocatorIS3_EEEEEEvPT_, symObjAddr: 0x1490C, symBinAddr: 0x100017144, symSize: 0x10 }
  - { offsetInCU: 0x54FA5, offset: 0x54FA5, size: 0x8, addend: 0x0, symName: __ZNSt3__119__debug_db_insert_cB7v160006INS_6vectorIN7tinyobj10__points_tENS_9allocatorIS3_EEEEEEvPT_, symObjAddr: 0x14A78, symBinAddr: 0x1000172B0, symSize: 0x10 }
  - { offsetInCU: 0x54FD7, offset: 0x54FD7, size: 0x8, addend: 0x0, symName: __ZNSt3__119__debug_db_insert_cB7v160006INS_6vectorIjNS_9allocatorIjEEEEEEvPT_, symObjAddr: 0x14D6C, symBinAddr: 0x1000175A4, symSize: 0x10 }
  - { offsetInCU: 0x55009, offset: 0x55009, size: 0x8, addend: 0x0, symName: __ZNSt3__119__debug_db_insert_cB7v160006INS_6vectorIiNS_9allocatorIiEEEEEEvPT_, symObjAddr: 0x14ED8, symBinAddr: 0x100017710, symSize: 0x10 }
  - { offsetInCU: 0x5503B, offset: 0x5503B, size: 0x8, addend: 0x0, symName: __ZNSt3__119__debug_db_insert_cB7v160006INS_6vectorIN7tinyobj18joint_and_weight_tENS_9allocatorIS3_EEEEEEvPT_, symObjAddr: 0x151D0, symBinAddr: 0x100017A08, symSize: 0x10 }
  - { offsetInCU: 0x5506D, offset: 0x5506D, size: 0x8, addend: 0x0, symName: __ZNSt3__118__debug_db_erase_cB7v160006INS_6vectorIN7tinyobj18joint_and_weight_tENS_9allocatorIS3_EEEEEEvPT_, symObjAddr: 0x154F0, symBinAddr: 0x100017D28, symSize: 0x10 }
  - { offsetInCU: 0x5509F, offset: 0x5509F, size: 0x8, addend: 0x0, symName: __ZNSt3__112__to_addressB7v160006IN7tinyobj18joint_and_weight_tEEEPT_S4_, symObjAddr: 0x15634, symBinAddr: 0x100017E6C, symSize: 0x14 }
  - { offsetInCU: 0x550D5, offset: 0x550D5, size: 0x8, addend: 0x0, symName: __ZNSt3__119__debug_db_insert_cB7v160006INS_6vectorIN7tinyobj14vertex_index_tENS_9allocatorIS3_EEEEEEvPT_, symObjAddr: 0x158D8, symBinAddr: 0x100018110, symSize: 0x10 }
  - { offsetInCU: 0x55107, offset: 0x55107, size: 0x8, addend: 0x0, symName: __ZNSt3__118__debug_db_erase_cB7v160006INS_6vectorIN7tinyobj14vertex_index_tENS_9allocatorIS3_EEEEEEvPT_, symObjAddr: 0x15ECC, symBinAddr: 0x100018704, symSize: 0x10 }
  - { offsetInCU: 0x55139, offset: 0x55139, size: 0x8, addend: 0x0, symName: __ZNSt3__112__to_addressB7v160006IN7tinyobj14vertex_index_tEEEPT_S4_, symObjAddr: 0x16010, symBinAddr: 0x100018848, symSize: 0x14 }
  - { offsetInCU: 0x5516F, offset: 0x5516F, size: 0x8, addend: 0x0, symName: __ZNSt3__112__to_addressB7v160006IjEEPT_S2_, symObjAddr: 0x16DE8, symBinAddr: 0x100019620, symSize: 0x14 }
  - { offsetInCU: 0x551A4, offset: 0x551A4, size: 0x8, addend: 0x0, symName: __ZNSt3__13maxB7v160006ImEERKT_S3_S3_, symObjAddr: 0x171E4, symBinAddr: 0x100019A1C, symSize: 0x2C }
  - { offsetInCU: 0x551E7, offset: 0x551E7, size: 0x8, addend: 0x0, symName: __ZNSt3__13minB7v160006ImEERKT_S3_S3_, symObjAddr: 0x17210, symBinAddr: 0x100019A48, symSize: 0x2C }
  - { offsetInCU: 0x55414, offset: 0x55414, size: 0x8, addend: 0x0, symName: __ZNSt3__13minB7v160006ImNS_6__lessImmEEEERKT_S5_S5_T0_, symObjAddr: 0x1729C, symBinAddr: 0x100019AD4, symSize: 0x54 }
  - { offsetInCU: 0x554A9, offset: 0x554A9, size: 0x8, addend: 0x0, symName: __ZNSt3__13maxB7v160006ImNS_6__lessImmEEEERKT_S5_S5_T0_, symObjAddr: 0x173D8, symBinAddr: 0x100019C10, symSize: 0x54 }
  - { offsetInCU: 0x55503, offset: 0x55503, size: 0x8, addend: 0x0, symName: __ZNSt3__119__allocate_at_leastB7v160006INS_9allocatorIjEEEENS_19__allocation_resultINS_16allocator_traitsIT_E7pointerEEERS5_m, symObjAddr: 0x1753C, symBinAddr: 0x100019D74, symSize: 0x40 }
  - { offsetInCU: 0x55546, offset: 0x55546, size: 0x8, addend: 0x0, symName: __ZNSt3__142__uninitialized_allocator_move_if_noexceptB7v160006INS_9allocatorIjEENS_16reverse_iteratorIPjEES5_jvEET1_RT_T0_S9_S6_, symObjAddr: 0x177A8, symBinAddr: 0x100019FE0, symSize: 0x78 }
  - { offsetInCU: 0x555C5, offset: 0x555C5, size: 0x8, addend: 0x0, symName: __ZNSt3__14swapB7v160006IPjEENS_9enable_ifIXaasr21is_move_constructibleIT_EE5valuesr18is_move_assignableIS3_EE5valueEvE4typeERS3_S6_, symObjAddr: 0x1786C, symBinAddr: 0x10001A0A4, symSize: 0x3C }
  - { offsetInCU: 0x55617, offset: 0x55617, size: 0x8, addend: 0x0, symName: __ZNSt3__125__debug_db_invalidate_allB7v160006INS_6vectorIjNS_9allocatorIjEEEEEEvPT_, symObjAddr: 0x17954, symBinAddr: 0x10001A18C, symSize: 0x10 }
  - { offsetInCU: 0x55648, offset: 0x55648, size: 0x8, addend: 0x0, symName: __ZNSt3__14moveB7v160006INS_16reverse_iteratorIPjEES3_EET0_T_S5_S4_, symObjAddr: 0x179AC, symBinAddr: 0x10001A1E4, symSize: 0x78 }
  - { offsetInCU: 0x556A2, offset: 0x556A2, size: 0x8, addend: 0x0, symName: __ZNSt3__16__moveB7v160006INS_17_ClassicAlgPolicyENS_16reverse_iteratorIPjEES4_S4_EENS_4pairIT0_T2_EES6_T1_S7_, symObjAddr: 0x17A24, symBinAddr: 0x10001A25C, symSize: 0x64 }
  - { offsetInCU: 0x5570E, offset: 0x5570E, size: 0x8, addend: 0x0, symName: __ZNSt3__123__dispatch_copy_or_moveB7v160006INS_17_ClassicAlgPolicyENS_11__move_loopIS1_EENS_14__move_trivialENS_16reverse_iteratorIPjEES7_S7_EENS_4pairIT2_T4_EES9_T3_SA_, symObjAddr: 0x17A88, symBinAddr: 0x10001A2C0, symSize: 0x64 }
  - { offsetInCU: 0x5578C, offset: 0x5578C, size: 0x8, addend: 0x0, symName: __ZNSt3__121__unwrap_and_dispatchB7v160006INS_10__overloadINS_11__move_loopINS_17_ClassicAlgPolicyEEENS_14__move_trivialEEENS_16reverse_iteratorIPjEES9_S9_Li0EEENS_4pairIT0_T2_EESB_T1_SC_, symObjAddr: 0x17AEC, symBinAddr: 0x10001A324, symSize: 0x12C }
  - { offsetInCU: 0x5581C, offset: 0x5581C, size: 0x8, addend: 0x0, symName: __ZNSt3__114__unwrap_rangeB7v160006INS_16reverse_iteratorIPjEES3_EENS_4pairIT0_S5_EET_S7_, symObjAddr: 0x17C18, symBinAddr: 0x10001A450, symSize: 0x84 }
  - { offsetInCU: 0x55C4C, offset: 0x55C4C, size: 0x8, addend: 0x0, symName: __ZNSt3__113__unwrap_iterB7v160006INS_16reverse_iteratorIPjEENS_18__unwrap_iter_implIS3_Lb0EEELi0EEEDTclsrT0_8__unwrapclsr3stdE7declvalIT_EEEES7_, symObjAddr: 0x17D3C, symBinAddr: 0x10001A574, symSize: 0x44 }
  - { offsetInCU: 0x55C90, offset: 0x55C90, size: 0x8, addend: 0x0, symName: __ZNSt3__19make_pairB7v160006INS_16reverse_iteratorIPjEES3_EENS_4pairINS_18__unwrap_ref_decayIT_E4typeENS5_IT0_E4typeEEEOS6_OS9_, symObjAddr: 0x17D80, symBinAddr: 0x10001A5B8, symSize: 0x38 }
  - { offsetInCU: 0x55CDF, offset: 0x55CDF, size: 0x8, addend: 0x0, symName: __ZNSt3__114__rewrap_rangeB7v160006INS_16reverse_iteratorIPjEES3_EET_S4_T0_, symObjAddr: 0x17DB8, symBinAddr: 0x10001A5F0, symSize: 0x5C }
  - { offsetInCU: 0x55D2B, offset: 0x55D2B, size: 0x8, addend: 0x0, symName: __ZNSt3__113__rewrap_iterB7v160006INS_16reverse_iteratorIPjEES3_NS_18__unwrap_iter_implIS3_Lb0EEEEET_S6_T0_, symObjAddr: 0x17E14, symBinAddr: 0x10001A64C, symSize: 0x74 }
  - { offsetInCU: 0x55D80, offset: 0x55D80, size: 0x8, addend: 0x0, symName: __ZNSt3__1neB7v160006IPjS1_EEbRKNS_16reverse_iteratorIT_EERKNS2_IT0_EE, symObjAddr: 0x17E88, symBinAddr: 0x10001A6C0, symSize: 0x48 }
  - { offsetInCU: 0x5612E, offset: 0x5612E, size: 0x8, addend: 0x0, symName: __ZNSt3__112__to_addressB7v160006IiEEPT_S2_, symObjAddr: 0x1852C, symBinAddr: 0x10001AD64, symSize: 0x14 }
  - { offsetInCU: 0x56163, offset: 0x56163, size: 0x8, addend: 0x0, symName: __ZNSt3__119__allocate_at_leastB7v160006INS_9allocatorIiEEEENS_19__allocation_resultINS_16allocator_traitsIT_E7pointerEEERS5_m, symObjAddr: 0x18B58, symBinAddr: 0x10001B390, symSize: 0x40 }
  - { offsetInCU: 0x561A6, offset: 0x561A6, size: 0x8, addend: 0x0, symName: __ZNSt3__142__uninitialized_allocator_move_if_noexceptB7v160006INS_9allocatorIiEENS_16reverse_iteratorIPiEES5_ivEET1_RT_T0_S9_S6_, symObjAddr: 0x18DC4, symBinAddr: 0x10001B5FC, symSize: 0x78 }
  - { offsetInCU: 0x56225, offset: 0x56225, size: 0x8, addend: 0x0, symName: __ZNSt3__14swapB7v160006IPiEENS_9enable_ifIXaasr21is_move_constructibleIT_EE5valuesr18is_move_assignableIS3_EE5valueEvE4typeERS3_S6_, symObjAddr: 0x18E88, symBinAddr: 0x10001B6C0, symSize: 0x3C }
  - { offsetInCU: 0x56277, offset: 0x56277, size: 0x8, addend: 0x0, symName: __ZNSt3__125__debug_db_invalidate_allB7v160006INS_6vectorIiNS_9allocatorIiEEEEEEvPT_, symObjAddr: 0x18F70, symBinAddr: 0x10001B7A8, symSize: 0x10 }
  - { offsetInCU: 0x562A8, offset: 0x562A8, size: 0x8, addend: 0x0, symName: __ZNSt3__14moveB7v160006INS_16reverse_iteratorIPiEES3_EET0_T_S5_S4_, symObjAddr: 0x18FC8, symBinAddr: 0x10001B800, symSize: 0x78 }
  - { offsetInCU: 0x56302, offset: 0x56302, size: 0x8, addend: 0x0, symName: __ZNSt3__16__moveB7v160006INS_17_ClassicAlgPolicyENS_16reverse_iteratorIPiEES4_S4_EENS_4pairIT0_T2_EES6_T1_S7_, symObjAddr: 0x19040, symBinAddr: 0x10001B878, symSize: 0x64 }
  - { offsetInCU: 0x5636E, offset: 0x5636E, size: 0x8, addend: 0x0, symName: __ZNSt3__123__dispatch_copy_or_moveB7v160006INS_17_ClassicAlgPolicyENS_11__move_loopIS1_EENS_14__move_trivialENS_16reverse_iteratorIPiEES7_S7_EENS_4pairIT2_T4_EES9_T3_SA_, symObjAddr: 0x190A4, symBinAddr: 0x10001B8DC, symSize: 0x64 }
  - { offsetInCU: 0x563EC, offset: 0x563EC, size: 0x8, addend: 0x0, symName: __ZNSt3__121__unwrap_and_dispatchB7v160006INS_10__overloadINS_11__move_loopINS_17_ClassicAlgPolicyEEENS_14__move_trivialEEENS_16reverse_iteratorIPiEES9_S9_Li0EEENS_4pairIT0_T2_EESB_T1_SC_, symObjAddr: 0x19108, symBinAddr: 0x10001B940, symSize: 0x12C }
  - { offsetInCU: 0x5647C, offset: 0x5647C, size: 0x8, addend: 0x0, symName: __ZNSt3__114__unwrap_rangeB7v160006INS_16reverse_iteratorIPiEES3_EENS_4pairIT0_S5_EET_S7_, symObjAddr: 0x19234, symBinAddr: 0x10001BA6C, symSize: 0x84 }
  - { offsetInCU: 0x5659C, offset: 0x5659C, size: 0x8, addend: 0x0, symName: __ZNSt3__113__unwrap_iterB7v160006INS_16reverse_iteratorIPiEENS_18__unwrap_iter_implIS3_Lb0EEELi0EEEDTclsrT0_8__unwrapclsr3stdE7declvalIT_EEEES7_, symObjAddr: 0x19358, symBinAddr: 0x10001BB90, symSize: 0x44 }
  - { offsetInCU: 0x565E0, offset: 0x565E0, size: 0x8, addend: 0x0, symName: __ZNSt3__19make_pairB7v160006INS_16reverse_iteratorIPiEES3_EENS_4pairINS_18__unwrap_ref_decayIT_E4typeENS5_IT0_E4typeEEEOS6_OS9_, symObjAddr: 0x1939C, symBinAddr: 0x10001BBD4, symSize: 0x38 }
  - { offsetInCU: 0x5662F, offset: 0x5662F, size: 0x8, addend: 0x0, symName: __ZNSt3__114__rewrap_rangeB7v160006INS_16reverse_iteratorIPiEES3_EET_S4_T0_, symObjAddr: 0x193D4, symBinAddr: 0x10001BC0C, symSize: 0x5C }
  - { offsetInCU: 0x5667B, offset: 0x5667B, size: 0x8, addend: 0x0, symName: __ZNSt3__113__rewrap_iterB7v160006INS_16reverse_iteratorIPiEES3_NS_18__unwrap_iter_implIS3_Lb0EEEEET_S6_T0_, symObjAddr: 0x19430, symBinAddr: 0x10001BC68, symSize: 0x74 }
  - { offsetInCU: 0x566D0, offset: 0x566D0, size: 0x8, addend: 0x0, symName: __ZNSt3__1neB7v160006IPiS1_EEbRKNS_16reverse_iteratorIT_EERKNS2_IT0_EE, symObjAddr: 0x194A4, symBinAddr: 0x10001BCDC, symSize: 0x48 }
  - { offsetInCU: 0x56789, offset: 0x56789, size: 0x8, addend: 0x0, symName: __ZNSt3__119__debug_db_insert_cB7v160006INS_6vectorINS1_INS_5arrayIfLm2EEENS_9allocatorIS3_EEEENS4_IS6_EEEEEEvPT_, symObjAddr: 0x19B9C, symBinAddr: 0x10001C3D4, symSize: 0x10 }
  - { offsetInCU: 0x567BB, offset: 0x567BB, size: 0x8, addend: 0x0, symName: __ZNSt3__119__debug_db_insert_cB7v160006INS_6vectorINS_5arrayIfLm2EEENS_9allocatorIS3_EEEEEEvPT_, symObjAddr: 0x19D08, symBinAddr: 0x10001C540, symSize: 0x10 }
  - { offsetInCU: 0x567ED, offset: 0x567ED, size: 0x8, addend: 0x0, symName: __ZNSt3__112__to_addressB7v160006INS_5arrayIfLm2EEEEEPT_S4_, symObjAddr: 0x1A090, symBinAddr: 0x10001C8C8, symSize: 0x14 }
  - { offsetInCU: 0x56822, offset: 0x56822, size: 0x8, addend: 0x0, symName: __ZNSt3__119__allocate_at_leastB7v160006INS_9allocatorINS_5arrayIfLm2EEEEEEENS_19__allocation_resultINS_16allocator_traitsIT_E7pointerEEERS7_m, symObjAddr: 0x1A6BC, symBinAddr: 0x10001CEF4, symSize: 0x40 }
  - { offsetInCU: 0x56865, offset: 0x56865, size: 0x8, addend: 0x0, symName: __ZNSt3__142__uninitialized_allocator_move_if_noexceptB7v160006INS_9allocatorINS_5arrayIfLm2EEEEENS_16reverse_iteratorIPS3_EES7_S3_vEET1_RT_T0_SB_S8_, symObjAddr: 0x1A928, symBinAddr: 0x10001D160, symSize: 0x78 }
  - { offsetInCU: 0x568E4, offset: 0x568E4, size: 0x8, addend: 0x0, symName: __ZNSt3__14swapB7v160006IPNS_5arrayIfLm2EEEEENS_9enable_ifIXaasr21is_move_constructibleIT_EE5valuesr18is_move_assignableIS5_EE5valueEvE4typeERS5_S8_, symObjAddr: 0x1A9EC, symBinAddr: 0x10001D224, symSize: 0x3C }
  - { offsetInCU: 0x56936, offset: 0x56936, size: 0x8, addend: 0x0, symName: __ZNSt3__125__debug_db_invalidate_allB7v160006INS_6vectorINS_5arrayIfLm2EEENS_9allocatorIS3_EEEEEEvPT_, symObjAddr: 0x1AAD4, symBinAddr: 0x10001D30C, symSize: 0x10 }
  - { offsetInCU: 0x56967, offset: 0x56967, size: 0x8, addend: 0x0, symName: __ZNSt3__14moveB7v160006INS_16reverse_iteratorIPNS_5arrayIfLm2EEEEES5_EET0_T_S7_S6_, symObjAddr: 0x1AB2C, symBinAddr: 0x10001D364, symSize: 0x78 }
  - { offsetInCU: 0x569C1, offset: 0x569C1, size: 0x8, addend: 0x0, symName: __ZNSt3__16__moveB7v160006INS_17_ClassicAlgPolicyENS_16reverse_iteratorIPNS_5arrayIfLm2EEEEES6_S6_EENS_4pairIT0_T2_EES8_T1_S9_, symObjAddr: 0x1ABA4, symBinAddr: 0x10001D3DC, symSize: 0x64 }
  - { offsetInCU: 0x56A2D, offset: 0x56A2D, size: 0x8, addend: 0x0, symName: __ZNSt3__123__dispatch_copy_or_moveB7v160006INS_17_ClassicAlgPolicyENS_11__move_loopIS1_EENS_14__move_trivialENS_16reverse_iteratorIPNS_5arrayIfLm2EEEEES9_S9_EENS_4pairIT2_T4_EESB_T3_SC_, symObjAddr: 0x1AC08, symBinAddr: 0x10001D440, symSize: 0x64 }
  - { offsetInCU: 0x56AAB, offset: 0x56AAB, size: 0x8, addend: 0x0, symName: __ZNSt3__121__unwrap_and_dispatchB7v160006INS_10__overloadINS_11__move_loopINS_17_ClassicAlgPolicyEEENS_14__move_trivialEEENS_16reverse_iteratorIPNS_5arrayIfLm2EEEEESB_SB_Li0EEENS_4pairIT0_T2_EESD_T1_SE_, symObjAddr: 0x1AC6C, symBinAddr: 0x10001D4A4, symSize: 0x12C }
  - { offsetInCU: 0x56B3B, offset: 0x56B3B, size: 0x8, addend: 0x0, symName: __ZNSt3__114__unwrap_rangeB7v160006INS_16reverse_iteratorIPNS_5arrayIfLm2EEEEES5_EENS_4pairIT0_S7_EET_S9_, symObjAddr: 0x1AD98, symBinAddr: 0x10001D5D0, symSize: 0x84 }
  - { offsetInCU: 0x56C5B, offset: 0x56C5B, size: 0x8, addend: 0x0, symName: __ZNSt3__113__unwrap_iterB7v160006INS_16reverse_iteratorIPNS_5arrayIfLm2EEEEENS_18__unwrap_iter_implIS5_Lb0EEELi0EEEDTclsrT0_8__unwrapclsr3stdE7declvalIT_EEEES9_, symObjAddr: 0x1AEBC, symBinAddr: 0x10001D6F4, symSize: 0x44 }
  - { offsetInCU: 0x56C9F, offset: 0x56C9F, size: 0x8, addend: 0x0, symName: __ZNSt3__19make_pairB7v160006INS_16reverse_iteratorIPNS_5arrayIfLm2EEEEES5_EENS_4pairINS_18__unwrap_ref_decayIT_E4typeENS7_IT0_E4typeEEEOS8_OSB_, symObjAddr: 0x1AF00, symBinAddr: 0x10001D738, symSize: 0x38 }
  - { offsetInCU: 0x56CEE, offset: 0x56CEE, size: 0x8, addend: 0x0, symName: __ZNSt3__114__rewrap_rangeB7v160006INS_16reverse_iteratorIPNS_5arrayIfLm2EEEEES5_EET_S6_T0_, symObjAddr: 0x1AF38, symBinAddr: 0x10001D770, symSize: 0x5C }
  - { offsetInCU: 0x56D3A, offset: 0x56D3A, size: 0x8, addend: 0x0, symName: __ZNSt3__113__rewrap_iterB7v160006INS_16reverse_iteratorIPNS_5arrayIfLm2EEEEES5_NS_18__unwrap_iter_implIS5_Lb0EEEEET_S8_T0_, symObjAddr: 0x1AF94, symBinAddr: 0x10001D7CC, symSize: 0x74 }
  - { offsetInCU: 0x56D8F, offset: 0x56D8F, size: 0x8, addend: 0x0, symName: __ZNSt3__1neB7v160006IPNS_5arrayIfLm2EEES3_EEbRKNS_16reverse_iteratorIT_EERKNS4_IT0_EE, symObjAddr: 0x1B008, symBinAddr: 0x10001D840, symSize: 0x48 }
  - { offsetInCU: 0x56E48, offset: 0x56E48, size: 0x8, addend: 0x0, symName: __ZNSt3__112__to_addressB7v160006INS_6vectorINS_5arrayIfLm2EEENS_9allocatorIS3_EEEEEEPT_S8_, symObjAddr: 0x1B6AC, symBinAddr: 0x10001DEE4, symSize: 0x14 }
  - { offsetInCU: 0x56E7D, offset: 0x56E7D, size: 0x8, addend: 0x0, symName: __ZNSt3__122__make_exception_guardB7v160006INS_6vectorINS_5arrayIfLm2EEENS_9allocatorIS3_EEE16__destroy_vectorEEENS_28__exception_guard_exceptionsIT_EES9_, symObjAddr: 0x1B8F8, symBinAddr: 0x10001E130, symSize: 0x40 }
  - { offsetInCU: 0x56EB2, offset: 0x56EB2, size: 0x8, addend: 0x0, symName: __ZNSt3__130__uninitialized_allocator_copyB7v160006INS_9allocatorINS_5arrayIfLm2EEEEEPS3_S5_S5_EET2_RT_T0_T1_S6_, symObjAddr: 0x1BBC0, symBinAddr: 0x10001E3F8, symSize: 0xF4 }
  - { offsetInCU: 0x56F50, offset: 0x56F50, size: 0x8, addend: 0x0, symName: __ZNSt3__122__make_exception_guardB7v160006INS_29_AllocatorDestroyRangeReverseINS_9allocatorINS_5arrayIfLm2EEEEEPS4_EEEENS_28__exception_guard_exceptionsIT_EES9_, symObjAddr: 0x1BCB4, symBinAddr: 0x10001E4EC, symSize: 0x4C }
  - { offsetInCU: 0x56F86, offset: 0x56F86, size: 0x8, addend: 0x0, symName: __ZNSt3__119__allocator_destroyB7v160006INS_9allocatorINS_5arrayIfLm2EEEEENS_16reverse_iteratorIPS3_EES7_EEvRT_T0_T1_, symObjAddr: 0x1BF3C, symBinAddr: 0x10001E774, symSize: 0x70 }
  - { offsetInCU: 0x56FE9, offset: 0x56FE9, size: 0x8, addend: 0x0, symName: __ZNSt3__112__to_addressB7v160006INS_16reverse_iteratorIPNS_5arrayIfLm2EEEEEvEENS_5decayIDTclsr19__to_address_helperIT_EE6__callclsr3stdE7declvalIRKS7_EEEEE4typeES9_, symObjAddr: 0x1BFAC, symBinAddr: 0x10001E7E4, symSize: 0x24 }
  - { offsetInCU: 0x5704A, offset: 0x5704A, size: 0x8, addend: 0x0, symName: __ZNSt3__118__debug_db_erase_cB7v160006INS_6vectorINS_5arrayIfLm2EEENS_9allocatorIS3_EEEEEEvPT_, symObjAddr: 0x1C118, symBinAddr: 0x10001E950, symSize: 0x10 }
  - { offsetInCU: 0x5707B, offset: 0x5707B, size: 0x8, addend: 0x0, symName: __ZNSt3__119__allocate_at_leastB7v160006INS_9allocatorINS_6vectorINS_5arrayIfLm2EEENS1_IS4_EEEEEEEENS_19__allocation_resultINS_16allocator_traitsIT_E7pointerEEERSA_m, symObjAddr: 0x1C76C, symBinAddr: 0x10001EFA4, symSize: 0x40 }
  - { offsetInCU: 0x570BE, offset: 0x570BE, size: 0x8, addend: 0x0, symName: __ZNSt3__142__uninitialized_allocator_move_if_noexceptB7v160006INS_9allocatorINS_6vectorINS_5arrayIfLm2EEENS1_IS4_EEEEEENS_16reverse_iteratorIPS6_EESA_SA_EET2_RT_T0_T1_SB_, symObjAddr: 0x1C9F8, symBinAddr: 0x10001F230, symSize: 0x12C }
  - { offsetInCU: 0x5715F, offset: 0x5715F, size: 0x8, addend: 0x0, symName: __ZNSt3__14swapB7v160006IPNS_6vectorINS_5arrayIfLm2EEENS_9allocatorIS3_EEEEEENS_9enable_ifIXaasr21is_move_constructibleIT_EE5valuesr18is_move_assignableIS9_EE5valueEvE4typeERS9_SC_, symObjAddr: 0x1CB70, symBinAddr: 0x10001F3A8, symSize: 0x3C }
  - { offsetInCU: 0x571B1, offset: 0x571B1, size: 0x8, addend: 0x0, symName: __ZNSt3__125__debug_db_invalidate_allB7v160006INS_6vectorINS1_INS_5arrayIfLm2EEENS_9allocatorIS3_EEEENS4_IS6_EEEEEEvPT_, symObjAddr: 0x1CC74, symBinAddr: 0x10001F4AC, symSize: 0x10 }
  - { offsetInCU: 0x571E2, offset: 0x571E2, size: 0x8, addend: 0x0, symName: __ZNSt3__122__make_exception_guardB7v160006INS_29_AllocatorDestroyRangeReverseINS_9allocatorINS_6vectorINS_5arrayIfLm2EEENS2_IS5_EEEEEENS_16reverse_iteratorIPS7_EEEEEENS_28__exception_guard_exceptionsIT_EESE_, symObjAddr: 0x1CCCC, symBinAddr: 0x10001F504, symSize: 0x4C }
  - { offsetInCU: 0x57218, offset: 0x57218, size: 0x8, addend: 0x0, symName: __ZNSt3__1neB7v160006IPNS_6vectorINS_5arrayIfLm2EEENS_9allocatorIS3_EEEES7_EEbRKNS_16reverse_iteratorIT_EERKNS8_IT0_EE, symObjAddr: 0x1CD5C, symBinAddr: 0x10001F594, symSize: 0x48 }
  - { offsetInCU: 0x57264, offset: 0x57264, size: 0x8, addend: 0x0, symName: __ZNSt3__112__to_addressB7v160006INS_16reverse_iteratorIPNS_6vectorINS_5arrayIfLm2EEENS_9allocatorIS4_EEEEEEvEENS_5decayIDTclsr19__to_address_helperIT_EE6__callclsr3stdE7declvalIRKSB_EEEEE4typeESD_, symObjAddr: 0x1CDD8, symBinAddr: 0x10001F610, symSize: 0x24 }
  - { offsetInCU: 0x5729B, offset: 0x5729B, size: 0x8, addend: 0x0, symName: __ZNSt3__115__debug_db_swapB7v160006INS_6vectorINS_5arrayIfLm2EEENS_9allocatorIS3_EEEEEEvPT_S8_, symObjAddr: 0x1D068, symBinAddr: 0x10001F8A0, symSize: 0x14 }
  - { offsetInCU: 0x57304, offset: 0x57304, size: 0x8, addend: 0x0, symName: __ZNSt3__119__allocator_destroyB7v160006INS_9allocatorINS_6vectorINS_5arrayIfLm2EEENS1_IS4_EEEEEENS_16reverse_iteratorINS8_IPS6_EEEESB_EEvRT_T0_T1_, symObjAddr: 0x1D1DC, symBinAddr: 0x10001FA14, symSize: 0x70 }
  - { offsetInCU: 0x57369, offset: 0x57369, size: 0x8, addend: 0x0, symName: __ZNSt3__1neB7v160006INS_16reverse_iteratorIPNS_6vectorINS_5arrayIfLm2EEENS_9allocatorIS4_EEEEEES9_EEbRKNS1_IT_EERKNS1_IT0_EE, symObjAddr: 0x1D288, symBinAddr: 0x10001FAC0, symSize: 0x60 }
  - { offsetInCU: 0x573B5, offset: 0x573B5, size: 0x8, addend: 0x0, symName: __ZNSt3__112__to_addressB7v160006INS_16reverse_iteratorINS1_IPNS_6vectorINS_5arrayIfLm2EEENS_9allocatorIS4_EEEEEEEEvEENS_5decayIDTclsr19__to_address_helperIT_EE6__callclsr3stdE7declvalIRKSC_EEEEE4typeESE_, symObjAddr: 0x1D314, symBinAddr: 0x10001FB4C, symSize: 0x24 }
  - { offsetInCU: 0x57416, offset: 0x57416, size: 0x8, addend: 0x0, symName: __ZNSt3__119__debug_db_insert_cB7v160006INS_6vectorIPN6mapbox6detail6EarcutIjE4NodeENS_9allocatorIS7_EEEEEEvPT_, symObjAddr: 0x1DCFC, symBinAddr: 0x100020534, symSize: 0x10 }
  - { offsetInCU: 0x57447, offset: 0x57447, size: 0x8, addend: 0x0, symName: __ZNSt3__13minB7v160006IdEERKT_S3_S3_, symObjAddr: 0x1E51C, symBinAddr: 0x100020D54, symSize: 0x2C }
  - { offsetInCU: 0x5748A, offset: 0x5748A, size: 0x8, addend: 0x0, symName: __ZNSt3__13maxB7v160006IdEERKT_S3_S3_, symObjAddr: 0x1E548, symBinAddr: 0x100020D80, symSize: 0x2C }
  - { offsetInCU: 0x574CD, offset: 0x574CD, size: 0x8, addend: 0x0, symName: __ZNSt3__1neB7v160006IPPN6mapbox6detail6EarcutIjE4NodeEEEbRKNS_11__wrap_iterIT_EESC_, symObjAddr: 0x1E98C, symBinAddr: 0x1000211C4, symSize: 0x34 }
  - { offsetInCU: 0x57625, offset: 0x57625, size: 0x8, addend: 0x0, symName: __ZNSt3__1eqB7v160006IPPN6mapbox6detail6EarcutIjE4NodeEEEbRKNS_11__wrap_iterIT_EESC_, symObjAddr: 0x1EB14, symBinAddr: 0x10002134C, symSize: 0x48 }
  - { offsetInCU: 0x57669, offset: 0x57669, size: 0x8, addend: 0x0, symName: __ZNSt3__125__debug_db_invalidate_allB7v160006INS_6vectorIPN6mapbox6detail6EarcutIjE4NodeENS_9allocatorIS7_EEEEEEvPT_, symObjAddr: 0x1ECBC, symBinAddr: 0x1000214F4, symSize: 0x10 }
  - { offsetInCU: 0x5769B, offset: 0x5769B, size: 0x8, addend: 0x0, symName: __ZNSt3__112__to_addressB7v160006IPN6mapbox6detail6EarcutIjE4NodeEEEPT_S8_, symObjAddr: 0x1EDAC, symBinAddr: 0x1000215E4, symSize: 0x14 }
  - { offsetInCU: 0x57724, offset: 0x57724, size: 0x8, addend: 0x0, symName: __ZNSt3__13getB7v160006ILm0EfLm2EEERKT0_RKNS_5arrayIS1_XT1_EEE, symObjAddr: 0x1F190, symBinAddr: 0x1000219C8, symSize: 0x14 }
  - { offsetInCU: 0x5776F, offset: 0x5776F, size: 0x8, addend: 0x0, symName: __ZNSt3__13getB7v160006ILm1EfLm2EEERKT0_RKNS_5arrayIS1_XT1_EEE, symObjAddr: 0x1F1A4, symBinAddr: 0x1000219DC, symSize: 0x18 }
  - { offsetInCU: 0x577BA, offset: 0x577BA, size: 0x8, addend: 0x0, symName: __ZNSt3__119__allocate_at_leastB7v160006INS_9allocatorIPN6mapbox6detail6EarcutIjE4NodeEEEEENS_19__allocation_resultINS_16allocator_traitsIT_E7pointerEEERSB_m, symObjAddr: 0x1FB60, symBinAddr: 0x100022398, symSize: 0x40 }
  - { offsetInCU: 0x577FD, offset: 0x577FD, size: 0x8, addend: 0x0, symName: __ZNSt3__142__uninitialized_allocator_move_if_noexceptB7v160006INS_9allocatorIPN6mapbox6detail6EarcutIjE4NodeEEENS_16reverse_iteratorIPS7_EESB_S7_vEET1_RT_T0_SF_SC_, symObjAddr: 0x1FDCC, symBinAddr: 0x100022604, symSize: 0x78 }
  - { offsetInCU: 0x5787C, offset: 0x5787C, size: 0x8, addend: 0x0, symName: __ZNSt3__14swapB7v160006IPPN6mapbox6detail6EarcutIjE4NodeEEENS_9enable_ifIXaasr21is_move_constructibleIT_EE5valuesr18is_move_assignableIS9_EE5valueEvE4typeERS9_SC_, symObjAddr: 0x1FE90, symBinAddr: 0x1000226C8, symSize: 0x3C }
  - { offsetInCU: 0x578CD, offset: 0x578CD, size: 0x8, addend: 0x0, symName: __ZNSt3__14moveB7v160006INS_16reverse_iteratorIPPN6mapbox6detail6EarcutIjE4NodeEEES9_EET0_T_SB_SA_, symObjAddr: 0x1FF78, symBinAddr: 0x1000227B0, symSize: 0x78 }
  - { offsetInCU: 0x57927, offset: 0x57927, size: 0x8, addend: 0x0, symName: __ZNSt3__16__moveB7v160006INS_17_ClassicAlgPolicyENS_16reverse_iteratorIPPN6mapbox6detail6EarcutIjE4NodeEEESA_SA_EENS_4pairIT0_T2_EESC_T1_SD_, symObjAddr: 0x1FFF0, symBinAddr: 0x100022828, symSize: 0x64 }
  - { offsetInCU: 0x57993, offset: 0x57993, size: 0x8, addend: 0x0, symName: __ZNSt3__123__dispatch_copy_or_moveB7v160006INS_17_ClassicAlgPolicyENS_11__move_loopIS1_EENS_14__move_trivialENS_16reverse_iteratorIPPN6mapbox6detail6EarcutIjE4NodeEEESD_SD_EENS_4pairIT2_T4_EESF_T3_SG_, symObjAddr: 0x20054, symBinAddr: 0x10002288C, symSize: 0x64 }
  - { offsetInCU: 0x57A11, offset: 0x57A11, size: 0x8, addend: 0x0, symName: __ZNSt3__121__unwrap_and_dispatchB7v160006INS_10__overloadINS_11__move_loopINS_17_ClassicAlgPolicyEEENS_14__move_trivialEEENS_16reverse_iteratorIPPN6mapbox6detail6EarcutIjE4NodeEEESF_SF_Li0EEENS_4pairIT0_T2_EESH_T1_SI_, symObjAddr: 0x200B8, symBinAddr: 0x1000228F0, symSize: 0x12C }
  - { offsetInCU: 0x57AA1, offset: 0x57AA1, size: 0x8, addend: 0x0, symName: __ZNSt3__114__unwrap_rangeB7v160006INS_16reverse_iteratorIPPN6mapbox6detail6EarcutIjE4NodeEEES9_EENS_4pairIT0_SB_EET_SD_, symObjAddr: 0x201E4, symBinAddr: 0x100022A1C, symSize: 0x84 }
  - { offsetInCU: 0x57BC1, offset: 0x57BC1, size: 0x8, addend: 0x0, symName: __ZNSt3__113__unwrap_iterB7v160006INS_16reverse_iteratorIPPN6mapbox6detail6EarcutIjE4NodeEEENS_18__unwrap_iter_implIS9_Lb0EEELi0EEEDTclsrT0_8__unwrapclsr3stdE7declvalIT_EEEESD_, symObjAddr: 0x20308, symBinAddr: 0x100022B40, symSize: 0x44 }
  - { offsetInCU: 0x57C05, offset: 0x57C05, size: 0x8, addend: 0x0, symName: __ZNSt3__19make_pairB7v160006INS_16reverse_iteratorIPPN6mapbox6detail6EarcutIjE4NodeEEES9_EENS_4pairINS_18__unwrap_ref_decayIT_E4typeENSB_IT0_E4typeEEEOSC_OSF_, symObjAddr: 0x2034C, symBinAddr: 0x100022B84, symSize: 0x38 }
  - { offsetInCU: 0x57C54, offset: 0x57C54, size: 0x8, addend: 0x0, symName: __ZNSt3__114__rewrap_rangeB7v160006INS_16reverse_iteratorIPPN6mapbox6detail6EarcutIjE4NodeEEES9_EET_SA_T0_, symObjAddr: 0x20384, symBinAddr: 0x100022BBC, symSize: 0x5C }
  - { offsetInCU: 0x57CA0, offset: 0x57CA0, size: 0x8, addend: 0x0, symName: __ZNSt3__113__rewrap_iterB7v160006INS_16reverse_iteratorIPPN6mapbox6detail6EarcutIjE4NodeEEES9_NS_18__unwrap_iter_implIS9_Lb0EEEEET_SC_T0_, symObjAddr: 0x203E0, symBinAddr: 0x100022C18, symSize: 0x74 }
  - { offsetInCU: 0x57CF5, offset: 0x57CF5, size: 0x8, addend: 0x0, symName: __ZNSt3__1neB7v160006IPPN6mapbox6detail6EarcutIjE4NodeES7_EEbRKNS_16reverse_iteratorIT_EERKNS8_IT0_EE, symObjAddr: 0x20454, symBinAddr: 0x100022C8C, symSize: 0x48 }
  - { offsetInCU: 0x57DAD, offset: 0x57DAD, size: 0x8, addend: 0x0, symName: __ZNSt3__14sortB7v160006INS_11__wrap_iterIPPN6mapbox6detail6EarcutIjE4NodeEEEZNS5_14eliminateHolesINS_6vectorINSB_INS_5arrayIfLm2EEENS_9allocatorISD_EEEENSE_ISG_EEEEEES7_RKT_S7_EUlPKS6_SN_E_EEvSJ_SJ_T0_, symObjAddr: 0x20A6C, symBinAddr: 0x1000232A4, symSize: 0x40 }
  - { offsetInCU: 0x57E07, offset: 0x57E07, size: 0x8, addend: 0x0, symName: __ZNSt3__111__sort_implB7v160006INS_17_ClassicAlgPolicyENS_11__wrap_iterIPPN6mapbox6detail6EarcutIjE4NodeEEEZNS6_14eliminateHolesINS_6vectorINSC_INS_5arrayIfLm2EEENS_9allocatorISE_EEEENSF_ISH_EEEEEES8_RKT_S8_EUlPKS7_SO_E_EEvT0_SQ_RT1_, symObjAddr: 0x20EF0, symBinAddr: 0x100023728, symSize: 0x84 }
  - { offsetInCU: 0x57EAF, offset: 0x57EAF, size: 0x8, addend: 0x0, symName: __ZNSt3__123__debug_randomize_rangeB7v160006INS_17_ClassicAlgPolicyENS_11__wrap_iterIPPN6mapbox6detail6EarcutIjE4NodeEEESA_EEvT0_T1_, symObjAddr: 0x20F74, symBinAddr: 0x1000237AC, symSize: 0x14 }
  - { offsetInCU: 0x57F00, offset: 0x57F00, size: 0x8, addend: 0x0, symName: __ZNSt3__16__sortIRZN6mapbox6detail6EarcutIjE14eliminateHolesINS_6vectorINS6_INS_5arrayIfLm2EEENS_9allocatorIS8_EEEENS9_ISB_EEEEEEPNS4_4NodeERKT_SF_EUlPKSE_SK_E_PSF_EEvT0_SO_SG_, symObjAddr: 0x20F88, symBinAddr: 0x1000237C0, symSize: 0x68 }
  - { offsetInCU: 0x57F90, offset: 0x57F90, size: 0x8, addend: 0x0, symName: __ZNSt3__113__unwrap_iterB7v160006INS_11__wrap_iterIPPN6mapbox6detail6EarcutIjE4NodeEEENS_18__unwrap_iter_implIS9_Lb1EEELi0EEEDTclsrT0_8__unwrapclsr3stdE7declvalIT_EEEESD_, symObjAddr: 0x20FF0, symBinAddr: 0x100023828, symSize: 0x2C }
  - { offsetInCU: 0x57FD4, offset: 0x57FD4, size: 0x8, addend: 0x0, symName: __ZNSt3__17__log2iB7v160006IlEET_S1_, symObjAddr: 0x2101C, symBinAddr: 0x100023854, symSize: 0x54 }
  - { offsetInCU: 0x5803F, offset: 0x5803F, size: 0x8, addend: 0x0, symName: __ZNSt3__112__libcpp_clzB7v160006Em, symObjAddr: 0x217A4, symBinAddr: 0x100023FDC, symSize: 0x1C }
  - { offsetInCU: 0x5806B, offset: 0x5806B, size: 0x8, addend: 0x0, symName: __ZNSt3__124__sort3_maybe_branchlessB7v160006INS_17_ClassicAlgPolicyERZN6mapbox6detail6EarcutIjE14eliminateHolesINS_6vectorINS7_INS_5arrayIfLm2EEENS_9allocatorIS9_EEEENSA_ISC_EEEEEEPNS5_4NodeERKT_SG_EUlPKSF_SL_E_PSG_EENS_9enable_ifIXntsr21__use_branchless_sortIT0_T1_EE5valueEvE4typeESR_SR_SR_SQ_, symObjAddr: 0x21828, symBinAddr: 0x100024060, symSize: 0x3C }
  - { offsetInCU: 0x580DC, offset: 0x580DC, size: 0x8, addend: 0x0, symName: __ZNSt3__124__sort4_maybe_branchlessB7v160006INS_17_ClassicAlgPolicyERZN6mapbox6detail6EarcutIjE14eliminateHolesINS_6vectorINS7_INS_5arrayIfLm2EEENS_9allocatorIS9_EEEENSA_ISC_EEEEEEPNS5_4NodeERKT_SG_EUlPKSF_SL_E_PSG_EENS_9enable_ifIXntsr21__use_branchless_sortIT0_T1_EE5valueEvE4typeESR_SR_SR_SR_SQ_, symObjAddr: 0x21864, symBinAddr: 0x10002409C, symSize: 0x44 }
  - { offsetInCU: 0x58161, offset: 0x58161, size: 0x8, addend: 0x0, symName: __ZNSt3__124__sort5_maybe_branchlessB7v160006INS_17_ClassicAlgPolicyERZN6mapbox6detail6EarcutIjE14eliminateHolesINS_6vectorINS7_INS_5arrayIfLm2EEENS_9allocatorIS9_EEEENSA_ISC_EEEEEEPNS5_4NodeERKT_SG_EUlPKSF_SL_E_PSG_EENS_9enable_ifIXntsr21__use_branchless_sortIT0_T1_EE5valueEvE4typeESR_SR_SR_SR_SR_SQ_, symObjAddr: 0x218A8, symBinAddr: 0x1000240E0, symSize: 0x4C }
  - { offsetInCU: 0x581F5, offset: 0x581F5, size: 0x8, addend: 0x0, symName: __ZNSt3__114__partial_sortB7v160006INS_17_ClassicAlgPolicyERZN6mapbox6detail6EarcutIjE14eliminateHolesINS_6vectorINS7_INS_5arrayIfLm2EEENS_9allocatorIS9_EEEENSA_ISC_EEEEEEPNS5_4NodeERKT_SG_EUlPKSF_SL_E_PSG_SO_EET1_SP_SP_T2_RT0_, symObjAddr: 0x21A44, symBinAddr: 0x10002427C, symSize: 0x94 }
  - { offsetInCU: 0x5827D, offset: 0x5827D, size: 0x8, addend: 0x0, symName: __ZNSt3__119__sort5_wrap_policyB7v160006INS_17_ClassicAlgPolicyERZN6mapbox6detail6EarcutIjE14eliminateHolesINS_6vectorINS7_INS_5arrayIfLm2EEENS_9allocatorIS9_EEEENSA_ISC_EEEEEEPNS5_4NodeERKT_SG_EUlPKSF_SL_E_PSG_EEjT1_SP_SP_SP_SP_T0_, symObjAddr: 0x21AD8, symBinAddr: 0x100024310, symSize: 0x54 }
  - { offsetInCU: 0x58323, offset: 0x58323, size: 0x8, addend: 0x0, symName: __ZNSt3__17__sort3B7v160006INS_17_ClassicAlgPolicyERZN6mapbox6detail6EarcutIjE14eliminateHolesINS_6vectorINS7_INS_5arrayIfLm2EEENS_9allocatorIS9_EEEENSA_ISC_EEEEEEPNS5_4NodeERKT_SG_EUlPKSF_SL_E_PSG_EEjT1_SP_SP_T0_, symObjAddr: 0x21B2C, symBinAddr: 0x100024364, symSize: 0x16C }
  - { offsetInCU: 0x583A2, offset: 0x583A2, size: 0x8, addend: 0x0, symName: __ZNSt3__19iter_swapB7v160006IPPN6mapbox6detail6EarcutIjE4NodeES7_EEvT_T0_, symObjAddr: 0x21FD4, symBinAddr: 0x10002480C, symSize: 0x2C }
  - { offsetInCU: 0x583EB, offset: 0x583EB, size: 0x8, addend: 0x0, symName: __ZNSt3__14swapB7v160006IPN6mapbox6detail6EarcutIjE4NodeEEENS_9enable_ifIXaasr21is_move_constructibleIT_EE5valuesr18is_move_assignableIS8_EE5valueEvE4typeERS8_SB_, symObjAddr: 0x22000, symBinAddr: 0x100024838, symSize: 0x3C }
  - { offsetInCU: 0x5843C, offset: 0x5843C, size: 0x8, addend: 0x0, symName: __ZNSt3__17__sort4B7v160006INS_17_ClassicAlgPolicyERZN6mapbox6detail6EarcutIjE14eliminateHolesINS_6vectorINS7_INS_5arrayIfLm2EEENS_9allocatorIS9_EEEENSA_ISC_EEEEEEPNS5_4NodeERKT_SG_EUlPKSF_SL_E_PSG_EEjT1_SP_SP_SP_T0_, symObjAddr: 0x2203C, symBinAddr: 0x100024874, symSize: 0xFC }
  - { offsetInCU: 0x584CA, offset: 0x584CA, size: 0x8, addend: 0x0, symName: __ZNSt3__123__debug_randomize_rangeB7v160006INS_17_ClassicAlgPolicyEPPN6mapbox6detail6EarcutIjE4NodeES8_EEvT0_T1_, symObjAddr: 0x2217C, symBinAddr: 0x1000249B4, symSize: 0x14 }
  - { offsetInCU: 0x5851B, offset: 0x5851B, size: 0x8, addend: 0x0, symName: __ZNSt3__119__partial_sort_implB7v160006INS_17_ClassicAlgPolicyERZN6mapbox6detail6EarcutIjE14eliminateHolesINS_6vectorINS7_INS_5arrayIfLm2EEENS_9allocatorIS9_EEEENSA_ISC_EEEEEEPNS5_4NodeERKT_SG_EUlPKSF_SL_E_PSG_SO_EET1_SP_SP_T2_OT0_, symObjAddr: 0x22190, symBinAddr: 0x1000249C8, symSize: 0x118 }
  - { offsetInCU: 0x585B1, offset: 0x585B1, size: 0x8, addend: 0x0, symName: __ZNSt3__111__make_heapB7v160006INS_17_ClassicAlgPolicyERZN6mapbox6detail6EarcutIjE14eliminateHolesINS_6vectorINS7_INS_5arrayIfLm2EEENS_9allocatorIS9_EEEENSA_ISC_EEEEEEPNS5_4NodeERKT_SG_EUlPKSF_SL_E_PSG_EEvT1_SP_OT0_, symObjAddr: 0x222A8, symBinAddr: 0x100024AE0, symSize: 0xB8 }
  - { offsetInCU: 0x58653, offset: 0x58653, size: 0x8, addend: 0x0, symName: __ZNSt3__111__sort_heapB7v160006INS_17_ClassicAlgPolicyERZN6mapbox6detail6EarcutIjE14eliminateHolesINS_6vectorINS7_INS_5arrayIfLm2EEENS_9allocatorIS9_EEEENSA_ISC_EEEEEEPNS5_4NodeERKT_SG_EUlPKSF_SL_E_PSG_EEvT1_SP_OT0_, symObjAddr: 0x22580, symBinAddr: 0x100024DB8, symSize: 0x90 }
  - { offsetInCU: 0x586E7, offset: 0x586E7, size: 0x8, addend: 0x0, symName: __ZNSt3__110__pop_heapB7v160006INS_17_ClassicAlgPolicyEZN6mapbox6detail6EarcutIjE14eliminateHolesINS_6vectorINS7_INS_5arrayIfLm2EEENS_9allocatorIS9_EEEENSA_ISC_EEEEEEPNS5_4NodeERKT_SG_EUlPKSF_SL_E_PSG_EEvT1_SO_RT0_NS_15iterator_traitsISO_E15difference_typeE, symObjAddr: 0x22610, symBinAddr: 0x100024E48, symSize: 0xF4 }
  - { offsetInCU: 0x58797, offset: 0x58797, size: 0x8, addend: 0x0, symName: __ZNSt3__19__sift_upB7v160006INS_17_ClassicAlgPolicyERZN6mapbox6detail6EarcutIjE14eliminateHolesINS_6vectorINS7_INS_5arrayIfLm2EEENS_9allocatorIS9_EEEENSA_ISC_EEEEEEPNS5_4NodeERKT_SG_EUlPKSF_SL_E_PSG_EEvT1_SP_OT0_NS_15iterator_traitsISP_E15difference_typeE, symObjAddr: 0x22808, symBinAddr: 0x100025040, symSize: 0x128 }
  - { offsetInCU: 0x58847, offset: 0x58847, size: 0x8, addend: 0x0, symName: __ZNSt3__17__sort5IRZN6mapbox6detail6EarcutIjE14eliminateHolesINS_6vectorINS6_INS_5arrayIfLm2EEENS_9allocatorIS8_EEEENS9_ISB_EEEEEEPNS4_4NodeERKT_SF_EUlPKSE_SK_E_PSF_EEjT0_SO_SO_SO_SO_SG_, symObjAddr: 0x22930, symBinAddr: 0x100025168, symSize: 0x14C }
  - { offsetInCU: 0x58945, offset: 0x58945, size: 0x8, addend: 0x0, symName: __ZNSt3__112__to_addressB7v160006INS_11__wrap_iterIPPN6mapbox6detail6EarcutIjE4NodeEEEvEENS_5decayIDTclsr19__to_address_helperIT_EE6__callclsr3stdE7declvalIRKSB_EEEEE4typeESD_, symObjAddr: 0x22AA4, symBinAddr: 0x1000252DC, symSize: 0x24 }
  - { offsetInCU: 0x58E17, offset: 0x58E17, size: 0x8, addend: 0x0, symName: __ZNSt3__118__debug_db_erase_cB7v160006INS_6vectorIPN6mapbox6detail6EarcutIjE4NodeENS_9allocatorIS7_EEEEEEvPT_, symObjAddr: 0x236C8, symBinAddr: 0x100025F00, symSize: 0x10 }
  - { offsetInCU: 0x58E48, offset: 0x58E48, size: 0x8, addend: 0x0, symName: __ZNSt3__13minB7v160006IdNS_6__lessIddEEEERKT_S5_S5_T0_, symObjAddr: 0x236D8, symBinAddr: 0x100025F10, symSize: 0x54 }
  - { offsetInCU: 0x58EDD, offset: 0x58EDD, size: 0x8, addend: 0x0, symName: __ZNSt3__13maxB7v160006IdNS_6__lessIddEEEERKT_S5_S5_T0_, symObjAddr: 0x23760, symBinAddr: 0x100025F98, symSize: 0x54 }
  - { offsetInCU: 0x58F38, offset: 0x58F38, size: 0x8, addend: 0x0, symName: __ZNSt3__115__debug_db_swapB7v160006INS_6vectorIjNS_9allocatorIjEEEEEEvPT_S6_, symObjAddr: 0x24F80, symBinAddr: 0x1000277B8, symSize: 0x14 }
  - { offsetInCU: 0x58F78, offset: 0x58F78, size: 0x8, addend: 0x0, symName: __ZNSt3__118__debug_db_erase_cB7v160006INS_6vectorIjNS_9allocatorIjEEEEEEvPT_, symObjAddr: 0x251C8, symBinAddr: 0x100027A00, symSize: 0x10 }
  - { offsetInCU: 0x58FAA, offset: 0x58FAA, size: 0x8, addend: 0x0, symName: __ZNSt3__118__debug_db_erase_cB7v160006INS_6vectorINS1_INS_5arrayIfLm2EEENS_9allocatorIS3_EEEENS4_IS6_EEEEEEvPT_, symObjAddr: 0x25350, symBinAddr: 0x100027B88, symSize: 0x10 }
  - { offsetInCU: 0x58FDB, offset: 0x58FDB, size: 0x8, addend: 0x0, symName: __ZNSt3__18distanceB7v160006IPN7tinyobj5tag_tEEENS_15iterator_traitsIT_E15difference_typeES5_S5_, symObjAddr: 0x255D0, symBinAddr: 0x100027E08, symSize: 0x2C }
  - { offsetInCU: 0x5901E, offset: 0x5901E, size: 0x8, addend: 0x0, symName: __ZNSt3__14copyB7v160006IPN7tinyobj5tag_tES3_EET0_T_S5_S4_, symObjAddr: 0x256B4, symBinAddr: 0x100027EEC, symSize: 0x40 }
  - { offsetInCU: 0x59079, offset: 0x59079, size: 0x8, addend: 0x0, symName: __ZNSt3__125__debug_db_invalidate_allB7v160006INS_6vectorIN7tinyobj5tag_tENS_9allocatorIS3_EEEEEEvPT_, symObjAddr: 0x259D4, symBinAddr: 0x10002820C, symSize: 0x10 }
  - { offsetInCU: 0x590AB, offset: 0x590AB, size: 0x8, addend: 0x0, symName: __ZNSt3__110__distanceB7v160006IPN7tinyobj5tag_tEEENS_15iterator_traitsIT_E15difference_typeES5_S5_NS_26random_access_iterator_tagE, symObjAddr: 0x259E4, symBinAddr: 0x10002821C, symSize: 0x28 }
  - { offsetInCU: 0x590FA, offset: 0x590FA, size: 0x8, addend: 0x0, symName: __ZNSt3__19__advanceB7v160006IPN7tinyobj5tag_tEEEvRT_NS_15iterator_traitsIS4_E15difference_typeENS_26random_access_iterator_tagE, symObjAddr: 0x25A6C, symBinAddr: 0x1000282A4, symSize: 0x30 }
  - { offsetInCU: 0x59144, offset: 0x59144, size: 0x8, addend: 0x0, symName: __ZNSt3__16__copyB7v160006INS_17_ClassicAlgPolicyEPN7tinyobj5tag_tES4_S4_EENS_4pairIT0_T2_EES6_T1_S7_, symObjAddr: 0x25A9C, symBinAddr: 0x1000282D4, symSize: 0x44 }
  - { offsetInCU: 0x591B0, offset: 0x591B0, size: 0x8, addend: 0x0, symName: __ZNSt3__123__dispatch_copy_or_moveB7v160006INS_17_ClassicAlgPolicyENS_11__copy_loopIS1_EENS_14__copy_trivialEPN7tinyobj5tag_tES7_S7_EENS_4pairIT2_T4_EES9_T3_SA_, symObjAddr: 0x25AE0, symBinAddr: 0x100028318, symSize: 0x44 }
  - { offsetInCU: 0x5922E, offset: 0x5922E, size: 0x8, addend: 0x0, symName: __ZNSt3__121__unwrap_and_dispatchB7v160006INS_10__overloadINS_11__copy_loopINS_17_ClassicAlgPolicyEEENS_14__copy_trivialEEEPN7tinyobj5tag_tES9_S9_Li0EEENS_4pairIT0_T2_EESB_T1_SC_, symObjAddr: 0x25B24, symBinAddr: 0x10002835C, symSize: 0xB4 }
  - { offsetInCU: 0x592BC, offset: 0x592BC, size: 0x8, addend: 0x0, symName: __ZNSt3__114__unwrap_rangeB7v160006IPN7tinyobj5tag_tES3_EENS_4pairIT0_S5_EET_S7_, symObjAddr: 0x25BD8, symBinAddr: 0x100028410, symSize: 0x60 }
  - { offsetInCU: 0x594AC, offset: 0x594AC, size: 0x8, addend: 0x0, symName: __ZNSt3__113__unwrap_iterB7v160006IPN7tinyobj5tag_tENS_18__unwrap_iter_implIS3_Lb1EEELi0EEEDTclsrT0_8__unwrapclsr3stdE7declvalIT_EEEES7_, symObjAddr: 0x25CC0, symBinAddr: 0x1000284F8, symSize: 0x24 }
  - { offsetInCU: 0x594F0, offset: 0x594F0, size: 0x8, addend: 0x0, symName: __ZNSt3__19make_pairB7v160006IPN7tinyobj5tag_tES3_EENS_4pairINS_18__unwrap_ref_decayIT_E4typeENS5_IT0_E4typeEEEOS6_OS9_, symObjAddr: 0x25CE4, symBinAddr: 0x10002851C, symSize: 0x38 }
  - { offsetInCU: 0x5953F, offset: 0x5953F, size: 0x8, addend: 0x0, symName: __ZNSt3__114__rewrap_rangeB7v160006IPN7tinyobj5tag_tES3_EET_S4_T0_, symObjAddr: 0x25D1C, symBinAddr: 0x100028554, symSize: 0x2C }
  - { offsetInCU: 0x5958B, offset: 0x5958B, size: 0x8, addend: 0x0, symName: __ZNSt3__113__rewrap_iterB7v160006IPN7tinyobj5tag_tES3_NS_18__unwrap_iter_implIS3_Lb1EEEEET_S6_T0_, symObjAddr: 0x25D48, symBinAddr: 0x100028580, symSize: 0x3C }
  - { offsetInCU: 0x595E0, offset: 0x595E0, size: 0x8, addend: 0x0, symName: __ZNSt3__18distanceB7v160006IPiEENS_15iterator_traitsIT_E15difference_typeES3_S3_, symObjAddr: 0x260E8, symBinAddr: 0x100028920, symSize: 0x2C }
  - { offsetInCU: 0x59623, offset: 0x59623, size: 0x8, addend: 0x0, symName: __ZNSt3__14copyB7v160006IPiS1_EET0_T_S3_S2_, symObjAddr: 0x26164, symBinAddr: 0x10002899C, symSize: 0x40 }
  - { offsetInCU: 0x5967E, offset: 0x5967E, size: 0x8, addend: 0x0, symName: __ZNSt3__110__distanceB7v160006IPiEENS_15iterator_traitsIT_E15difference_typeES3_S3_NS_26random_access_iterator_tagE, symObjAddr: 0x263C8, symBinAddr: 0x100028C00, symSize: 0x28 }
  - { offsetInCU: 0x596CD, offset: 0x596CD, size: 0x8, addend: 0x0, symName: __ZNSt3__19__advanceB7v160006IPiEEvRT_NS_15iterator_traitsIS2_E15difference_typeENS_26random_access_iterator_tagE, symObjAddr: 0x263F0, symBinAddr: 0x100028C28, symSize: 0x28 }
  - { offsetInCU: 0x59717, offset: 0x59717, size: 0x8, addend: 0x0, symName: __ZNSt3__16__copyB7v160006INS_17_ClassicAlgPolicyEPiS2_S2_EENS_4pairIT0_T2_EES4_T1_S5_, symObjAddr: 0x26418, symBinAddr: 0x100028C50, symSize: 0x44 }
  - { offsetInCU: 0x59783, offset: 0x59783, size: 0x8, addend: 0x0, symName: __ZNSt3__123__dispatch_copy_or_moveB7v160006INS_17_ClassicAlgPolicyENS_11__copy_loopIS1_EENS_14__copy_trivialEPiS5_S5_EENS_4pairIT2_T4_EES7_T3_S8_, symObjAddr: 0x2645C, symBinAddr: 0x100028C94, symSize: 0x44 }
  - { offsetInCU: 0x59801, offset: 0x59801, size: 0x8, addend: 0x0, symName: __ZNSt3__121__unwrap_and_dispatchB7v160006INS_10__overloadINS_11__copy_loopINS_17_ClassicAlgPolicyEEENS_14__copy_trivialEEEPiS7_S7_Li0EEENS_4pairIT0_T2_EES9_T1_SA_, symObjAddr: 0x264A0, symBinAddr: 0x100028CD8, symSize: 0xB4 }
  - { offsetInCU: 0x5988F, offset: 0x5988F, size: 0x8, addend: 0x0, symName: __ZNSt3__114__unwrap_rangeB7v160006IPiS1_EENS_4pairIT0_S3_EET_S5_, symObjAddr: 0x26554, symBinAddr: 0x100028D8C, symSize: 0x60 }
  - { offsetInCU: 0x599DE, offset: 0x599DE, size: 0x8, addend: 0x0, symName: __ZNSt3__113__unwrap_iterB7v160006IPiNS_18__unwrap_iter_implIS1_Lb1EEELi0EEEDTclsrT0_8__unwrapclsr3stdE7declvalIT_EEEES5_, symObjAddr: 0x265FC, symBinAddr: 0x100028E34, symSize: 0x24 }
  - { offsetInCU: 0x59A22, offset: 0x59A22, size: 0x8, addend: 0x0, symName: __ZNSt3__19make_pairB7v160006IPiS1_EENS_4pairINS_18__unwrap_ref_decayIT_E4typeENS3_IT0_E4typeEEEOS4_OS7_, symObjAddr: 0x26620, symBinAddr: 0x100028E58, symSize: 0x38 }
  - { offsetInCU: 0x59A71, offset: 0x59A71, size: 0x8, addend: 0x0, symName: __ZNSt3__114__rewrap_rangeB7v160006IPiS1_EET_S2_T0_, symObjAddr: 0x26658, symBinAddr: 0x100028E90, symSize: 0x2C }
  - { offsetInCU: 0x59ABD, offset: 0x59ABD, size: 0x8, addend: 0x0, symName: __ZNSt3__113__rewrap_iterB7v160006IPiS1_NS_18__unwrap_iter_implIS1_Lb1EEEEET_S4_T0_, symObjAddr: 0x26684, symBinAddr: 0x100028EBC, symSize: 0x3C }
  - { offsetInCU: 0x59B12, offset: 0x59B12, size: 0x8, addend: 0x0, symName: __ZNSt3__119__copy_trivial_implB7v160006IiiEENS_4pairIPT_PT0_EES3_S3_S5_, symObjAddr: 0x266C0, symBinAddr: 0x100028EF8, symSize: 0x84 }
  - { offsetInCU: 0x59B7A, offset: 0x59B7A, size: 0x8, addend: 0x0, symName: __ZNSt3__19make_pairB7v160006IRPiS1_EENS_4pairINS_18__unwrap_ref_decayIT_E4typeENS4_IT0_E4typeEEEOS5_OS8_, symObjAddr: 0x26744, symBinAddr: 0x100028F7C, symSize: 0x38 }
  - { offsetInCU: 0x59C1C, offset: 0x59C1C, size: 0x8, addend: 0x0, symName: __ZNSt3__130__uninitialized_allocator_copyB7v160006INS_9allocatorIiEEPiS3_S3_EET2_RT_T0_T1_S4_, symObjAddr: 0x268D0, symBinAddr: 0x100029108, symSize: 0xF4 }
  - { offsetInCU: 0x59CBA, offset: 0x59CBA, size: 0x8, addend: 0x0, symName: __ZNSt3__122__make_exception_guardB7v160006INS_29_AllocatorDestroyRangeReverseINS_9allocatorIiEEPiEEEENS_28__exception_guard_exceptionsIT_EES7_, symObjAddr: 0x269C4, symBinAddr: 0x1000291FC, symSize: 0x4C }
  - { offsetInCU: 0x59CF0, offset: 0x59CF0, size: 0x8, addend: 0x0, symName: __ZNSt3__119__allocator_destroyB7v160006INS_9allocatorIiEENS_16reverse_iteratorIPiEES5_EEvRT_T0_T1_, symObjAddr: 0x26C4C, symBinAddr: 0x100029484, symSize: 0x70 }
  - { offsetInCU: 0x59D53, offset: 0x59D53, size: 0x8, addend: 0x0, symName: __ZNSt3__112__to_addressB7v160006INS_16reverse_iteratorIPiEEvEENS_5decayIDTclsr19__to_address_helperIT_EE6__callclsr3stdE7declvalIRKS5_EEEEE4typeES7_, symObjAddr: 0x26CBC, symBinAddr: 0x1000294F4, symSize: 0x24 }
  - { offsetInCU: 0x59DB3, offset: 0x59DB3, size: 0x8, addend: 0x0, symName: __ZNSt3__18distanceB7v160006IPfEENS_15iterator_traitsIT_E15difference_typeES3_S3_, symObjAddr: 0x270C0, symBinAddr: 0x1000298F8, symSize: 0x2C }
  - { offsetInCU: 0x59DF6, offset: 0x59DF6, size: 0x8, addend: 0x0, symName: __ZNSt3__14copyB7v160006IPfS1_EET0_T_S3_S2_, symObjAddr: 0x2717C, symBinAddr: 0x1000299B4, symSize: 0x40 }
  - { offsetInCU: 0x59E51, offset: 0x59E51, size: 0x8, addend: 0x0, symName: __ZNSt3__125__debug_db_invalidate_allB7v160006INS_6vectorIfNS_9allocatorIfEEEEEEvPT_, symObjAddr: 0x27494, symBinAddr: 0x100029CCC, symSize: 0x10 }
  - { offsetInCU: 0x59E83, offset: 0x59E83, size: 0x8, addend: 0x0, symName: __ZNSt3__110__distanceB7v160006IPfEENS_15iterator_traitsIT_E15difference_typeES3_S3_NS_26random_access_iterator_tagE, symObjAddr: 0x274A4, symBinAddr: 0x100029CDC, symSize: 0x28 }
  - { offsetInCU: 0x59ED2, offset: 0x59ED2, size: 0x8, addend: 0x0, symName: __ZNSt3__19__advanceB7v160006IPfEEvRT_NS_15iterator_traitsIS2_E15difference_typeENS_26random_access_iterator_tagE, symObjAddr: 0x2752C, symBinAddr: 0x100029D64, symSize: 0x28 }
  - { offsetInCU: 0x59F1C, offset: 0x59F1C, size: 0x8, addend: 0x0, symName: __ZNSt3__16__copyB7v160006INS_17_ClassicAlgPolicyEPfS2_S2_EENS_4pairIT0_T2_EES4_T1_S5_, symObjAddr: 0x27554, symBinAddr: 0x100029D8C, symSize: 0x44 }
  - { offsetInCU: 0x59F88, offset: 0x59F88, size: 0x8, addend: 0x0, symName: __ZNSt3__123__dispatch_copy_or_moveB7v160006INS_17_ClassicAlgPolicyENS_11__copy_loopIS1_EENS_14__copy_trivialEPfS5_S5_EENS_4pairIT2_T4_EES7_T3_S8_, symObjAddr: 0x27598, symBinAddr: 0x100029DD0, symSize: 0x44 }
  - { offsetInCU: 0x5A006, offset: 0x5A006, size: 0x8, addend: 0x0, symName: __ZNSt3__121__unwrap_and_dispatchB7v160006INS_10__overloadINS_11__copy_loopINS_17_ClassicAlgPolicyEEENS_14__copy_trivialEEEPfS7_S7_Li0EEENS_4pairIT0_T2_EES9_T1_SA_, symObjAddr: 0x275DC, symBinAddr: 0x100029E14, symSize: 0xB4 }
  - { offsetInCU: 0x5A094, offset: 0x5A094, size: 0x8, addend: 0x0, symName: __ZNSt3__114__unwrap_rangeB7v160006IPfS1_EENS_4pairIT0_S3_EET_S5_, symObjAddr: 0x27690, symBinAddr: 0x100029EC8, symSize: 0x60 }
  - { offsetInCU: 0x5A1E3, offset: 0x5A1E3, size: 0x8, addend: 0x0, symName: __ZNSt3__113__unwrap_iterB7v160006IPfNS_18__unwrap_iter_implIS1_Lb1EEELi0EEEDTclsrT0_8__unwrapclsr3stdE7declvalIT_EEEES5_, symObjAddr: 0x27738, symBinAddr: 0x100029F70, symSize: 0x24 }
  - { offsetInCU: 0x5A227, offset: 0x5A227, size: 0x8, addend: 0x0, symName: __ZNSt3__19make_pairB7v160006IPfS1_EENS_4pairINS_18__unwrap_ref_decayIT_E4typeENS3_IT0_E4typeEEEOS4_OS7_, symObjAddr: 0x2775C, symBinAddr: 0x100029F94, symSize: 0x38 }
  - { offsetInCU: 0x5A276, offset: 0x5A276, size: 0x8, addend: 0x0, symName: __ZNSt3__114__rewrap_rangeB7v160006IPfS1_EET_S2_T0_, symObjAddr: 0x27794, symBinAddr: 0x100029FCC, symSize: 0x2C }
  - { offsetInCU: 0x5A2C2, offset: 0x5A2C2, size: 0x8, addend: 0x0, symName: __ZNSt3__113__rewrap_iterB7v160006IPfS1_NS_18__unwrap_iter_implIS1_Lb1EEEEET_S4_T0_, symObjAddr: 0x277C0, symBinAddr: 0x100029FF8, symSize: 0x3C }
  - { offsetInCU: 0x5A317, offset: 0x5A317, size: 0x8, addend: 0x0, symName: __ZNSt3__119__copy_trivial_implB7v160006IffEENS_4pairIPT_PT0_EES3_S3_S5_, symObjAddr: 0x277FC, symBinAddr: 0x10002A034, symSize: 0x84 }
  - { offsetInCU: 0x5A37F, offset: 0x5A37F, size: 0x8, addend: 0x0, symName: __ZNSt3__19make_pairB7v160006IRPfS1_EENS_4pairINS_18__unwrap_ref_decayIT_E4typeENS4_IT0_E4typeEEEOS5_OS8_, symObjAddr: 0x27880, symBinAddr: 0x10002A0B8, symSize: 0x38 }
  - { offsetInCU: 0x5A422, offset: 0x5A422, size: 0x8, addend: 0x0, symName: __ZNSt3__112__to_addressB7v160006IfEEPT_S2_, symObjAddr: 0x2794C, symBinAddr: 0x10002A184, symSize: 0x14 }
  - { offsetInCU: 0x5A457, offset: 0x5A457, size: 0x8, addend: 0x0, symName: __ZNSt3__130__uninitialized_allocator_copyB7v160006INS_9allocatorIfEEPfS3_S3_EET2_RT_T0_T1_S4_, symObjAddr: 0x27A5C, symBinAddr: 0x10002A294, symSize: 0xF4 }
  - { offsetInCU: 0x5A4F5, offset: 0x5A4F5, size: 0x8, addend: 0x0, symName: __ZNSt3__122__make_exception_guardB7v160006INS_29_AllocatorDestroyRangeReverseINS_9allocatorIfEEPfEEEENS_28__exception_guard_exceptionsIT_EES7_, symObjAddr: 0x27BE8, symBinAddr: 0x10002A420, symSize: 0x4C }
  - { offsetInCU: 0x5A52B, offset: 0x5A52B, size: 0x8, addend: 0x0, symName: __ZNSt3__119__allocator_destroyB7v160006INS_9allocatorIfEENS_16reverse_iteratorIPfEES5_EEvRT_T0_T1_, symObjAddr: 0x27E70, symBinAddr: 0x10002A6A8, symSize: 0x70 }
  - { offsetInCU: 0x5A58E, offset: 0x5A58E, size: 0x8, addend: 0x0, symName: __ZNSt3__1neB7v160006IPfS1_EEbRKNS_16reverse_iteratorIT_EERKNS2_IT0_EE, symObjAddr: 0x27F14, symBinAddr: 0x10002A74C, symSize: 0x48 }
  - { offsetInCU: 0x5A5DA, offset: 0x5A5DA, size: 0x8, addend: 0x0, symName: __ZNSt3__112__to_addressB7v160006INS_16reverse_iteratorIPfEEvEENS_5decayIDTclsr19__to_address_helperIT_EE6__callclsr3stdE7declvalIRKS5_EEEEE4typeES7_, symObjAddr: 0x27F88, symBinAddr: 0x10002A7C0, symSize: 0x24 }
  - { offsetInCU: 0x5A63A, offset: 0x5A63A, size: 0x8, addend: 0x0, symName: __ZNSt3__119__allocate_at_leastB7v160006INS_9allocatorIfEEEENS_19__allocation_resultINS_16allocator_traitsIT_E7pointerEEERS5_m, symObjAddr: 0x283E8, symBinAddr: 0x10002AC20, symSize: 0x40 }
  - { offsetInCU: 0x5A67D, offset: 0x5A67D, size: 0x8, addend: 0x0, symName: __ZNSt3__18distanceB7v160006IPNS_12basic_stringIcNS_11char_traitsIcEENS_9allocatorIcEEEEEENS_15iterator_traitsIT_E15difference_typeES9_S9_, symObjAddr: 0x28780, symBinAddr: 0x10002AFB8, symSize: 0x2C }
  - { offsetInCU: 0x5A6C0, offset: 0x5A6C0, size: 0x8, addend: 0x0, symName: __ZNSt3__14copyB7v160006IPNS_12basic_stringIcNS_11char_traitsIcEENS_9allocatorIcEEEES7_EET0_T_S9_S8_, symObjAddr: 0x2883C, symBinAddr: 0x10002B074, symSize: 0x40 }
  - { offsetInCU: 0x5A71B, offset: 0x5A71B, size: 0x8, addend: 0x0, symName: __ZNSt3__125__debug_db_invalidate_allB7v160006INS_6vectorINS_12basic_stringIcNS_11char_traitsIcEENS_9allocatorIcEEEENS5_IS7_EEEEEEvPT_, symObjAddr: 0x28B5C, symBinAddr: 0x10002B394, symSize: 0x10 }
  - { offsetInCU: 0x5A74D, offset: 0x5A74D, size: 0x8, addend: 0x0, symName: __ZNSt3__110__distanceB7v160006IPNS_12basic_stringIcNS_11char_traitsIcEENS_9allocatorIcEEEEEENS_15iterator_traitsIT_E15difference_typeES9_S9_NS_26random_access_iterator_tagE, symObjAddr: 0x28B6C, symBinAddr: 0x10002B3A4, symSize: 0x28 }
  - { offsetInCU: 0x5A79C, offset: 0x5A79C, size: 0x8, addend: 0x0, symName: __ZNSt3__19__advanceB7v160006IPNS_12basic_stringIcNS_11char_traitsIcEENS_9allocatorIcEEEEEEvRT_NS_15iterator_traitsIS8_E15difference_typeENS_26random_access_iterator_tagE, symObjAddr: 0x28BF4, symBinAddr: 0x10002B42C, symSize: 0x30 }
  - { offsetInCU: 0x5A7E6, offset: 0x5A7E6, size: 0x8, addend: 0x0, symName: __ZNSt3__16__copyB7v160006INS_17_ClassicAlgPolicyEPNS_12basic_stringIcNS_11char_traitsIcEENS_9allocatorIcEEEES8_S8_EENS_4pairIT0_T2_EESA_T1_SB_, symObjAddr: 0x28C24, symBinAddr: 0x10002B45C, symSize: 0x44 }
  - { offsetInCU: 0x5A852, offset: 0x5A852, size: 0x8, addend: 0x0, symName: __ZNSt3__123__dispatch_copy_or_moveB7v160006INS_17_ClassicAlgPolicyENS_11__copy_loopIS1_EENS_14__copy_trivialEPNS_12basic_stringIcNS_11char_traitsIcEENS_9allocatorIcEEEESB_SB_EENS_4pairIT2_T4_EESD_T3_SE_, symObjAddr: 0x28C68, symBinAddr: 0x10002B4A0, symSize: 0x44 }
  - { offsetInCU: 0x5A8D0, offset: 0x5A8D0, size: 0x8, addend: 0x0, symName: __ZNSt3__121__unwrap_and_dispatchB7v160006INS_10__overloadINS_11__copy_loopINS_17_ClassicAlgPolicyEEENS_14__copy_trivialEEEPNS_12basic_stringIcNS_11char_traitsIcEENS_9allocatorIcEEEESD_SD_Li0EEENS_4pairIT0_T2_EESF_T1_SG_, symObjAddr: 0x28CAC, symBinAddr: 0x10002B4E4, symSize: 0xB4 }
  - { offsetInCU: 0x5A95E, offset: 0x5A95E, size: 0x8, addend: 0x0, symName: __ZNSt3__114__unwrap_rangeB7v160006IPNS_12basic_stringIcNS_11char_traitsIcEENS_9allocatorIcEEEES7_EENS_4pairIT0_S9_EET_SB_, symObjAddr: 0x28D60, symBinAddr: 0x10002B598, symSize: 0x60 }
  - { offsetInCU: 0x5AA7E, offset: 0x5AA7E, size: 0x8, addend: 0x0, symName: __ZNSt3__113__unwrap_iterB7v160006IPNS_12basic_stringIcNS_11char_traitsIcEENS_9allocatorIcEEEENS_18__unwrap_iter_implIS7_Lb1EEELi0EEEDTclsrT0_8__unwrapclsr3stdE7declvalIT_EEEESB_, symObjAddr: 0x28E48, symBinAddr: 0x10002B680, symSize: 0x24 }
  - { offsetInCU: 0x5AAC2, offset: 0x5AAC2, size: 0x8, addend: 0x0, symName: __ZNSt3__19make_pairB7v160006IPNS_12basic_stringIcNS_11char_traitsIcEENS_9allocatorIcEEEES7_EENS_4pairINS_18__unwrap_ref_decayIT_E4typeENS9_IT0_E4typeEEEOSA_OSD_, symObjAddr: 0x28E6C, symBinAddr: 0x10002B6A4, symSize: 0x38 }
  - { offsetInCU: 0x5AB11, offset: 0x5AB11, size: 0x8, addend: 0x0, symName: __ZNSt3__114__rewrap_rangeB7v160006IPNS_12basic_stringIcNS_11char_traitsIcEENS_9allocatorIcEEEES7_EET_S8_T0_, symObjAddr: 0x28EA4, symBinAddr: 0x10002B6DC, symSize: 0x2C }
  - { offsetInCU: 0x5AB5D, offset: 0x5AB5D, size: 0x8, addend: 0x0, symName: __ZNSt3__113__rewrap_iterB7v160006IPNS_12basic_stringIcNS_11char_traitsIcEENS_9allocatorIcEEEES7_NS_18__unwrap_iter_implIS7_Lb1EEEEET_SA_T0_, symObjAddr: 0x28ED0, symBinAddr: 0x10002B708, symSize: 0x3C }
  - { offsetInCU: 0x5AC06, offset: 0x5AC06, size: 0x8, addend: 0x0, symName: __ZNSt3__112__to_addressB7v160006INS_12basic_stringIcNS_11char_traitsIcEENS_9allocatorIcEEEEEEPT_S8_, symObjAddr: 0x28F30, symBinAddr: 0x10002B768, symSize: 0x14 }
  - { offsetInCU: 0x5AC3B, offset: 0x5AC3B, size: 0x8, addend: 0x0, symName: __ZNSt3__130__uninitialized_allocator_copyB7v160006INS_9allocatorINS_12basic_stringIcNS_11char_traitsIcEENS1_IcEEEEEEPS6_S8_S8_EET2_RT_T0_T1_S9_, symObjAddr: 0x29048, symBinAddr: 0x10002B880, symSize: 0xF4 }
  - { offsetInCU: 0x5ACD9, offset: 0x5ACD9, size: 0x8, addend: 0x0, symName: __ZNSt3__122__make_exception_guardB7v160006INS_29_AllocatorDestroyRangeReverseINS_9allocatorINS_12basic_stringIcNS_11char_traitsIcEENS2_IcEEEEEEPS7_EEEENS_28__exception_guard_exceptionsIT_EESC_, symObjAddr: 0x291DC, symBinAddr: 0x10002BA14, symSize: 0x4C }
  - { offsetInCU: 0x5AD0F, offset: 0x5AD0F, size: 0x8, addend: 0x0, symName: __ZNSt3__119__allocator_destroyB7v160006INS_9allocatorINS_12basic_stringIcNS_11char_traitsIcEENS1_IcEEEEEENS_16reverse_iteratorIPS6_EESA_EEvRT_T0_T1_, symObjAddr: 0x2946C, symBinAddr: 0x10002BCA4, symSize: 0x70 }
  - { offsetInCU: 0x5AD72, offset: 0x5AD72, size: 0x8, addend: 0x0, symName: __ZNSt3__1neB7v160006IPNS_12basic_stringIcNS_11char_traitsIcEENS_9allocatorIcEEEES7_EEbRKNS_16reverse_iteratorIT_EERKNS8_IT0_EE, symObjAddr: 0x29510, symBinAddr: 0x10002BD48, symSize: 0x48 }
  - { offsetInCU: 0x5ADBE, offset: 0x5ADBE, size: 0x8, addend: 0x0, symName: __ZNSt3__112__to_addressB7v160006INS_16reverse_iteratorIPNS_12basic_stringIcNS_11char_traitsIcEENS_9allocatorIcEEEEEEvEENS_5decayIDTclsr19__to_address_helperIT_EE6__callclsr3stdE7declvalIRKSB_EEEEE4typeESD_, symObjAddr: 0x29584, symBinAddr: 0x10002BDBC, symSize: 0x24 }
  - { offsetInCU: 0x5AE1E, offset: 0x5AE1E, size: 0x8, addend: 0x0, symName: __ZNSt3__119__allocate_at_leastB7v160006INS_9allocatorINS_12basic_stringIcNS_11char_traitsIcEENS1_IcEEEEEEEENS_19__allocation_resultINS_16allocator_traitsIT_E7pointerEEERSA_m, symObjAddr: 0x29A18, symBinAddr: 0x10002C250, symSize: 0x40 }
  - { offsetInCU: 0x5AEB5, offset: 0x5AEB5, size: 0x8, addend: 0x0, symName: __ZNSt3__112__to_addressB7v160006IN7tinyobj5tag_tEEEPT_S4_, symObjAddr: 0x29C3C, symBinAddr: 0x10002C474, symSize: 0x14 }
  - { offsetInCU: 0x5AEEA, offset: 0x5AEEA, size: 0x8, addend: 0x0, symName: __ZNSt3__130__uninitialized_allocator_copyB7v160006INS_9allocatorIN7tinyobj5tag_tEEEPS3_S5_S5_EET2_RT_T0_T1_S6_, symObjAddr: 0x29D54, symBinAddr: 0x10002C58C, symSize: 0xF4 }
  - { offsetInCU: 0x5AF88, offset: 0x5AF88, size: 0x8, addend: 0x0, symName: __ZNSt3__122__make_exception_guardB7v160006INS_29_AllocatorDestroyRangeReverseINS_9allocatorIN7tinyobj5tag_tEEEPS4_EEEENS_28__exception_guard_exceptionsIT_EES9_, symObjAddr: 0x29EE8, symBinAddr: 0x10002C720, symSize: 0x4C }
  - { offsetInCU: 0x5AFBE, offset: 0x5AFBE, size: 0x8, addend: 0x0, symName: __ZNSt3__122__make_exception_guardB7v160006INS_6vectorIiNS_9allocatorIiEEE16__destroy_vectorEEENS_28__exception_guard_exceptionsIT_EES7_, symObjAddr: 0x2A3F8, symBinAddr: 0x10002CC30, symSize: 0x40 }
  - { offsetInCU: 0x5AFF4, offset: 0x5AFF4, size: 0x8, addend: 0x0, symName: __ZNSt3__118__debug_db_erase_cB7v160006INS_6vectorIiNS_9allocatorIiEEEEEEvPT_, symObjAddr: 0x2A674, symBinAddr: 0x10002CEAC, symSize: 0x10 }
  - { offsetInCU: 0x5B025, offset: 0x5B025, size: 0x8, addend: 0x0, symName: __ZNSt3__122__make_exception_guardB7v160006INS_6vectorIfNS_9allocatorIfEEE16__destroy_vectorEEENS_28__exception_guard_exceptionsIT_EES7_, symObjAddr: 0x2A7E4, symBinAddr: 0x10002D01C, symSize: 0x40 }
  - { offsetInCU: 0x5B05B, offset: 0x5B05B, size: 0x8, addend: 0x0, symName: __ZNSt3__119__debug_db_insert_cB7v160006INS_6vectorIfNS_9allocatorIfEEEEEEvPT_, symObjAddr: 0x2A858, symBinAddr: 0x10002D090, symSize: 0x10 }
  - { offsetInCU: 0x5B08D, offset: 0x5B08D, size: 0x8, addend: 0x0, symName: __ZNSt3__118__debug_db_erase_cB7v160006INS_6vectorIfNS_9allocatorIfEEEEEEvPT_, symObjAddr: 0x2AB44, symBinAddr: 0x10002D37C, symSize: 0x10 }
  - { offsetInCU: 0x5B0BE, offset: 0x5B0BE, size: 0x8, addend: 0x0, symName: __ZNSt3__122__make_exception_guardB7v160006INS_6vectorINS_12basic_stringIcNS_11char_traitsIcEENS_9allocatorIcEEEENS5_IS7_EEE16__destroy_vectorEEENS_28__exception_guard_exceptionsIT_EESC_, symObjAddr: 0x2ACDC, symBinAddr: 0x10002D514, symSize: 0x40 }
  - { offsetInCU: 0x5B0F4, offset: 0x5B0F4, size: 0x8, addend: 0x0, symName: __ZNSt3__119__debug_db_insert_cB7v160006INS_6vectorINS_12basic_stringIcNS_11char_traitsIcEENS_9allocatorIcEEEENS5_IS7_EEEEEEvPT_, symObjAddr: 0x2AD50, symBinAddr: 0x10002D588, symSize: 0x10 }
  - { offsetInCU: 0x5B126, offset: 0x5B126, size: 0x8, addend: 0x0, symName: __ZNSt3__118__debug_db_erase_cB7v160006INS_6vectorINS_12basic_stringIcNS_11char_traitsIcEENS_9allocatorIcEEEENS5_IS7_EEEEEEvPT_, symObjAddr: 0x2B058, symBinAddr: 0x10002D890, symSize: 0x10 }
  - { offsetInCU: 0x5B157, offset: 0x5B157, size: 0x8, addend: 0x0, symName: __ZNSt3__119__allocator_destroyB7v160006INS_9allocatorIN7tinyobj5tag_tEEENS_16reverse_iteratorIPS3_EES7_EEvRT_T0_T1_, symObjAddr: 0x2B18C, symBinAddr: 0x10002D9C4, symSize: 0x70 }
  - { offsetInCU: 0x5B1BA, offset: 0x5B1BA, size: 0x8, addend: 0x0, symName: __ZNSt3__1neB7v160006IPN7tinyobj5tag_tES3_EEbRKNS_16reverse_iteratorIT_EERKNS4_IT0_EE, symObjAddr: 0x2B230, symBinAddr: 0x10002DA68, symSize: 0x48 }
  - { offsetInCU: 0x5B206, offset: 0x5B206, size: 0x8, addend: 0x0, symName: __ZNSt3__112__to_addressB7v160006INS_16reverse_iteratorIPN7tinyobj5tag_tEEEvEENS_5decayIDTclsr19__to_address_helperIT_EE6__callclsr3stdE7declvalIRKS7_EEEEE4typeES9_, symObjAddr: 0x2B2A4, symBinAddr: 0x10002DADC, symSize: 0x24 }
  - { offsetInCU: 0x5B266, offset: 0x5B266, size: 0x8, addend: 0x0, symName: __ZNSt3__119__allocate_at_leastB7v160006INS_9allocatorIN7tinyobj5tag_tEEEEENS_19__allocation_resultINS_16allocator_traitsIT_E7pointerEEERS7_m, symObjAddr: 0x2B7B4, symBinAddr: 0x10002DFEC, symSize: 0x40 }
  - { offsetInCU: 0x5B2AA, offset: 0x5B2AA, size: 0x8, addend: 0x0, symName: __ZNSt3__115__debug_db_swapB7v160006INS_6vectorIN7tinyobj7index_tENS_9allocatorIS3_EEEEEEvPT_S8_, symObjAddr: 0x2BF04, symBinAddr: 0x10002E73C, symSize: 0x14 }
  - { offsetInCU: 0x5B2EA, offset: 0x5B2EA, size: 0x8, addend: 0x0, symName: __ZNSt3__115__debug_db_swapB7v160006INS_6vectorIiNS_9allocatorIiEEEEEEvPT_S6_, symObjAddr: 0x2C36C, symBinAddr: 0x10002EBA4, symSize: 0x14 }
  - { offsetInCU: 0x5B32A, offset: 0x5B32A, size: 0x8, addend: 0x0, symName: __ZNSt3__115__debug_db_swapB7v160006INS_6vectorIN7tinyobj5tag_tENS_9allocatorIS3_EEEEEEvPT_S8_, symObjAddr: 0x2C490, symBinAddr: 0x10002ECC8, symSize: 0x14 }
  - { offsetInCU: 0x5B36A, offset: 0x5B36A, size: 0x8, addend: 0x0, symName: __ZNSt3__125__debug_db_invalidate_allB7v160006INS_6vectorIN7tinyobj8__line_tENS_9allocatorIS3_EEEEEEvPT_, symObjAddr: 0x2C810, symBinAddr: 0x10002F048, symSize: 0x10 }
  - { offsetInCU: 0x5B39C, offset: 0x5B39C, size: 0x8, addend: 0x0, symName: __ZNSt3__112__to_addressB7v160006IN7tinyobj8__line_tEEEPT_S4_, symObjAddr: 0x2C900, symBinAddr: 0x10002F138, symSize: 0x14 }
  - { offsetInCU: 0x5B3D2, offset: 0x5B3D2, size: 0x8, addend: 0x0, symName: __ZNSt3__125__debug_db_invalidate_allB7v160006INS_6vectorIN7tinyobj10__points_tENS_9allocatorIS3_EEEEEEvPT_, symObjAddr: 0x2CB54, symBinAddr: 0x10002F38C, symSize: 0x10 }
  - { offsetInCU: 0x5B404, offset: 0x5B404, size: 0x8, addend: 0x0, symName: __ZNSt3__112__to_addressB7v160006IN7tinyobj10__points_tEEEPT_S4_, symObjAddr: 0x2CC44, symBinAddr: 0x10002F47C, symSize: 0x14 }
  - { offsetInCU: 0x5B43A, offset: 0x5B43A, size: 0x8, addend: 0x0, symName: __ZNSt3__118__debug_db_erase_cB7v160006INS_6vectorIN7tinyobj10__points_tENS_9allocatorIS3_EEEEEEvPT_, symObjAddr: 0x2D15C, symBinAddr: 0x10002F994, symSize: 0x10 }
  - { offsetInCU: 0x5B46C, offset: 0x5B46C, size: 0x8, addend: 0x0, symName: __ZNSt3__118__debug_db_erase_cB7v160006INS_6vectorIN7tinyobj8__line_tENS_9allocatorIS3_EEEEEEvPT_, symObjAddr: 0x2D3EC, symBinAddr: 0x10002FC24, symSize: 0x10 }
  - { offsetInCU: 0x5B49E, offset: 0x5B49E, size: 0x8, addend: 0x0, symName: __ZNSt3__118__debug_db_erase_cB7v160006INS_6vectorIN7tinyobj6face_tENS_9allocatorIS3_EEEEEEvPT_, symObjAddr: 0x2D660, symBinAddr: 0x10002FE98, symSize: 0x10 }
  - { offsetInCU: 0x5B4D0, offset: 0x5B4D0, size: 0x8, addend: 0x0, symName: __ZNSt3__112__to_addressB7v160006IN7tinyobj6face_tEEEPT_S4_, symObjAddr: 0x2D77C, symBinAddr: 0x10002FFB4, symSize: 0x14 }
  - { offsetInCU: 0x5B506, offset: 0x5B506, size: 0x8, addend: 0x0, symName: __ZNSt3__119__debug_db_insert_cB7v160006INS_6vectorIN7tinyobj7shape_tENS_9allocatorIS3_EEEEEEvPT_, symObjAddr: 0x2DC78, symBinAddr: 0x1000304B0, symSize: 0x10 }
  - { offsetInCU: 0x5B537, offset: 0x5B537, size: 0x8, addend: 0x0, symName: __ZNSt3__18distanceB7v160006IP4Vec3EENS_15iterator_traitsIT_E15difference_typeES4_S4_, symObjAddr: 0x2E15C, symBinAddr: 0x100030994, symSize: 0x2C }
  - { offsetInCU: 0x5B57A, offset: 0x5B57A, size: 0x8, addend: 0x0, symName: __ZNSt3__14copyB7v160006IP4Vec3S2_EET0_T_S4_S3_, symObjAddr: 0x2E240, symBinAddr: 0x100030A78, symSize: 0x40 }
  - { offsetInCU: 0x5B5D5, offset: 0x5B5D5, size: 0x8, addend: 0x0, symName: __ZNSt3__125__debug_db_invalidate_allB7v160006INS_6vectorI4Vec3NS_9allocatorIS2_EEEEEEvPT_, symObjAddr: 0x2E560, symBinAddr: 0x100030D98, symSize: 0x10 }
  - { offsetInCU: 0x5B607, offset: 0x5B607, size: 0x8, addend: 0x0, symName: __ZNSt3__110__distanceB7v160006IP4Vec3EENS_15iterator_traitsIT_E15difference_typeES4_S4_NS_26random_access_iterator_tagE, symObjAddr: 0x2E570, symBinAddr: 0x100030DA8, symSize: 0x28 }
  - { offsetInCU: 0x5B656, offset: 0x5B656, size: 0x8, addend: 0x0, symName: __ZNSt3__19__advanceB7v160006IP4Vec3EEvRT_NS_15iterator_traitsIS3_E15difference_typeENS_26random_access_iterator_tagE, symObjAddr: 0x2E5F8, symBinAddr: 0x100030E30, symSize: 0x30 }
  - { offsetInCU: 0x5B6A0, offset: 0x5B6A0, size: 0x8, addend: 0x0, symName: __ZNSt3__16__copyB7v160006INS_17_ClassicAlgPolicyEP4Vec3S3_S3_EENS_4pairIT0_T2_EES5_T1_S6_, symObjAddr: 0x2E628, symBinAddr: 0x100030E60, symSize: 0x44 }
  - { offsetInCU: 0x5B70C, offset: 0x5B70C, size: 0x8, addend: 0x0, symName: __ZNSt3__123__dispatch_copy_or_moveB7v160006INS_17_ClassicAlgPolicyENS_11__copy_loopIS1_EENS_14__copy_trivialEP4Vec3S6_S6_EENS_4pairIT2_T4_EES8_T3_S9_, symObjAddr: 0x2E66C, symBinAddr: 0x100030EA4, symSize: 0x44 }
  - { offsetInCU: 0x5B78A, offset: 0x5B78A, size: 0x8, addend: 0x0, symName: __ZNSt3__121__unwrap_and_dispatchB7v160006INS_10__overloadINS_11__copy_loopINS_17_ClassicAlgPolicyEEENS_14__copy_trivialEEEP4Vec3S8_S8_Li0EEENS_4pairIT0_T2_EESA_T1_SB_, symObjAddr: 0x2E6B0, symBinAddr: 0x100030EE8, symSize: 0xB4 }
  - { offsetInCU: 0x5B818, offset: 0x5B818, size: 0x8, addend: 0x0, symName: __ZNSt3__114__unwrap_rangeB7v160006IP4Vec3S2_EENS_4pairIT0_S4_EET_S6_, symObjAddr: 0x2E764, symBinAddr: 0x100030F9C, symSize: 0x60 }
  - { offsetInCU: 0x5B967, offset: 0x5B967, size: 0x8, addend: 0x0, symName: __ZNSt3__113__unwrap_iterB7v160006IP4Vec3NS_18__unwrap_iter_implIS2_Lb1EEELi0EEEDTclsrT0_8__unwrapclsr3stdE7declvalIT_EEEES6_, symObjAddr: 0x2E80C, symBinAddr: 0x100031044, symSize: 0x24 }
  - { offsetInCU: 0x5B9AB, offset: 0x5B9AB, size: 0x8, addend: 0x0, symName: __ZNSt3__19make_pairB7v160006IP4Vec3S2_EENS_4pairINS_18__unwrap_ref_decayIT_E4typeENS4_IT0_E4typeEEEOS5_OS8_, symObjAddr: 0x2E830, symBinAddr: 0x100031068, symSize: 0x38 }
  - { offsetInCU: 0x5B9FA, offset: 0x5B9FA, size: 0x8, addend: 0x0, symName: __ZNSt3__114__rewrap_rangeB7v160006IP4Vec3S2_EET_S3_T0_, symObjAddr: 0x2E868, symBinAddr: 0x1000310A0, symSize: 0x2C }
  - { offsetInCU: 0x5BA46, offset: 0x5BA46, size: 0x8, addend: 0x0, symName: __ZNSt3__113__rewrap_iterB7v160006IP4Vec3S2_NS_18__unwrap_iter_implIS2_Lb1EEEEET_S5_T0_, symObjAddr: 0x2E894, symBinAddr: 0x1000310CC, symSize: 0x3C }
  - { offsetInCU: 0x5BA9B, offset: 0x5BA9B, size: 0x8, addend: 0x0, symName: __ZNSt3__119__copy_trivial_implB7v160006I4Vec3S1_EENS_4pairIPT_PT0_EES4_S4_S6_, symObjAddr: 0x2E8D0, symBinAddr: 0x100031108, symSize: 0x8C }
  - { offsetInCU: 0x5BB03, offset: 0x5BB03, size: 0x8, addend: 0x0, symName: __ZNSt3__19make_pairB7v160006IRP4Vec3S2_EENS_4pairINS_18__unwrap_ref_decayIT_E4typeENS5_IT0_E4typeEEEOS6_OS9_, symObjAddr: 0x2E95C, symBinAddr: 0x100031194, symSize: 0x38 }
  - { offsetInCU: 0x5BBA6, offset: 0x5BBA6, size: 0x8, addend: 0x0, symName: __ZNSt3__112__to_addressB7v160006I4Vec3EEPT_S3_, symObjAddr: 0x2EA28, symBinAddr: 0x100031260, symSize: 0x14 }
  - { offsetInCU: 0x5BBDB, offset: 0x5BBDB, size: 0x8, addend: 0x0, symName: __ZNSt3__130__uninitialized_allocator_copyB7v160006INS_9allocatorI4Vec3EEPS2_S4_S4_EET2_RT_T0_T1_S5_, symObjAddr: 0x2EB40, symBinAddr: 0x100031378, symSize: 0xF4 }
  - { offsetInCU: 0x5BC79, offset: 0x5BC79, size: 0x8, addend: 0x0, symName: __ZNSt3__122__make_exception_guardB7v160006INS_29_AllocatorDestroyRangeReverseINS_9allocatorI4Vec3EEPS3_EEEENS_28__exception_guard_exceptionsIT_EES8_, symObjAddr: 0x2ECD4, symBinAddr: 0x10003150C, symSize: 0x4C }
  - { offsetInCU: 0x5BCAF, offset: 0x5BCAF, size: 0x8, addend: 0x0, symName: __ZNSt3__119__allocator_destroyB7v160006INS_9allocatorI4Vec3EENS_16reverse_iteratorIPS2_EES6_EEvRT_T0_T1_, symObjAddr: 0x2EF64, symBinAddr: 0x10003179C, symSize: 0x70 }
  - { offsetInCU: 0x5BD12, offset: 0x5BD12, size: 0x8, addend: 0x0, symName: __ZNSt3__1neB7v160006IP4Vec3S2_EEbRKNS_16reverse_iteratorIT_EERKNS3_IT0_EE, symObjAddr: 0x2F008, symBinAddr: 0x100031840, symSize: 0x48 }
  - { offsetInCU: 0x5BD5E, offset: 0x5BD5E, size: 0x8, addend: 0x0, symName: __ZNSt3__112__to_addressB7v160006INS_16reverse_iteratorIP4Vec3EEvEENS_5decayIDTclsr19__to_address_helperIT_EE6__callclsr3stdE7declvalIRKS6_EEEEE4typeES8_, symObjAddr: 0x2F07C, symBinAddr: 0x1000318B4, symSize: 0x24 }
  - { offsetInCU: 0x5BDBE, offset: 0x5BDBE, size: 0x8, addend: 0x0, symName: __ZNSt3__119__allocate_at_leastB7v160006INS_9allocatorI4Vec3EEEENS_19__allocation_resultINS_16allocator_traitsIT_E7pointerEEERS6_m, symObjAddr: 0x2F578, symBinAddr: 0x100031DB0, symSize: 0x40 }
  - { offsetInCU: 0x5BE02, offset: 0x5BE02, size: 0x8, addend: 0x0, symName: __ZNSt3__118__debug_db_erase_cB7v160006INS_6vectorIN7tinyobj7shape_tENS_9allocatorIS3_EEEEEEvPT_, symObjAddr: 0x2FA68, symBinAddr: 0x1000322A0, symSize: 0x10 }
  - { offsetInCU: 0x5BE34, offset: 0x5BE34, size: 0x8, addend: 0x0, symName: __ZNSt3__112__to_addressB7v160006IN7tinyobj7shape_tEEEPT_S4_, symObjAddr: 0x2FB84, symBinAddr: 0x1000323BC, symSize: 0x14 }
  - { offsetInCU: 0x5BE6A, offset: 0x5BE6A, size: 0x8, addend: 0x0, symName: __ZNSt3__119__debug_db_insert_cB7v160006INS_6vectorIP8VoxChunkNS_9allocatorIS3_EEEEEEvPT_, symObjAddr: 0x2FFE0, symBinAddr: 0x100032818, symSize: 0x10 }
  - { offsetInCU: 0x5BE9C, offset: 0x5BE9C, size: 0x8, addend: 0x0, symName: __ZNSt3__118__debug_db_erase_cB7v160006INS_6vectorIP8VoxChunkNS_9allocatorIS3_EEEEEEvPT_, symObjAddr: 0x302D8, symBinAddr: 0x100032B10, symSize: 0x10 }
  - { offsetInCU: 0x5BECE, offset: 0x5BECE, size: 0x8, addend: 0x0, symName: __ZNSt3__112__to_addressB7v160006IP8VoxChunkEEPT_S4_, symObjAddr: 0x3041C, symBinAddr: 0x100032C54, symSize: 0x14 }
  - { offsetInCU: 0x5BF04, offset: 0x5BF04, size: 0x8, addend: 0x0, symName: __ZNSt3__119__debug_db_insert_cB7v160006INS_13unordered_mapIy4Vec3NS_4hashIyEENS_8equal_toIyEENS_9allocatorINS_4pairIKyS2_EEEEEEEEvPT_, symObjAddr: 0x308DC, symBinAddr: 0x100033114, symSize: 0x10 }
  - { offsetInCU: 0x5BF36, offset: 0x5BF36, size: 0x8, addend: 0x0, symName: __ZNSt3__118__debug_db_erase_cB7v160006INS_12__hash_tableINS_17__hash_value_typeIy4Vec3EENS_22__unordered_map_hasherIyS4_NS_4hashIyEENS_8equal_toIyEELb1EEENS_21__unordered_map_equalIyS4_S9_S7_Lb1EEENS_9allocatorIS4_EEEEEEvPT_, symObjAddr: 0x3138C, symBinAddr: 0x100033BC4, symSize: 0x10 }
  - { offsetInCU: 0x5C027, offset: 0x5C027, size: 0x8, addend: 0x0, symName: __ZNSt3__17launderB7v160006INS_4pairIKy4Vec3EEEEPT_S6_, symObjAddr: 0x314F0, symBinAddr: 0x100033D28, symSize: 0x24 }
  - { offsetInCU: 0x5C05E, offset: 0x5C05E, size: 0x8, addend: 0x0, symName: __ZNSt3__19__launderB7v160006INS_4pairIKy4Vec3EEEEPT_S6_, symObjAddr: 0x31514, symBinAddr: 0x100033D4C, symSize: 0x14 }
  - { offsetInCU: 0x5C096, offset: 0x5C096, size: 0x8, addend: 0x0, symName: __ZNSt3__119__debug_db_insert_cB7v160006INS_6vectorI7BVHNodeNS_9allocatorIS2_EEEEEEvPT_, symObjAddr: 0x31B68, symBinAddr: 0x1000343A0, symSize: 0x10 }
  - { offsetInCU: 0x5C0C7, offset: 0x5C0C7, size: 0x8, addend: 0x0, symName: __ZNSt3__18distanceB7v160006IP4FaceEENS_15iterator_traitsIT_E15difference_typeES4_S4_, symObjAddr: 0x31DFC, symBinAddr: 0x100034634, symSize: 0x2C }
  - { offsetInCU: 0x5C10A, offset: 0x5C10A, size: 0x8, addend: 0x0, symName: __ZNSt3__14copyB7v160006IP4FaceS2_EET0_T_S4_S3_, symObjAddr: 0x31EB8, symBinAddr: 0x1000346F0, symSize: 0x40 }
  - { offsetInCU: 0x5C165, offset: 0x5C165, size: 0x8, addend: 0x0, symName: __ZNSt3__125__debug_db_invalidate_allB7v160006INS_6vectorI4FaceNS_9allocatorIS2_EEEEEEvPT_, symObjAddr: 0x321D0, symBinAddr: 0x100034A08, symSize: 0x10 }
  - { offsetInCU: 0x5C197, offset: 0x5C197, size: 0x8, addend: 0x0, symName: __ZNSt3__110__distanceB7v160006IP4FaceEENS_15iterator_traitsIT_E15difference_typeES4_S4_NS_26random_access_iterator_tagE, symObjAddr: 0x321E0, symBinAddr: 0x100034A18, symSize: 0x28 }
  - { offsetInCU: 0x5C1E6, offset: 0x5C1E6, size: 0x8, addend: 0x0, symName: __ZNSt3__19__advanceB7v160006IP4FaceEEvRT_NS_15iterator_traitsIS3_E15difference_typeENS_26random_access_iterator_tagE, symObjAddr: 0x32268, symBinAddr: 0x100034AA0, symSize: 0x28 }
  - { offsetInCU: 0x5C230, offset: 0x5C230, size: 0x8, addend: 0x0, symName: __ZNSt3__16__copyB7v160006INS_17_ClassicAlgPolicyEP4FaceS3_S3_EENS_4pairIT0_T2_EES5_T1_S6_, symObjAddr: 0x32290, symBinAddr: 0x100034AC8, symSize: 0x44 }
  - { offsetInCU: 0x5C29C, offset: 0x5C29C, size: 0x8, addend: 0x0, symName: __ZNSt3__123__dispatch_copy_or_moveB7v160006INS_17_ClassicAlgPolicyENS_11__copy_loopIS1_EENS_14__copy_trivialEP4FaceS6_S6_EENS_4pairIT2_T4_EES8_T3_S9_, symObjAddr: 0x322D4, symBinAddr: 0x100034B0C, symSize: 0x44 }
  - { offsetInCU: 0x5C31A, offset: 0x5C31A, size: 0x8, addend: 0x0, symName: __ZNSt3__121__unwrap_and_dispatchB7v160006INS_10__overloadINS_11__copy_loopINS_17_ClassicAlgPolicyEEENS_14__copy_trivialEEEP4FaceS8_S8_Li0EEENS_4pairIT0_T2_EESA_T1_SB_, symObjAddr: 0x32318, symBinAddr: 0x100034B50, symSize: 0xB4 }
  - { offsetInCU: 0x5C3A8, offset: 0x5C3A8, size: 0x8, addend: 0x0, symName: __ZNSt3__114__unwrap_rangeB7v160006IP4FaceS2_EENS_4pairIT0_S4_EET_S6_, symObjAddr: 0x323CC, symBinAddr: 0x100034C04, symSize: 0x60 }
  - { offsetInCU: 0x5C4C8, offset: 0x5C4C8, size: 0x8, addend: 0x0, symName: __ZNSt3__113__unwrap_iterB7v160006IP4FaceNS_18__unwrap_iter_implIS2_Lb1EEELi0EEEDTclsrT0_8__unwrapclsr3stdE7declvalIT_EEEES6_, symObjAddr: 0x324B4, symBinAddr: 0x100034CEC, symSize: 0x24 }
  - { offsetInCU: 0x5C50C, offset: 0x5C50C, size: 0x8, addend: 0x0, symName: __ZNSt3__19make_pairB7v160006IP4FaceS2_EENS_4pairINS_18__unwrap_ref_decayIT_E4typeENS4_IT0_E4typeEEEOS5_OS8_, symObjAddr: 0x324D8, symBinAddr: 0x100034D10, symSize: 0x38 }
  - { offsetInCU: 0x5C55B, offset: 0x5C55B, size: 0x8, addend: 0x0, symName: __ZNSt3__114__rewrap_rangeB7v160006IP4FaceS2_EET_S3_T0_, symObjAddr: 0x32510, symBinAddr: 0x100034D48, symSize: 0x2C }
  - { offsetInCU: 0x5C5A7, offset: 0x5C5A7, size: 0x8, addend: 0x0, symName: __ZNSt3__113__rewrap_iterB7v160006IP4FaceS2_NS_18__unwrap_iter_implIS2_Lb1EEEEET_S5_T0_, symObjAddr: 0x3253C, symBinAddr: 0x100034D74, symSize: 0x3C }
  - { offsetInCU: 0x5C650, offset: 0x5C650, size: 0x8, addend: 0x0, symName: __ZNSt3__112__to_addressB7v160006I4FaceEEPT_S3_, symObjAddr: 0x32600, symBinAddr: 0x100034E38, symSize: 0x14 }
  - { offsetInCU: 0x5C685, offset: 0x5C685, size: 0x8, addend: 0x0, symName: __ZNSt3__130__uninitialized_allocator_copyB7v160006INS_9allocatorI4FaceEEPS2_S4_S4_EET2_RT_T0_T1_S5_, symObjAddr: 0x32710, symBinAddr: 0x100034F48, symSize: 0xF4 }
  - { offsetInCU: 0x5C723, offset: 0x5C723, size: 0x8, addend: 0x0, symName: __ZNSt3__122__make_exception_guardB7v160006INS_29_AllocatorDestroyRangeReverseINS_9allocatorI4FaceEEPS3_EEEENS_28__exception_guard_exceptionsIT_EES8_, symObjAddr: 0x3289C, symBinAddr: 0x1000350D4, symSize: 0x4C }
  - { offsetInCU: 0x5C759, offset: 0x5C759, size: 0x8, addend: 0x0, symName: __ZNSt3__119__allocator_destroyB7v160006INS_9allocatorI4FaceEENS_16reverse_iteratorIPS2_EES6_EEvRT_T0_T1_, symObjAddr: 0x32BC4, symBinAddr: 0x1000353FC, symSize: 0x70 }
  - { offsetInCU: 0x5C7BC, offset: 0x5C7BC, size: 0x8, addend: 0x0, symName: __ZNSt3__1neB7v160006IP4FaceS2_EEbRKNS_16reverse_iteratorIT_EERKNS3_IT0_EE, symObjAddr: 0x32C68, symBinAddr: 0x1000354A0, symSize: 0x48 }
  - { offsetInCU: 0x5C808, offset: 0x5C808, size: 0x8, addend: 0x0, symName: __ZNSt3__112__to_addressB7v160006INS_16reverse_iteratorIP4FaceEEvEENS_5decayIDTclsr19__to_address_helperIT_EE6__callclsr3stdE7declvalIRKS6_EEEEE4typeES8_, symObjAddr: 0x32CDC, symBinAddr: 0x100035514, symSize: 0x24 }
  - { offsetInCU: 0x5C868, offset: 0x5C868, size: 0x8, addend: 0x0, symName: __ZNSt3__119__allocate_at_leastB7v160006INS_9allocatorI4FaceEEEENS_19__allocation_resultINS_16allocator_traitsIT_E7pointerEEERS6_m, symObjAddr: 0x331CC, symBinAddr: 0x100035A04, symSize: 0x40 }
  - { offsetInCU: 0x5C8AC, offset: 0x5C8AC, size: 0x8, addend: 0x0, symName: __ZNSt3__112__to_addressB7v160006I7BVHNodeEEPT_S3_, symObjAddr: 0x33DEC, symBinAddr: 0x100036624, symSize: 0x14 }
  - { offsetInCU: 0x5C8E1, offset: 0x5C8E1, size: 0x8, addend: 0x0, symName: __ZNSt3__119__allocate_at_leastB7v160006INS_9allocatorI7BVHNodeEEEENS_19__allocation_resultINS_16allocator_traitsIT_E7pointerEEERS6_m, symObjAddr: 0x3424C, symBinAddr: 0x100036A84, symSize: 0x40 }
  - { offsetInCU: 0x5C924, offset: 0x5C924, size: 0x8, addend: 0x0, symName: __ZNSt3__142__uninitialized_allocator_move_if_noexceptB7v160006INS_9allocatorI7BVHNodeEENS_16reverse_iteratorIPS2_EES6_S2_vEET1_RT_T0_SA_S7_, symObjAddr: 0x345AC, symBinAddr: 0x100036DE4, symSize: 0x78 }
  - { offsetInCU: 0x5C9A3, offset: 0x5C9A3, size: 0x8, addend: 0x0, symName: __ZNSt3__14swapB7v160006IP7BVHNodeEENS_9enable_ifIXaasr21is_move_constructibleIT_EE5valuesr18is_move_assignableIS4_EE5valueEvE4typeERS4_S7_, symObjAddr: 0x34670, symBinAddr: 0x100036EA8, symSize: 0x3C }
  - { offsetInCU: 0x5C9F5, offset: 0x5C9F5, size: 0x8, addend: 0x0, symName: __ZNSt3__125__debug_db_invalidate_allB7v160006INS_6vectorI7BVHNodeNS_9allocatorIS2_EEEEEEvPT_, symObjAddr: 0x34774, symBinAddr: 0x100036FAC, symSize: 0x10 }
  - { offsetInCU: 0x5CA26, offset: 0x5CA26, size: 0x8, addend: 0x0, symName: __ZNSt3__14moveB7v160006INS_16reverse_iteratorIP7BVHNodeEES4_EET0_T_S6_S5_, symObjAddr: 0x347CC, symBinAddr: 0x100037004, symSize: 0x78 }
  - { offsetInCU: 0x5CA80, offset: 0x5CA80, size: 0x8, addend: 0x0, symName: __ZNSt3__16__moveB7v160006INS_17_ClassicAlgPolicyENS_16reverse_iteratorIP7BVHNodeEES5_S5_EENS_4pairIT0_T2_EES7_T1_S8_, symObjAddr: 0x34844, symBinAddr: 0x10003707C, symSize: 0x64 }
  - { offsetInCU: 0x5CAEC, offset: 0x5CAEC, size: 0x8, addend: 0x0, symName: __ZNSt3__123__dispatch_copy_or_moveB7v160006INS_17_ClassicAlgPolicyENS_11__move_loopIS1_EENS_14__move_trivialENS_16reverse_iteratorIP7BVHNodeEES8_S8_EENS_4pairIT2_T4_EESA_T3_SB_, symObjAddr: 0x348A8, symBinAddr: 0x1000370E0, symSize: 0x64 }
  - { offsetInCU: 0x5CB6A, offset: 0x5CB6A, size: 0x8, addend: 0x0, symName: __ZNSt3__121__unwrap_and_dispatchB7v160006INS_10__overloadINS_11__move_loopINS_17_ClassicAlgPolicyEEENS_14__move_trivialEEENS_16reverse_iteratorIP7BVHNodeEESA_SA_Li0EEENS_4pairIT0_T2_EESC_T1_SD_, symObjAddr: 0x3490C, symBinAddr: 0x100037144, symSize: 0x12C }
  - { offsetInCU: 0x5CBFA, offset: 0x5CBFA, size: 0x8, addend: 0x0, symName: __ZNSt3__114__unwrap_rangeB7v160006INS_16reverse_iteratorIP7BVHNodeEES4_EENS_4pairIT0_S6_EET_S8_, symObjAddr: 0x34A38, symBinAddr: 0x100037270, symSize: 0x84 }
  - { offsetInCU: 0x5CD1A, offset: 0x5CD1A, size: 0x8, addend: 0x0, symName: __ZNSt3__113__unwrap_iterB7v160006INS_16reverse_iteratorIP7BVHNodeEENS_18__unwrap_iter_implIS4_Lb0EEELi0EEEDTclsrT0_8__unwrapclsr3stdE7declvalIT_EEEES8_, symObjAddr: 0x34B58, symBinAddr: 0x100037390, symSize: 0x44 }
  - { offsetInCU: 0x5CD5E, offset: 0x5CD5E, size: 0x8, addend: 0x0, symName: __ZNSt3__19make_pairB7v160006INS_16reverse_iteratorIP7BVHNodeEES4_EENS_4pairINS_18__unwrap_ref_decayIT_E4typeENS6_IT0_E4typeEEEOS7_OSA_, symObjAddr: 0x34B9C, symBinAddr: 0x1000373D4, symSize: 0x38 }
  - { offsetInCU: 0x5CDAD, offset: 0x5CDAD, size: 0x8, addend: 0x0, symName: __ZNSt3__114__rewrap_rangeB7v160006INS_16reverse_iteratorIP7BVHNodeEES4_EET_S5_T0_, symObjAddr: 0x34BD4, symBinAddr: 0x10003740C, symSize: 0x5C }
  - { offsetInCU: 0x5CDF9, offset: 0x5CDF9, size: 0x8, addend: 0x0, symName: __ZNSt3__113__rewrap_iterB7v160006INS_16reverse_iteratorIP7BVHNodeEES4_NS_18__unwrap_iter_implIS4_Lb0EEEEET_S7_T0_, symObjAddr: 0x34C30, symBinAddr: 0x100037468, symSize: 0x74 }
  - { offsetInCU: 0x5CE4E, offset: 0x5CE4E, size: 0x8, addend: 0x0, symName: __ZNSt3__1neB7v160006IP7BVHNodeS2_EEbRKNS_16reverse_iteratorIT_EERKNS3_IT0_EE, symObjAddr: 0x34CA4, symBinAddr: 0x1000374DC, symSize: 0x48 }
  - { offsetInCU: 0x5CF07, offset: 0x5CF07, size: 0x8, addend: 0x0, symName: __ZNSt3__118__debug_db_erase_cB7v160006INS_6vectorI7BVHNodeNS_9allocatorIS2_EEEEEEvPT_, symObjAddr: 0x35390, symBinAddr: 0x100037BC8, symSize: 0x10 }
  - { offsetInCU: 0x5CF39, offset: 0x5CF39, size: 0x8, addend: 0x0, symName: __ZNSt3__14swapB7v160006IjEENS_9enable_ifIXaasr21is_move_constructibleIT_EE5valuesr18is_move_assignableIS2_EE5valueEvE4typeERS2_S5_, symObjAddr: 0x35BF0, symBinAddr: 0x100038428, symSize: 0x3C }
  - { offsetInCU: 0x5CF8B, offset: 0x5CF8B, size: 0x8, addend: 0x0, symName: __ZNSt3__119__debug_db_insert_cB7v160006INS_6vectorINS1_I3RGBNS_9allocatorIS2_EEEENS3_IS5_EEEEEEvPT_, symObjAddr: 0x362FC, symBinAddr: 0x100038B34, symSize: 0x10 }
  - { offsetInCU: 0x5CFBD, offset: 0x5CFBD, size: 0x8, addend: 0x0, symName: __ZNSt3__112__to_addressB7v160006INS_6vectorI3RGBNS_9allocatorIS2_EEEEEEPT_S7_, symObjAddr: 0x36A0C, symBinAddr: 0x100039244, symSize: 0x14 }
  - { offsetInCU: 0x5CFF3, offset: 0x5CFF3, size: 0x8, addend: 0x0, symName: __ZNSt3__119__debug_db_insert_cB7v160006INS_6vectorI3RGBNS_9allocatorIS2_EEEEEEvPT_, symObjAddr: 0x36B80, symBinAddr: 0x1000393B8, symSize: 0x10 }
  - { offsetInCU: 0x5D024, offset: 0x5D024, size: 0x8, addend: 0x0, symName: __ZNSt3__119__allocate_at_leastB7v160006INS_9allocatorINS_6vectorI3RGBNS1_IS3_EEEEEEEENS_19__allocation_resultINS_16allocator_traitsIT_E7pointerEEERS9_m, symObjAddr: 0x36F84, symBinAddr: 0x1000397BC, symSize: 0x40 }
  - { offsetInCU: 0x5D067, offset: 0x5D067, size: 0x8, addend: 0x0, symName: __ZNSt3__142__uninitialized_allocator_move_if_noexceptB7v160006INS_9allocatorINS_6vectorI3RGBNS1_IS3_EEEEEENS_16reverse_iteratorIPS5_EES9_S9_EET2_RT_T0_T1_SA_, symObjAddr: 0x372E4, symBinAddr: 0x100039B1C, symSize: 0x12C }
  - { offsetInCU: 0x5D108, offset: 0x5D108, size: 0x8, addend: 0x0, symName: __ZNSt3__14swapB7v160006IPNS_6vectorI3RGBNS_9allocatorIS2_EEEEEENS_9enable_ifIXaasr21is_move_constructibleIT_EE5valuesr18is_move_assignableIS8_EE5valueEvE4typeERS8_SB_, symObjAddr: 0x3745C, symBinAddr: 0x100039C94, symSize: 0x3C }
  - { offsetInCU: 0x5D15A, offset: 0x5D15A, size: 0x8, addend: 0x0, symName: __ZNSt3__125__debug_db_invalidate_allB7v160006INS_6vectorINS1_I3RGBNS_9allocatorIS2_EEEENS3_IS5_EEEEEEvPT_, symObjAddr: 0x37560, symBinAddr: 0x100039D98, symSize: 0x10 }
  - { offsetInCU: 0x5D18B, offset: 0x5D18B, size: 0x8, addend: 0x0, symName: __ZNSt3__122__make_exception_guardB7v160006INS_29_AllocatorDestroyRangeReverseINS_9allocatorINS_6vectorI3RGBNS2_IS4_EEEEEENS_16reverse_iteratorIPS6_EEEEEENS_28__exception_guard_exceptionsIT_EESD_, symObjAddr: 0x375B8, symBinAddr: 0x100039DF0, symSize: 0x4C }
  - { offsetInCU: 0x5D1C1, offset: 0x5D1C1, size: 0x8, addend: 0x0, symName: __ZNSt3__1neB7v160006IPNS_6vectorI3RGBNS_9allocatorIS2_EEEES6_EEbRKNS_16reverse_iteratorIT_EERKNS7_IT0_EE, symObjAddr: 0x37648, symBinAddr: 0x100039E80, symSize: 0x48 }
  - { offsetInCU: 0x5D20D, offset: 0x5D20D, size: 0x8, addend: 0x0, symName: __ZNSt3__112__to_addressB7v160006INS_16reverse_iteratorIPNS_6vectorI3RGBNS_9allocatorIS3_EEEEEEvEENS_5decayIDTclsr19__to_address_helperIT_EE6__callclsr3stdE7declvalIRKSA_EEEEE4typeESC_, symObjAddr: 0x376C4, symBinAddr: 0x100039EFC, symSize: 0x24 }
  - { offsetInCU: 0x5D244, offset: 0x5D244, size: 0x8, addend: 0x0, symName: __ZNSt3__115__debug_db_swapB7v160006INS_6vectorI3RGBNS_9allocatorIS2_EEEEEEvPT_S7_, symObjAddr: 0x379B8, symBinAddr: 0x10003A1F0, symSize: 0x14 }
  - { offsetInCU: 0x5D2AD, offset: 0x5D2AD, size: 0x8, addend: 0x0, symName: __ZNSt3__119__allocator_destroyB7v160006INS_9allocatorINS_6vectorI3RGBNS1_IS3_EEEEEENS_16reverse_iteratorINS7_IPS5_EEEESA_EEvRT_T0_T1_, symObjAddr: 0x37C20, symBinAddr: 0x10003A458, symSize: 0x70 }
  - { offsetInCU: 0x5D312, offset: 0x5D312, size: 0x8, addend: 0x0, symName: __ZNSt3__1neB7v160006INS_16reverse_iteratorIPNS_6vectorI3RGBNS_9allocatorIS3_EEEEEES8_EEbRKNS1_IT_EERKNS1_IT0_EE, symObjAddr: 0x37CCC, symBinAddr: 0x10003A504, symSize: 0x60 }
  - { offsetInCU: 0x5D35E, offset: 0x5D35E, size: 0x8, addend: 0x0, symName: __ZNSt3__112__to_addressB7v160006INS_16reverse_iteratorINS1_IPNS_6vectorI3RGBNS_9allocatorIS3_EEEEEEEEvEENS_5decayIDTclsr19__to_address_helperIT_EE6__callclsr3stdE7declvalIRKSB_EEEEE4typeESD_, symObjAddr: 0x37D58, symBinAddr: 0x10003A590, symSize: 0x24 }
  - { offsetInCU: 0x5D395, offset: 0x5D395, size: 0x8, addend: 0x0, symName: __ZNSt3__118__debug_db_erase_cB7v160006INS_6vectorI3RGBNS_9allocatorIS2_EEEEEEvPT_, symObjAddr: 0x3802C, symBinAddr: 0x10003A864, symSize: 0x10 }
  - { offsetInCU: 0x5D3C7, offset: 0x5D3C7, size: 0x8, addend: 0x0, symName: __ZNSt3__112__to_addressB7v160006I3RGBEEPT_S3_, symObjAddr: 0x38148, symBinAddr: 0x10003A980, symSize: 0x14 }
  - { offsetInCU: 0x5D426, offset: 0x5D426, size: 0x8, addend: 0x0, symName: __ZNSt3__119__allocate_at_leastB7v160006INS_9allocatorI3RGBEEEENS_19__allocation_resultINS_16allocator_traitsIT_E7pointerEEERS6_m, symObjAddr: 0x3905C, symBinAddr: 0x10003B894, symSize: 0x40 }
  - { offsetInCU: 0x5D469, offset: 0x5D469, size: 0x8, addend: 0x0, symName: __ZNSt3__142__uninitialized_allocator_move_if_noexceptB7v160006INS_9allocatorI3RGBEENS_16reverse_iteratorIPS2_EES6_S2_vEET1_RT_T0_SA_S7_, symObjAddr: 0x392E8, symBinAddr: 0x10003BB20, symSize: 0x78 }
  - { offsetInCU: 0x5D4E8, offset: 0x5D4E8, size: 0x8, addend: 0x0, symName: __ZNSt3__14swapB7v160006IP3RGBEENS_9enable_ifIXaasr21is_move_constructibleIT_EE5valuesr18is_move_assignableIS4_EE5valueEvE4typeERS4_S7_, symObjAddr: 0x393AC, symBinAddr: 0x10003BBE4, symSize: 0x3C }
  - { offsetInCU: 0x5D53A, offset: 0x5D53A, size: 0x8, addend: 0x0, symName: __ZNSt3__125__debug_db_invalidate_allB7v160006INS_6vectorI3RGBNS_9allocatorIS2_EEEEEEvPT_, symObjAddr: 0x394B0, symBinAddr: 0x10003BCE8, symSize: 0x10 }
  - { offsetInCU: 0x5D56B, offset: 0x5D56B, size: 0x8, addend: 0x0, symName: __ZNSt3__14moveB7v160006INS_16reverse_iteratorIP3RGBEES4_EET0_T_S6_S5_, symObjAddr: 0x394C0, symBinAddr: 0x10003BCF8, symSize: 0x78 }
  - { offsetInCU: 0x5D5C5, offset: 0x5D5C5, size: 0x8, addend: 0x0, symName: __ZNSt3__16__moveB7v160006INS_17_ClassicAlgPolicyENS_16reverse_iteratorIP3RGBEES5_S5_EENS_4pairIT0_T2_EES7_T1_S8_, symObjAddr: 0x39538, symBinAddr: 0x10003BD70, symSize: 0x64 }
  - { offsetInCU: 0x5D631, offset: 0x5D631, size: 0x8, addend: 0x0, symName: __ZNSt3__123__dispatch_copy_or_moveB7v160006INS_17_ClassicAlgPolicyENS_11__move_loopIS1_EENS_14__move_trivialENS_16reverse_iteratorIP3RGBEES8_S8_EENS_4pairIT2_T4_EESA_T3_SB_, symObjAddr: 0x3959C, symBinAddr: 0x10003BDD4, symSize: 0x64 }
  - { offsetInCU: 0x5D6AF, offset: 0x5D6AF, size: 0x8, addend: 0x0, symName: __ZNSt3__121__unwrap_and_dispatchB7v160006INS_10__overloadINS_11__move_loopINS_17_ClassicAlgPolicyEEENS_14__move_trivialEEENS_16reverse_iteratorIP3RGBEESA_SA_Li0EEENS_4pairIT0_T2_EESC_T1_SD_, symObjAddr: 0x39600, symBinAddr: 0x10003BE38, symSize: 0x12C }
  - { offsetInCU: 0x5D73F, offset: 0x5D73F, size: 0x8, addend: 0x0, symName: __ZNSt3__114__unwrap_rangeB7v160006INS_16reverse_iteratorIP3RGBEES4_EENS_4pairIT0_S6_EET_S8_, symObjAddr: 0x3972C, symBinAddr: 0x10003BF64, symSize: 0x84 }
  - { offsetInCU: 0x5D85F, offset: 0x5D85F, size: 0x8, addend: 0x0, symName: __ZNSt3__113__unwrap_iterB7v160006INS_16reverse_iteratorIP3RGBEENS_18__unwrap_iter_implIS4_Lb0EEELi0EEEDTclsrT0_8__unwrapclsr3stdE7declvalIT_EEEES8_, symObjAddr: 0x39858, symBinAddr: 0x10003C090, symSize: 0x44 }
  - { offsetInCU: 0x5D8A3, offset: 0x5D8A3, size: 0x8, addend: 0x0, symName: __ZNSt3__19make_pairB7v160006INS_16reverse_iteratorIP3RGBEES4_EENS_4pairINS_18__unwrap_ref_decayIT_E4typeENS6_IT0_E4typeEEEOS7_OSA_, symObjAddr: 0x3989C, symBinAddr: 0x10003C0D4, symSize: 0x38 }
  - { offsetInCU: 0x5D8F2, offset: 0x5D8F2, size: 0x8, addend: 0x0, symName: __ZNSt3__114__rewrap_rangeB7v160006INS_16reverse_iteratorIP3RGBEES4_EET_S5_T0_, symObjAddr: 0x398D4, symBinAddr: 0x10003C10C, symSize: 0x5C }
  - { offsetInCU: 0x5D93E, offset: 0x5D93E, size: 0x8, addend: 0x0, symName: __ZNSt3__113__rewrap_iterB7v160006INS_16reverse_iteratorIP3RGBEES4_NS_18__unwrap_iter_implIS4_Lb0EEEEET_S7_T0_, symObjAddr: 0x39930, symBinAddr: 0x10003C168, symSize: 0x74 }
  - { offsetInCU: 0x5D993, offset: 0x5D993, size: 0x8, addend: 0x0, symName: __ZNSt3__1neB7v160006IP3RGBS2_EEbRKNS_16reverse_iteratorIT_EERKNS3_IT0_EE, symObjAddr: 0x399A4, symBinAddr: 0x10003C1DC, symSize: 0x48 }
  - { offsetInCU: 0x5DA4C, offset: 0x5DA4C, size: 0x8, addend: 0x0, symName: __ZNSt3__118__debug_db_erase_cB7v160006INS_6vectorINS1_I3RGBNS_9allocatorIS2_EEEENS3_IS5_EEEEEEvPT_, symObjAddr: 0x39F4C, symBinAddr: 0x10003C784, symSize: 0x10 }
  - { offsetInCU: 0x5DB63, offset: 0x5DB63, size: 0x8, addend: 0x0, symName: __ZNSt3__119__debug_db_insert_cB7v160006INS_6vectorINS_6threadENS_9allocatorIS2_EEEEEEvPT_, symObjAddr: 0x3A818, symBinAddr: 0x10003D050, symSize: 0x10 }
  - { offsetInCU: 0x5DF91, offset: 0x5DF91, size: 0x8, addend: 0x0, symName: __ZNSt3__122__libcpp_thread_createB7v160006EPP17_opaque_pthread_tPFPvS3_ES3_, symObjAddr: 0x3B108, symBinAddr: 0x10003D940, symSize: 0x38 }
  - { offsetInCU: 0x5DFDD, offset: 0x5DFDD, size: 0x8, addend: 0x0, symName: __ZNSt3__114__thread_proxyB7v160006INS_5tupleIJNS_10unique_ptrINS_15__thread_structENS_14default_deleteIS3_EEEEZN7ManagerC1EiEUlvE_EEEEEPvSA_, symObjAddr: 0x3B140, symBinAddr: 0x10003D978, symSize: 0x90 }
  - { offsetInCU: 0x5E124, offset: 0x5E124, size: 0x8, addend: 0x0, symName: __ZNSt3__13getB7v160006ILm0EJNS_10unique_ptrINS_15__thread_structENS_14default_deleteIS2_EEEEZN7ManagerC1EiEUlvE_EEERNS_13tuple_elementIXT_ENS_5tupleIJDpT0_EEEE4typeERSC_, symObjAddr: 0x3B7F4, symBinAddr: 0x10003E02C, symSize: 0x24 }
  - { offsetInCU: 0x5E16C, offset: 0x5E16C, size: 0x8, addend: 0x0, symName: __ZNSt3__116__thread_executeB7v160006INS_10unique_ptrINS_15__thread_structENS_14default_deleteIS2_EEEEZN7ManagerC1EiEUlvE_JEJEEEvRNS_5tupleIJT_T0_DpT1_EEENS_15__tuple_indicesIJXspT2_EEEE, symObjAddr: 0x3B818, symBinAddr: 0x10003E050, symSize: 0x28 }
  - { offsetInCU: 0x5E1BE, offset: 0x5E1BE, size: 0x8, addend: 0x0, symName: __ZNSt3__116__libcpp_tls_setB7v160006EmPv, symObjAddr: 0x3B840, symBinAddr: 0x10003E078, symSize: 0x2C }
  - { offsetInCU: 0x5E1FB, offset: 0x5E1FB, size: 0x8, addend: 0x0, symName: __ZNSt3__18__invokeB7v160006IZN7ManagerC1EiEUlvE_JEEEDTclclsr3stdE7declvalIT_EEspclsr3stdE7declvalIT0_EEEEOS3_DpOS4_, symObjAddr: 0x3B880, symBinAddr: 0x10003E0B8, symSize: 0x24 }
  - { offsetInCU: 0x5E233, offset: 0x5E233, size: 0x8, addend: 0x0, symName: __ZNSt3__13getB7v160006ILm1EJNS_10unique_ptrINS_15__thread_structENS_14default_deleteIS2_EEEEZN7ManagerC1EiEUlvE_EEERNS_13tuple_elementIXT_ENS_5tupleIJDpT0_EEEE4typeERSC_, symObjAddr: 0x3B8A4, symBinAddr: 0x10003E0DC, symSize: 0x28 }
  - { offsetInCU: 0x5E27C, offset: 0x5E27C, size: 0x8, addend: 0x0, symName: __ZNSt3__14swapB7v160006IPNS_10__function6__baseIFvvEEEEENS_9enable_ifIXaasr21is_move_constructibleIT_EE5valuesr18is_move_assignableIS7_EE5valueEvE4typeERS7_SA_, symObjAddr: 0x3C300, symBinAddr: 0x10003EB38, symSize: 0x3C }
  - { offsetInCU: 0x5E2CE, offset: 0x5E2CE, size: 0x8, addend: 0x0, symName: __ZNSt3__112__to_addressB7v160006INS_8functionIFvvEEEEEPT_S5_, symObjAddr: 0x3C43C, symBinAddr: 0x10003EC74, symSize: 0x14 }
  - { offsetInCU: 0x5E304, offset: 0x5E304, size: 0x8, addend: 0x0, symName: __ZNSt3__125__throw_bad_function_callB7v160006Ev, symObjAddr: 0x3C770, symBinAddr: 0x10003EFA8, symSize: 0x38 }
  - { offsetInCU: 0x5E355, offset: 0x5E355, size: 0x8, addend: 0x0, symName: __ZNSt3__112__to_addressB7v160006INS_6threadEEEPT_S3_, symObjAddr: 0x3CEF0, symBinAddr: 0x10003F728, symSize: 0x14 }
  - { offsetInCU: 0x5E38A, offset: 0x5E38A, size: 0x8, addend: 0x0, symName: __ZNSt3__119__allocate_at_leastB7v160006INS_9allocatorINS_6threadEEEEENS_19__allocation_resultINS_16allocator_traitsIT_E7pointerEEERS6_m, symObjAddr: 0x3D584, symBinAddr: 0x10003FDBC, symSize: 0x40 }
  - { offsetInCU: 0x5E3CD, offset: 0x5E3CD, size: 0x8, addend: 0x0, symName: __ZNSt3__142__uninitialized_allocator_move_if_noexceptB7v160006INS_9allocatorINS_6threadEEENS_16reverse_iteratorIPS2_EES6_S6_EET2_RT_T0_T1_S7_, symObjAddr: 0x3D7F0, symBinAddr: 0x100040028, symSize: 0x12C }
  - { offsetInCU: 0x5E46E, offset: 0x5E46E, size: 0x8, addend: 0x0, symName: __ZNSt3__14swapB7v160006IPNS_6threadEEENS_9enable_ifIXaasr21is_move_constructibleIT_EE5valuesr18is_move_assignableIS4_EE5valueEvE4typeERS4_S7_, symObjAddr: 0x3D968, symBinAddr: 0x1000401A0, symSize: 0x3C }
  - { offsetInCU: 0x5E4C0, offset: 0x5E4C0, size: 0x8, addend: 0x0, symName: __ZNSt3__125__debug_db_invalidate_allB7v160006INS_6vectorINS_6threadENS_9allocatorIS2_EEEEEEvPT_, symObjAddr: 0x3DA50, symBinAddr: 0x100040288, symSize: 0x10 }
  - { offsetInCU: 0x5E4F1, offset: 0x5E4F1, size: 0x8, addend: 0x0, symName: __ZNSt3__122__make_exception_guardB7v160006INS_29_AllocatorDestroyRangeReverseINS_9allocatorINS_6threadEEENS_16reverse_iteratorIPS3_EEEEEENS_28__exception_guard_exceptionsIT_EESA_, symObjAddr: 0x3DAA8, symBinAddr: 0x1000402E0, symSize: 0x4C }
  - { offsetInCU: 0x5E527, offset: 0x5E527, size: 0x8, addend: 0x0, symName: __ZNSt3__1neB7v160006IPNS_6threadES2_EEbRKNS_16reverse_iteratorIT_EERKNS3_IT0_EE, symObjAddr: 0x3DB38, symBinAddr: 0x100040370, symSize: 0x48 }
  - { offsetInCU: 0x5E573, offset: 0x5E573, size: 0x8, addend: 0x0, symName: __ZNSt3__112__to_addressB7v160006INS_16reverse_iteratorIPNS_6threadEEEvEENS_5decayIDTclsr19__to_address_helperIT_EE6__callclsr3stdE7declvalIRKS6_EEEEE4typeES8_, symObjAddr: 0x3DB80, symBinAddr: 0x1000403B8, symSize: 0x24 }
  - { offsetInCU: 0x5E5D3, offset: 0x5E5D3, size: 0x8, addend: 0x0, symName: __ZNSt3__119__allocator_destroyB7v160006INS_9allocatorINS_6threadEEENS_16reverse_iteratorINS4_IPS2_EEEES7_EEvRT_T0_T1_, symObjAddr: 0x3DE30, symBinAddr: 0x100040668, symSize: 0x70 }
  - { offsetInCU: 0x5E638, offset: 0x5E638, size: 0x8, addend: 0x0, symName: __ZNSt3__1neB7v160006INS_16reverse_iteratorIPNS_6threadEEES4_EEbRKNS1_IT_EERKNS1_IT0_EE, symObjAddr: 0x3DEDC, symBinAddr: 0x100040714, symSize: 0x60 }
  - { offsetInCU: 0x5E684, offset: 0x5E684, size: 0x8, addend: 0x0, symName: __ZNSt3__112__to_addressB7v160006INS_16reverse_iteratorINS1_IPNS_6threadEEEEEvEENS_5decayIDTclsr19__to_address_helperIT_EE6__callclsr3stdE7declvalIRKS7_EEEEE4typeES9_, symObjAddr: 0x3DF68, symBinAddr: 0x1000407A0, symSize: 0x24 }
  - { offsetInCU: 0x5E6E4, offset: 0x5E6E4, size: 0x8, addend: 0x0, symName: __ZNSt3__1neB7v160006ERKNS_16__deque_iteratorINS_8functionIFvvEEEPS3_RS3_PS4_lLl128EEES9_, symObjAddr: 0x3E790, symBinAddr: 0x100040FC8, symSize: 0x34 }
  - { offsetInCU: 0x5E721, offset: 0x5E721, size: 0x8, addend: 0x0, symName: __ZNSt3__1eqB7v160006ERKNS_16__deque_iteratorINS_8functionIFvvEEEPS3_RS3_PS4_lLl128EEES9_, symObjAddr: 0x3E904, symBinAddr: 0x10004113C, symSize: 0x30 }
  - { offsetInCU: 0x5E75F, offset: 0x5E75F, size: 0x8, addend: 0x0, symName: __ZNSt3__112__to_addressB7v160006IPNS_8functionIFvvEEEEEPT_S6_, symObjAddr: 0x3EB5C, symBinAddr: 0x100041394, symSize: 0x14 }
  - { offsetInCU: 0x5EC7E, offset: 0x5EC7E, size: 0x8, addend: 0x0, symName: __ZNSt3__14swapB7v160006IPPNS_8functionIFvvEEEEENS_9enable_ifIXaasr21is_move_constructibleIT_EE5valuesr18is_move_assignableIS7_EE5valueEvE4typeERS7_SA_, symObjAddr: 0x3FF2C, symBinAddr: 0x100042764, symSize: 0x3C }
  - { offsetInCU: 0x5ECCF, offset: 0x5ECCF, size: 0x8, addend: 0x0, symName: __ZNSt3__14moveB7v160006IPPNS_8functionIFvvEEES5_EET0_T_S7_S6_, symObjAddr: 0x40010, symBinAddr: 0x100042848, symSize: 0x40 }
  - { offsetInCU: 0x5ED29, offset: 0x5ED29, size: 0x8, addend: 0x0, symName: __ZNSt3__16__moveB7v160006INS_17_ClassicAlgPolicyEPPNS_8functionIFvvEEES6_S6_EENS_4pairIT0_T2_EES8_T1_S9_, symObjAddr: 0x401B4, symBinAddr: 0x1000429EC, symSize: 0x44 }
  - { offsetInCU: 0x5ED95, offset: 0x5ED95, size: 0x8, addend: 0x0, symName: __ZNSt3__123__dispatch_copy_or_moveB7v160006INS_17_ClassicAlgPolicyENS_11__move_loopIS1_EENS_14__move_trivialEPPNS_8functionIFvvEEES9_S9_EENS_4pairIT2_T4_EESB_T3_SC_, symObjAddr: 0x401F8, symBinAddr: 0x100042A30, symSize: 0x44 }
  - { offsetInCU: 0x5EE13, offset: 0x5EE13, size: 0x8, addend: 0x0, symName: __ZNSt3__121__unwrap_and_dispatchB7v160006INS_10__overloadINS_11__move_loopINS_17_ClassicAlgPolicyEEENS_14__move_trivialEEEPPNS_8functionIFvvEEESB_SB_Li0EEENS_4pairIT0_T2_EESD_T1_SE_, symObjAddr: 0x4023C, symBinAddr: 0x100042A74, symSize: 0xB4 }
  - { offsetInCU: 0x5EEA1, offset: 0x5EEA1, size: 0x8, addend: 0x0, symName: __ZNSt3__114__unwrap_rangeB7v160006IPPNS_8functionIFvvEEES5_EENS_4pairIT0_S7_EET_S9_, symObjAddr: 0x402F0, symBinAddr: 0x100042B28, symSize: 0x60 }
  - { offsetInCU: 0x5F065, offset: 0x5F065, size: 0x8, addend: 0x0, symName: __ZNSt3__113__unwrap_iterB7v160006IPPNS_8functionIFvvEEENS_18__unwrap_iter_implIS5_Lb1EEELi0EEEDTclsrT0_8__unwrapclsr3stdE7declvalIT_EEEES9_, symObjAddr: 0x40398, symBinAddr: 0x100042BD0, symSize: 0x24 }
  - { offsetInCU: 0x5F0A9, offset: 0x5F0A9, size: 0x8, addend: 0x0, symName: __ZNSt3__19make_pairB7v160006IPPNS_8functionIFvvEEES5_EENS_4pairINS_18__unwrap_ref_decayIT_E4typeENS7_IT0_E4typeEEEOS8_OSB_, symObjAddr: 0x403BC, symBinAddr: 0x100042BF4, symSize: 0x38 }
  - { offsetInCU: 0x5F0F8, offset: 0x5F0F8, size: 0x8, addend: 0x0, symName: __ZNSt3__114__rewrap_rangeB7v160006IPPNS_8functionIFvvEEES5_EET_S6_T0_, symObjAddr: 0x403F4, symBinAddr: 0x100042C2C, symSize: 0x2C }
  - { offsetInCU: 0x5F144, offset: 0x5F144, size: 0x8, addend: 0x0, symName: __ZNSt3__113__rewrap_iterB7v160006IPPNS_8functionIFvvEEES5_NS_18__unwrap_iter_implIS5_Lb1EEEEET_S8_T0_, symObjAddr: 0x40420, symBinAddr: 0x100042C58, symSize: 0x3C }
  - { offsetInCU: 0x5F199, offset: 0x5F199, size: 0x8, addend: 0x0, symName: __ZNSt3__119__copy_trivial_implB7v160006IPNS_8functionIFvvEEES4_EENS_4pairIPT_PT0_EES7_S7_S9_, symObjAddr: 0x4045C, symBinAddr: 0x100042C94, symSize: 0x84 }
  - { offsetInCU: 0x5F201, offset: 0x5F201, size: 0x8, addend: 0x0, symName: __ZNSt3__19make_pairB7v160006IRPPNS_8functionIFvvEEES5_EENS_4pairINS_18__unwrap_ref_decayIT_E4typeENS8_IT0_E4typeEEEOS9_OSC_, symObjAddr: 0x404E0, symBinAddr: 0x100042D18, symSize: 0x38 }
  - { offsetInCU: 0x5F2A3, offset: 0x5F2A3, size: 0x8, addend: 0x0, symName: __ZNSt3__18distanceB7v160006INS_13move_iteratorIPPNS_8functionIFvvEEEEEEENS_15iterator_traitsIT_E15difference_typeES9_S9_, symObjAddr: 0x4066C, symBinAddr: 0x100042EA4, symSize: 0x3C }
  - { offsetInCU: 0x5F2E6, offset: 0x5F2E6, size: 0x8, addend: 0x0, symName: __ZNSt3__110__distanceB7v160006INS_13move_iteratorIPPNS_8functionIFvvEEEEEEENS_15iterator_traitsIT_E15difference_typeES9_S9_NS_26random_access_iterator_tagE, symObjAddr: 0x407A4, symBinAddr: 0x100042FDC, symSize: 0x30 }
  - { offsetInCU: 0x5F334, offset: 0x5F334, size: 0x8, addend: 0x0, symName: __ZNSt3__1miB7v160006IPPNS_8functionIFvvEEES5_EEDTmicldtfp_4baseEcldtfp0_4baseEERKNS_13move_iteratorIT_EERKNS7_IT0_EE, symObjAddr: 0x407D4, symBinAddr: 0x10004300C, symSize: 0x48 }
  - { offsetInCU: 0x5F383, offset: 0x5F383, size: 0x8, addend: 0x0, symName: __ZNSt3__113move_backwardB7v160006IPPNS_8functionIFvvEEES5_EET0_T_S7_S6_, symObjAddr: 0x409D8, symBinAddr: 0x100043210, symSize: 0x40 }
  - { offsetInCU: 0x5F3DD, offset: 0x5F3DD, size: 0x8, addend: 0x0, symName: __ZNSt3__115__move_backwardB7v160006INS_17_ClassicAlgPolicyEPPNS_8functionIFvvEEES6_S6_EENS_4pairIT0_T2_EES8_T1_S9_, symObjAddr: 0x40A18, symBinAddr: 0x100043250, symSize: 0x44 }
  - { offsetInCU: 0x5F449, offset: 0x5F449, size: 0x8, addend: 0x0, symName: __ZNSt3__123__dispatch_copy_or_moveB7v160006INS_17_ClassicAlgPolicyENS_20__move_backward_loopIS1_EENS_23__move_backward_trivialEPPNS_8functionIFvvEEES9_S9_EENS_4pairIT2_T4_EESB_T3_SC_, symObjAddr: 0x40A5C, symBinAddr: 0x100043294, symSize: 0x44 }
  - { offsetInCU: 0x5F4C7, offset: 0x5F4C7, size: 0x8, addend: 0x0, symName: __ZNSt3__121__unwrap_and_dispatchB7v160006INS_10__overloadINS_20__move_backward_loopINS_17_ClassicAlgPolicyEEENS_23__move_backward_trivialEEEPPNS_8functionIFvvEEESB_SB_Li0EEENS_4pairIT0_T2_EESD_T1_SE_, symObjAddr: 0x40AA0, symBinAddr: 0x1000432D8, symSize: 0xB4 }
  - { offsetInCU: 0x5F59B, offset: 0x5F59B, size: 0x8, addend: 0x0, symName: __ZNSt3__128__copy_backward_trivial_implB7v160006IPNS_8functionIFvvEEES4_EENS_4pairIPT_PT0_EES7_S7_S9_, symObjAddr: 0x40B9C, symBinAddr: 0x1000433D4, symSize: 0x94 }
  - { offsetInCU: 0x5F603, offset: 0x5F603, size: 0x8, addend: 0x0, symName: __ZNSt3__19make_pairB7v160006IRPPNS_8functionIFvvEEES6_EENS_4pairINS_18__unwrap_ref_decayIT_E4typeENS8_IT0_E4typeEEEOS9_OSC_, symObjAddr: 0x40C30, symBinAddr: 0x100043468, symSize: 0x38 }
  - { offsetInCU: 0x5F652, offset: 0x5F652, size: 0x8, addend: 0x0, symName: __ZNSt3__119__allocate_at_leastB7v160006INS_9allocatorIPNS_8functionIFvvEEEEEEENS_19__allocation_resultINS_16allocator_traitsIT_E7pointerEEERS9_m, symObjAddr: 0x40DE8, symBinAddr: 0x100043620, symSize: 0x40 }
  - { offsetInCU: 0x5FCDC, offset: 0x5FCDC, size: 0x8, addend: 0x0, symName: __ZNSt3__116forward_as_tupleB7v160006IJZN9_Renderer9renderCPUEiEUlvE_EEENS_5tupleIJDpOT_EEES6_, symObjAddr: 0x41EDC, symBinAddr: 0x100044714, symSize: 0x2C }
  - { offsetInCU: 0x5FD15, offset: 0x5FD15, size: 0x8, addend: 0x0, symName: __ZNSt3__116forward_as_tupleB7v160006IJNS_9allocatorIZN9_Renderer9renderCPUEiEUlvE_EEEEENS_5tupleIJDpOT_EEES8_, symObjAddr: 0x41F08, symBinAddr: 0x100044740, symSize: 0x2C }
  - { offsetInCU: 0x5FD78, offset: 0x5FD78, size: 0x8, addend: 0x0, symName: __ZNSt3__13getB7v160006ILm0EJOZN9_Renderer9renderCPUEiEUlvE_EEERNS_13tuple_elementIXT_ENS_5tupleIJDpT0_EEEE4typeERS8_, symObjAddr: 0x42228, symBinAddr: 0x100044A60, symSize: 0x24 }
  - { offsetInCU: 0x5FDBA, offset: 0x5FDBA, size: 0x8, addend: 0x0, symName: __ZNSt3__13getB7v160006ILm0EJONS_9allocatorIZN9_Renderer9renderCPUEiEUlvE_EEEEERNS_13tuple_elementIXT_ENS_5tupleIJDpT0_EEEE4typeERSA_, symObjAddr: 0x42264, symBinAddr: 0x100044A9C, symSize: 0x24 }
  - { offsetInCU: 0x5FF88, offset: 0x5FF88, size: 0x8, addend: 0x0, symName: __ZNSt3__116forward_as_tupleB7v160006IJRKZN9_Renderer9renderCPUEiEUlvE_EEENS_5tupleIJDpOT_EEES8_, symObjAddr: 0x42660, symBinAddr: 0x100044E98, symSize: 0x2C }
  - { offsetInCU: 0x5FFD6, offset: 0x5FFD6, size: 0x8, addend: 0x0, symName: __ZNSt3__13getB7v160006ILm0EJRKZN9_Renderer9renderCPUEiEUlvE_EEERNS_13tuple_elementIXT_ENS_5tupleIJDpT0_EEEE4typeERS9_, symObjAddr: 0x42858, symBinAddr: 0x100045090, symSize: 0x24 }
  - { offsetInCU: 0x60018, offset: 0x60018, size: 0x8, addend: 0x0, symName: __ZNSt3__116forward_as_tupleB7v160006IJRKNS_9allocatorIZN9_Renderer9renderCPUEiEUlvE_EEEEENS_5tupleIJDpOT_EEESA_, symObjAddr: 0x42BB4, symBinAddr: 0x1000453EC, symSize: 0x2C }
  - { offsetInCU: 0x60066, offset: 0x60066, size: 0x8, addend: 0x0, symName: __ZNSt3__13getB7v160006ILm0EJRKNS_9allocatorIZN9_Renderer9renderCPUEiEUlvE_EEEEERNS_13tuple_elementIXT_ENS_5tupleIJDpT0_EEEE4typeERSB_, symObjAddr: 0x42D98, symBinAddr: 0x1000455D0, symSize: 0x24 }
  - { offsetInCU: 0x600F9, offset: 0x600F9, size: 0x8, addend: 0x0, symName: __ZNSt3__18__invokeB7v160006IRZN9_Renderer9renderCPUEiEUlvE_JEEEDTclclsr3stdE7declvalIT_EEspclsr3stdE7declvalIT0_EEEEOS4_DpOS5_, symObjAddr: 0x42E54, symBinAddr: 0x10004568C, symSize: 0x24 }
  - { offsetInCU: 0x60304, offset: 0x60304, size: 0x8, addend: 0x0, symName: __ZNSt3__118generate_canonicalB7v160006IfLm24ENS_23mersenne_twister_engineIjLm32ELm624ELm397ELm31ELj2567483615ELm11ELj4294967295ELm7ELj2636928640ELm15ELj4022730752ELm18ELj1812433253EEEEET_RT1_, symObjAddr: 0x44314, symBinAddr: 0x100046B4C, symSize: 0x118 }
  - { offsetInCU: 0x60A06, offset: 0x60A06, size: 0x8, addend: 0x0, symName: __ZNSt3__116forward_as_tupleB7v160006IJZN9_Renderer9renderCPUEiEUlvE0_EEENS_5tupleIJDpOT_EEES6_, symObjAddr: 0x472CC, symBinAddr: 0x100049B04, symSize: 0x2C }
  - { offsetInCU: 0x60A3F, offset: 0x60A3F, size: 0x8, addend: 0x0, symName: __ZNSt3__116forward_as_tupleB7v160006IJNS_9allocatorIZN9_Renderer9renderCPUEiEUlvE0_EEEEENS_5tupleIJDpOT_EEES8_, symObjAddr: 0x472F8, symBinAddr: 0x100049B30, symSize: 0x2C }
  - { offsetInCU: 0x60AA2, offset: 0x60AA2, size: 0x8, addend: 0x0, symName: __ZNSt3__13getB7v160006ILm0EJOZN9_Renderer9renderCPUEiEUlvE0_EEERNS_13tuple_elementIXT_ENS_5tupleIJDpT0_EEEE4typeERS8_, symObjAddr: 0x47618, symBinAddr: 0x100049E50, symSize: 0x24 }
  - { offsetInCU: 0x60AE4, offset: 0x60AE4, size: 0x8, addend: 0x0, symName: __ZNSt3__13getB7v160006ILm0EJONS_9allocatorIZN9_Renderer9renderCPUEiEUlvE0_EEEEERNS_13tuple_elementIXT_ENS_5tupleIJDpT0_EEEE4typeERSA_, symObjAddr: 0x47654, symBinAddr: 0x100049E8C, symSize: 0x24 }
  - { offsetInCU: 0x60CB2, offset: 0x60CB2, size: 0x8, addend: 0x0, symName: __ZNSt3__116forward_as_tupleB7v160006IJRKZN9_Renderer9renderCPUEiEUlvE0_EEENS_5tupleIJDpOT_EEES8_, symObjAddr: 0x47A50, symBinAddr: 0x10004A288, symSize: 0x2C }
  - { offsetInCU: 0x60D00, offset: 0x60D00, size: 0x8, addend: 0x0, symName: __ZNSt3__13getB7v160006ILm0EJRKZN9_Renderer9renderCPUEiEUlvE0_EEERNS_13tuple_elementIXT_ENS_5tupleIJDpT0_EEEE4typeERS9_, symObjAddr: 0x47C48, symBinAddr: 0x10004A480, symSize: 0x24 }
  - { offsetInCU: 0x60D42, offset: 0x60D42, size: 0x8, addend: 0x0, symName: __ZNSt3__116forward_as_tupleB7v160006IJRKNS_9allocatorIZN9_Renderer9renderCPUEiEUlvE0_EEEEENS_5tupleIJDpOT_EEESA_, symObjAddr: 0x47FA4, symBinAddr: 0x10004A7DC, symSize: 0x2C }
  - { offsetInCU: 0x60D90, offset: 0x60D90, size: 0x8, addend: 0x0, symName: __ZNSt3__13getB7v160006ILm0EJRKNS_9allocatorIZN9_Renderer9renderCPUEiEUlvE0_EEEEERNS_13tuple_elementIXT_ENS_5tupleIJDpT0_EEEE4typeERSB_, symObjAddr: 0x48188, symBinAddr: 0x10004A9C0, symSize: 0x24 }
  - { offsetInCU: 0x60DD2, offset: 0x60DD2, size: 0x8, addend: 0x0, symName: __ZNSt3__18__invokeB7v160006IRZN9_Renderer9renderCPUEiEUlvE0_JEEEDTclclsr3stdE7declvalIT_EEspclsr3stdE7declvalIT0_EEEEOS4_DpOS5_, symObjAddr: 0x48244, symBinAddr: 0x10004AA7C, symSize: 0x24 }
  - { offsetInCU: 0x60E0A, offset: 0x60E0A, size: 0x8, addend: 0x0, symName: __ZNSt3__1neB7v160006IPNS_6threadEEEbRKNS_11__wrap_iterIT_EES7_, symObjAddr: 0x4845C, symBinAddr: 0x10004AC94, symSize: 0x34 }
  - { offsetInCU: 0x60E4D, offset: 0x60E4D, size: 0x8, addend: 0x0, symName: __ZNSt3__1eqB7v160006IPNS_6threadEEEbRKNS_11__wrap_iterIT_EES7_, symObjAddr: 0x485DC, symBinAddr: 0x10004AE14, symSize: 0x48 }
  - { offsetInCU: 0x60E91, offset: 0x60E91, size: 0x8, addend: 0x0, symName: __ZNSt3__118__debug_db_erase_cB7v160006INS_6vectorINS_6threadENS_9allocatorIS2_EEEEEEvPT_, symObjAddr: 0x48A78, symBinAddr: 0x10004B2B0, symSize: 0x10 }
  - { offsetInCU: 0x60EC2, offset: 0x60EC2, size: 0x8, addend: 0x0, symName: __ZNSt3__116__pad_and_outputB7v160006IcNS_11char_traitsIcEEEENS_19ostreambuf_iteratorIT_T0_EES6_PKS4_S8_S8_RNS_8ios_baseES4_, symObjAddr: 0x48F2C, symBinAddr: 0x10004B764, symSize: 0x240 }
  - { offsetInCU: 0x60F91, offset: 0x60F91, size: 0x8, addend: 0x0, symName: __ZNSt3__19use_facetB7v160006INS_5ctypeIcEEEERKT_RKNS_6localeE, symObjAddr: 0x49478, symBinAddr: 0x10004BCB0, symSize: 0x2C }
  - { offsetInCU: 0x61460, offset: 0x61460, size: 0x8, addend: 0x0, symName: __ZNSt3__118__constexpr_strlenB7v160006EPKc, symObjAddr: 0x494DC, symBinAddr: 0x10004BD14, symSize: 0x24 }
  - { offsetInCU: 0x6148C, offset: 0x6148C, size: 0x8, addend: 0x0, symName: __ZNSt3__122__make_exception_guardB7v160006INS_6vectorIhNS_9allocatorIhEEE16__destroy_vectorEEENS_28__exception_guard_exceptionsIT_EES7_, symObjAddr: 0x49838, symBinAddr: 0x10004C070, symSize: 0x40 }
  - { offsetInCU: 0x614C2, offset: 0x614C2, size: 0x8, addend: 0x0, symName: __ZNSt3__119__debug_db_insert_cB7v160006INS_6vectorIhNS_9allocatorIhEEEEEEvPT_, symObjAddr: 0x498AC, symBinAddr: 0x10004C0E4, symSize: 0x10 }
  - { offsetInCU: 0x614F3, offset: 0x614F3, size: 0x8, addend: 0x0, symName: __ZNSt3__119__allocate_at_leastB7v160006INS_9allocatorIhEEEENS_19__allocation_resultINS_16allocator_traitsIT_E7pointerEEERS5_m, symObjAddr: 0x49C34, symBinAddr: 0x10004C46C, symSize: 0x40 }
  - { offsetInCU: 0x61537, offset: 0x61537, size: 0x8, addend: 0x0, symName: __ZNSt3__112__to_addressB7v160006IhEEPT_S2_, symObjAddr: 0x49F50, symBinAddr: 0x10004C788, symSize: 0x14 }
  - { offsetInCU: 0x6156D, offset: 0x6156D, size: 0x8, addend: 0x0, symName: __ZNSt3__118__debug_db_erase_cB7v160006INS_6vectorIhNS_9allocatorIhEEEEEEvPT_, symObjAddr: 0x4A27C, symBinAddr: 0x10004CAB4, symSize: 0x10 }
  - { offsetInCU: 0x6159F, offset: 0x6159F, size: 0x8, addend: 0x0, symName: __ZNSt3__119__debug_db_insert_cB7v160006INS_6vectorI4Vec3NS_9allocatorIS2_EEEEEEvPT_, symObjAddr: 0x4A624, symBinAddr: 0x10004CE5C, symSize: 0x10 }
  - { offsetInCU: 0x615D1, offset: 0x615D1, size: 0x8, addend: 0x0, symName: __ZNSt3__118__debug_db_erase_cB7v160006INS_6vectorI4Vec3NS_9allocatorIS2_EEEEEEvPT_, symObjAddr: 0x4A904, symBinAddr: 0x10004D13C, symSize: 0x10 }
  - { offsetInCU: 0x61603, offset: 0x61603, size: 0x8, addend: 0x0, symName: __ZNSt3__119__debug_db_insert_cB7v160006INS_6vectorI4FaceNS_9allocatorIS2_EEEEEEvPT_, symObjAddr: 0x4A9A8, symBinAddr: 0x10004D1E0, symSize: 0x10 }
  - { offsetInCU: 0x61635, offset: 0x61635, size: 0x8, addend: 0x0, symName: __ZNSt3__118__debug_db_erase_cB7v160006INS_6vectorI4FaceNS_9allocatorIS2_EEEEEEvPT_, symObjAddr: 0x4AC6C, symBinAddr: 0x10004D4A4, symSize: 0x10 }
  - { offsetInCU: 0x61667, offset: 0x61667, size: 0x8, addend: 0x0, symName: __ZNSt3__112__to_addressB7v160006INS_5tupleIJ4Vec3S2_bEEEEEPT_S5_, symObjAddr: 0x4AEDC, symBinAddr: 0x10004D714, symSize: 0x14 }
  - { offsetInCU: 0x6169C, offset: 0x6169C, size: 0x8, addend: 0x0, symName: __ZNSt3__119__allocate_at_leastB7v160006INS_9allocatorINS_5tupleIJ4Vec3S3_bEEEEEEENS_19__allocation_resultINS_16allocator_traitsIT_E7pointerEEERS8_m, symObjAddr: 0x4B530, symBinAddr: 0x10004DD68, symSize: 0x40 }
  - { offsetInCU: 0x616DF, offset: 0x616DF, size: 0x8, addend: 0x0, symName: __ZNSt3__142__uninitialized_allocator_move_if_noexceptB7v160006INS_9allocatorINS_5tupleIJ4Vec3S3_bEEEEENS_16reverse_iteratorIPS4_EES8_S8_EET2_RT_T0_T1_S9_, symObjAddr: 0x4B7D8, symBinAddr: 0x10004E010, symSize: 0x12C }
  - { offsetInCU: 0x61780, offset: 0x61780, size: 0x8, addend: 0x0, symName: __ZNSt3__14swapB7v160006IPNS_5tupleIJ4Vec3S2_bEEEEENS_9enable_ifIXaasr21is_move_constructibleIT_EE5valuesr18is_move_assignableIS6_EE5valueEvE4typeERS6_S9_, symObjAddr: 0x4B950, symBinAddr: 0x10004E188, symSize: 0x3C }
  - { offsetInCU: 0x617D2, offset: 0x617D2, size: 0x8, addend: 0x0, symName: __ZNSt3__125__debug_db_invalidate_allB7v160006INS_6vectorINS_5tupleIJ4Vec3S3_bEEENS_9allocatorIS4_EEEEEEvPT_, symObjAddr: 0x4BA54, symBinAddr: 0x10004E28C, symSize: 0x10 }
  - { offsetInCU: 0x61803, offset: 0x61803, size: 0x8, addend: 0x0, symName: __ZNSt3__122__make_exception_guardB7v160006INS_29_AllocatorDestroyRangeReverseINS_9allocatorINS_5tupleIJ4Vec3S4_bEEEEENS_16reverse_iteratorIPS5_EEEEEENS_28__exception_guard_exceptionsIT_EESC_, symObjAddr: 0x4BAAC, symBinAddr: 0x10004E2E4, symSize: 0x4C }
  - { offsetInCU: 0x61839, offset: 0x61839, size: 0x8, addend: 0x0, symName: __ZNSt3__1neB7v160006IPNS_5tupleIJ4Vec3S2_bEEES4_EEbRKNS_16reverse_iteratorIT_EERKNS5_IT0_EE, symObjAddr: 0x4BB3C, symBinAddr: 0x10004E374, symSize: 0x48 }
  - { offsetInCU: 0x61885, offset: 0x61885, size: 0x8, addend: 0x0, symName: __ZNSt3__112__to_addressB7v160006INS_16reverse_iteratorIPNS_5tupleIJ4Vec3S3_bEEEEEvEENS_5decayIDTclsr19__to_address_helperIT_EE6__callclsr3stdE7declvalIRKS8_EEEEE4typeESA_, symObjAddr: 0x4BB84, symBinAddr: 0x10004E3BC, symSize: 0x24 }
  - { offsetInCU: 0x618E5, offset: 0x618E5, size: 0x8, addend: 0x0, symName: __ZNSt3__119__allocator_destroyB7v160006INS_9allocatorINS_5tupleIJ4Vec3S3_bEEEEENS_16reverse_iteratorINS6_IPS4_EEEES9_EEvRT_T0_T1_, symObjAddr: 0x4BE34, symBinAddr: 0x10004E66C, symSize: 0x70 }
  - { offsetInCU: 0x6194A, offset: 0x6194A, size: 0x8, addend: 0x0, symName: __ZNSt3__1neB7v160006INS_16reverse_iteratorIPNS_5tupleIJ4Vec3S3_bEEEEES6_EEbRKNS1_IT_EERKNS1_IT0_EE, symObjAddr: 0x4BEE0, symBinAddr: 0x10004E718, symSize: 0x60 }
  - { offsetInCU: 0x61996, offset: 0x61996, size: 0x8, addend: 0x0, symName: __ZNSt3__112__to_addressB7v160006INS_16reverse_iteratorINS1_IPNS_5tupleIJ4Vec3S3_bEEEEEEEvEENS_5decayIDTclsr19__to_address_helperIT_EE6__callclsr3stdE7declvalIRKS9_EEEEE4typeESB_, symObjAddr: 0x4BF6C, symBinAddr: 0x10004E7A4, symSize: 0x24 }
  - { offsetInCU: 0x619F7, offset: 0x619F7, size: 0x8, addend: 0x0, symName: __ZNSt3__119__debug_db_insert_cB7v160006INS_6vectorIN7tinyobj13skin_weight_tENS_9allocatorIS3_EEEEEEvPT_, symObjAddr: 0x4C530, symBinAddr: 0x10004ED68, symSize: 0x10 }
  - { offsetInCU: 0x61A29, offset: 0x61A29, size: 0x8, addend: 0x0, symName: __ZNSt3__118__debug_db_erase_cB7v160006INS_6vectorIN7tinyobj13skin_weight_tENS_9allocatorIS3_EEEEEEvPT_, symObjAddr: 0x4C838, symBinAddr: 0x10004F070, symSize: 0x10 }
  - { offsetInCU: 0x61A5B, offset: 0x61A5B, size: 0x8, addend: 0x0, symName: __ZNSt3__112__to_addressB7v160006IN7tinyobj13skin_weight_tEEEPT_S4_, symObjAddr: 0x4C97C, symBinAddr: 0x10004F1B4, symSize: 0x14 }
  - { offsetInCU: 0x61A91, offset: 0x61A91, size: 0x8, addend: 0x0, symName: __ZNSt3__119__debug_db_insert_cB7v160006INS_6vectorIN7tinyobj10material_tENS_9allocatorIS3_EEEEEEvPT_, symObjAddr: 0x4CBDC, symBinAddr: 0x10004F414, symSize: 0x10 }
  - { offsetInCU: 0x61AC3, offset: 0x61AC3, size: 0x8, addend: 0x0, symName: __ZNSt3__118__debug_db_erase_cB7v160006INS_6vectorIN7tinyobj10material_tENS_9allocatorIS3_EEEEEEvPT_, symObjAddr: 0x4CEBC, symBinAddr: 0x10004F6F4, symSize: 0x10 }
  - { offsetInCU: 0x61AF5, offset: 0x61AF5, size: 0x8, addend: 0x0, symName: __ZNSt3__112__to_addressB7v160006IN7tinyobj10material_tEEEPT_S4_, symObjAddr: 0x4CFD8, symBinAddr: 0x10004F810, symSize: 0x14 }
  - { offsetInCU: 0x61B2B, offset: 0x61B2B, size: 0x8, addend: 0x0, symName: __ZNSt3__125__debug_db_invalidate_allB7v160006INS_6vectorIN7tinyobj6face_tENS_9allocatorIS3_EEEEEEvPT_, symObjAddr: 0x4D25C, symBinAddr: 0x10004FA94, symSize: 0x10 }
  - { offsetInCU: 0x61B5D, offset: 0x61B5D, size: 0x8, addend: 0x0, symName: __ZNSt3__112__to_addressB7v160006IN7tinyobj7index_tEEEPT_S4_, symObjAddr: 0x4D444, symBinAddr: 0x10004FC7C, symSize: 0x14 }
  - { offsetInCU: 0x61B92, offset: 0x61B92, size: 0x8, addend: 0x0, symName: __ZNSt3__119__allocate_at_leastB7v160006INS_9allocatorIN7tinyobj7index_tEEEEENS_19__allocation_resultINS_16allocator_traitsIT_E7pointerEEERS7_m, symObjAddr: 0x4D990, symBinAddr: 0x1000501C8, symSize: 0x40 }
  - { offsetInCU: 0x61BD5, offset: 0x61BD5, size: 0x8, addend: 0x0, symName: __ZNSt3__142__uninitialized_allocator_move_if_noexceptB7v160006INS_9allocatorIN7tinyobj7index_tEEENS_16reverse_iteratorIPS3_EES7_S3_vEET1_RT_T0_SB_S8_, symObjAddr: 0x4DC38, symBinAddr: 0x100050470, symSize: 0x78 }
  - { offsetInCU: 0x61C54, offset: 0x61C54, size: 0x8, addend: 0x0, symName: __ZNSt3__14swapB7v160006IPN7tinyobj7index_tEEENS_9enable_ifIXaasr21is_move_constructibleIT_EE5valuesr18is_move_assignableIS5_EE5valueEvE4typeERS5_S8_, symObjAddr: 0x4DCFC, symBinAddr: 0x100050534, symSize: 0x3C }
  - { offsetInCU: 0x61CA6, offset: 0x61CA6, size: 0x8, addend: 0x0, symName: __ZNSt3__125__debug_db_invalidate_allB7v160006INS_6vectorIN7tinyobj7index_tENS_9allocatorIS3_EEEEEEvPT_, symObjAddr: 0x4DE00, symBinAddr: 0x100050638, symSize: 0x10 }
  - { offsetInCU: 0x61CD7, offset: 0x61CD7, size: 0x8, addend: 0x0, symName: __ZNSt3__14moveB7v160006INS_16reverse_iteratorIPN7tinyobj7index_tEEES5_EET0_T_S7_S6_, symObjAddr: 0x4DE58, symBinAddr: 0x100050690, symSize: 0x78 }
  - { offsetInCU: 0x61D31, offset: 0x61D31, size: 0x8, addend: 0x0, symName: __ZNSt3__16__moveB7v160006INS_17_ClassicAlgPolicyENS_16reverse_iteratorIPN7tinyobj7index_tEEES6_S6_EENS_4pairIT0_T2_EES8_T1_S9_, symObjAddr: 0x4DED0, symBinAddr: 0x100050708, symSize: 0x64 }
  - { offsetInCU: 0x61D9D, offset: 0x61D9D, size: 0x8, addend: 0x0, symName: __ZNSt3__123__dispatch_copy_or_moveB7v160006INS_17_ClassicAlgPolicyENS_11__move_loopIS1_EENS_14__move_trivialENS_16reverse_iteratorIPN7tinyobj7index_tEEES9_S9_EENS_4pairIT2_T4_EESB_T3_SC_, symObjAddr: 0x4DF34, symBinAddr: 0x10005076C, symSize: 0x64 }
  - { offsetInCU: 0x61E1B, offset: 0x61E1B, size: 0x8, addend: 0x0, symName: __ZNSt3__121__unwrap_and_dispatchB7v160006INS_10__overloadINS_11__move_loopINS_17_ClassicAlgPolicyEEENS_14__move_trivialEEENS_16reverse_iteratorIPN7tinyobj7index_tEEESB_SB_Li0EEENS_4pairIT0_T2_EESD_T1_SE_, symObjAddr: 0x4DF98, symBinAddr: 0x1000507D0, symSize: 0x12C }
  - { offsetInCU: 0x61EAB, offset: 0x61EAB, size: 0x8, addend: 0x0, symName: __ZNSt3__114__unwrap_rangeB7v160006INS_16reverse_iteratorIPN7tinyobj7index_tEEES5_EENS_4pairIT0_S7_EET_S9_, symObjAddr: 0x4E0C4, symBinAddr: 0x1000508FC, symSize: 0x84 }
  - { offsetInCU: 0x61FCB, offset: 0x61FCB, size: 0x8, addend: 0x0, symName: __ZNSt3__113__unwrap_iterB7v160006INS_16reverse_iteratorIPN7tinyobj7index_tEEENS_18__unwrap_iter_implIS5_Lb0EEELi0EEEDTclsrT0_8__unwrapclsr3stdE7declvalIT_EEEES9_, symObjAddr: 0x4E1F0, symBinAddr: 0x100050A28, symSize: 0x44 }
  - { offsetInCU: 0x6200F, offset: 0x6200F, size: 0x8, addend: 0x0, symName: __ZNSt3__19make_pairB7v160006INS_16reverse_iteratorIPN7tinyobj7index_tEEES5_EENS_4pairINS_18__unwrap_ref_decayIT_E4typeENS7_IT0_E4typeEEEOS8_OSB_, symObjAddr: 0x4E234, symBinAddr: 0x100050A6C, symSize: 0x38 }
  - { offsetInCU: 0x6205E, offset: 0x6205E, size: 0x8, addend: 0x0, symName: __ZNSt3__114__rewrap_rangeB7v160006INS_16reverse_iteratorIPN7tinyobj7index_tEEES5_EET_S6_T0_, symObjAddr: 0x4E26C, symBinAddr: 0x100050AA4, symSize: 0x5C }
  - { offsetInCU: 0x620AA, offset: 0x620AA, size: 0x8, addend: 0x0, symName: __ZNSt3__113__rewrap_iterB7v160006INS_16reverse_iteratorIPN7tinyobj7index_tEEES5_NS_18__unwrap_iter_implIS5_Lb0EEEEET_S8_T0_, symObjAddr: 0x4E2C8, symBinAddr: 0x100050B00, symSize: 0x74 }
  - { offsetInCU: 0x620FF, offset: 0x620FF, size: 0x8, addend: 0x0, symName: __ZNSt3__1neB7v160006IPN7tinyobj7index_tES3_EEbRKNS_16reverse_iteratorIT_EERKNS4_IT0_EE, symObjAddr: 0x4E33C, symBinAddr: 0x100050B74, symSize: 0x48 }
  - { offsetInCU: 0x621B7, offset: 0x621B7, size: 0x8, addend: 0x0, symName: __ZNSt3__142__uninitialized_allocator_move_if_noexceptB7v160006INS_9allocatorINS_12basic_stringIcNS_11char_traitsIcEENS1_IcEEEEEENS_16reverse_iteratorIPS6_EESA_SA_EET2_RT_T0_T1_SB_, symObjAddr: 0x4ECF4, symBinAddr: 0x10005152C, symSize: 0x11C }
  - { offsetInCU: 0x62258, offset: 0x62258, size: 0x8, addend: 0x0, symName: __ZNSt3__14swapB7v160006IPNS_12basic_stringIcNS_11char_traitsIcEENS_9allocatorIcEEEEEENS_9enable_ifIXaasr21is_move_constructibleIT_EE5valuesr18is_move_assignableIS9_EE5valueEvE4typeERS9_SC_, symObjAddr: 0x4EE10, symBinAddr: 0x100051648, symSize: 0x3C }
  - { offsetInCU: 0x622A9, offset: 0x622A9, size: 0x8, addend: 0x0, symName: __ZNSt3__122__make_exception_guardB7v160006INS_29_AllocatorDestroyRangeReverseINS_9allocatorINS_12basic_stringIcNS_11char_traitsIcEENS2_IcEEEEEENS_16reverse_iteratorIPS7_EEEEEENS_28__exception_guard_exceptionsIT_EESE_, symObjAddr: 0x4EE4C, symBinAddr: 0x100051684, symSize: 0x4C }
  - { offsetInCU: 0x622DF, offset: 0x622DF, size: 0x8, addend: 0x0, symName: __ZNSt3__119__allocator_destroyB7v160006INS_9allocatorINS_12basic_stringIcNS_11char_traitsIcEENS1_IcEEEEEENS_16reverse_iteratorINS8_IPS6_EEEESB_EEvRT_T0_T1_, symObjAddr: 0x4F128, symBinAddr: 0x100051960, symSize: 0x70 }
  - { offsetInCU: 0x62344, offset: 0x62344, size: 0x8, addend: 0x0, symName: __ZNSt3__1neB7v160006INS_16reverse_iteratorIPNS_12basic_stringIcNS_11char_traitsIcEENS_9allocatorIcEEEEEES9_EEbRKNS1_IT_EERKNS1_IT0_EE, symObjAddr: 0x4F1D4, symBinAddr: 0x100051A0C, symSize: 0x60 }
  - { offsetInCU: 0x62390, offset: 0x62390, size: 0x8, addend: 0x0, symName: __ZNSt3__112__to_addressB7v160006INS_16reverse_iteratorINS1_IPNS_12basic_stringIcNS_11char_traitsIcEENS_9allocatorIcEEEEEEEEvEENS_5decayIDTclsr19__to_address_helperIT_EE6__callclsr3stdE7declvalIRKSC_EEEEE4typeESE_, symObjAddr: 0x4F234, symBinAddr: 0x100051A6C, symSize: 0x24 }
  - { offsetInCU: 0x623F0, offset: 0x623F0, size: 0x8, addend: 0x0, symName: __ZNSt3__122__str_find_last_not_ofB7v160006IcmNS_11char_traitsIcEELm18446744073709551615EEET0_PKT_S3_S6_S3_S3_, symObjAddr: 0x4F714, symBinAddr: 0x100051F4C, symSize: 0xDC }
  - { offsetInCU: 0x624A5, offset: 0x624A5, size: 0x8, addend: 0x0, symName: __ZNSt3__123__constexpr_char_memchrB7v160006EPKcim, symObjAddr: 0x4F860, symBinAddr: 0x100052098, symSize: 0x34 }
  - { offsetInCU: 0x624F6, offset: 0x624F6, size: 0x8, addend: 0x0, symName: __ZNSt3__1ltB7v160006IcNS_11char_traitsIcEENS_9allocatorIcEEEEbRKNS_12basic_stringIT_T0_T1_EESB_, symObjAddr: 0x500F0, symBinAddr: 0x100052928, symSize: 0x38 }
  - { offsetInCU: 0x62572, offset: 0x62572, size: 0x8, addend: 0x0, symName: __ZNSt3__118__constexpr_memcmpB7v160006IcEEiPKT_S3_m, symObjAddr: 0x5038C, symBinAddr: 0x100052BC4, symSize: 0x34 }
  - { offsetInCU: 0x625C3, offset: 0x625C3, size: 0x8, addend: 0x0, symName: __ZNSt3__17launderB7v160006IKNS_4pairIKNS_12basic_stringIcNS_11char_traitsIcEENS_9allocatorIcEEEEiEEEEPT_SC_, symObjAddr: 0x5044C, symBinAddr: 0x100052C84, symSize: 0x24 }
  - { offsetInCU: 0x625FA, offset: 0x625FA, size: 0x8, addend: 0x0, symName: __ZNSt3__19__launderB7v160006IKNS_4pairIKNS_12basic_stringIcNS_11char_traitsIcEENS_9allocatorIcEEEEiEEEEPT_SC_, symObjAddr: 0x50470, symBinAddr: 0x100052CA8, symSize: 0x14 }
  - { offsetInCU: 0x6264F, offset: 0x6264F, size: 0x8, addend: 0x0, symName: __ZNSt3__17launderB7v160006INS_4pairIKNS_12basic_stringIcNS_11char_traitsIcEENS_9allocatorIcEEEEiEEEEPT_SB_, symObjAddr: 0x50900, symBinAddr: 0x100053138, symSize: 0x24 }
  - { offsetInCU: 0x62686, offset: 0x62686, size: 0x8, addend: 0x0, symName: __ZNSt3__19__launderB7v160006INS_4pairIKNS_12basic_stringIcNS_11char_traitsIcEENS_9allocatorIcEEEEiEEEEPT_SB_, symObjAddr: 0x50924, symBinAddr: 0x10005315C, symSize: 0x14 }
  - { offsetInCU: 0x626BD, offset: 0x626BD, size: 0x8, addend: 0x0, symName: __ZNSt3__127__tree_balance_after_insertB7v160006IPNS_16__tree_node_baseIPvEEEEvT_S5_, symObjAddr: 0x509C0, symBinAddr: 0x1000531F8, symSize: 0x32C }
  - { offsetInCU: 0x6273A, offset: 0x6273A, size: 0x8, addend: 0x0, symName: __ZNSt3__120__tree_is_left_childB7v160006IPNS_16__tree_node_baseIPvEEEEbT_, symObjAddr: 0x50D2C, symBinAddr: 0x100053564, symSize: 0x2C }
  - { offsetInCU: 0x6276F, offset: 0x6276F, size: 0x8, addend: 0x0, symName: __ZNSt3__118__tree_left_rotateB7v160006IPNS_16__tree_node_baseIPvEEEEvT_, symObjAddr: 0x50D58, symBinAddr: 0x100053590, symSize: 0xD8 }
  - { offsetInCU: 0x627B1, offset: 0x627B1, size: 0x8, addend: 0x0, symName: __ZNSt3__119__tree_right_rotateB7v160006IPNS_16__tree_node_baseIPvEEEEvT_, symObjAddr: 0x50E30, symBinAddr: 0x100053668, symSize: 0xCC }
  - { offsetInCU: 0x627F3, offset: 0x627F3, size: 0x8, addend: 0x0, symName: __ZNSt3__1neB7v160006ERKNS_20__map_const_iteratorINS_21__tree_const_iteratorINS_12__value_typeINS_12basic_stringIcNS_11char_traitsIcEENS_9allocatorIcEEEES8_EEPNS_11__tree_nodeIS9_PvEElEEEESH_, symObjAddr: 0x520F4, symBinAddr: 0x10005492C, symSize: 0x30 }
  - { offsetInCU: 0x62830, offset: 0x62830, size: 0x8, addend: 0x0, symName: __ZNSt3__1neB7v160006ERKNS_21__tree_const_iteratorINS_12__value_typeINS_12basic_stringIcNS_11char_traitsIcEENS_9allocatorIcEEEES7_EEPNS_11__tree_nodeIS8_PvEElEESF_, symObjAddr: 0x521FC, symBinAddr: 0x100054A34, symSize: 0x34 }
  - { offsetInCU: 0x6286D, offset: 0x6286D, size: 0x8, addend: 0x0, symName: __ZNSt3__1eqB7v160006ERKNS_21__tree_const_iteratorINS_12__value_typeINS_12basic_stringIcNS_11char_traitsIcEENS_9allocatorIcEEEES7_EEPNS_11__tree_nodeIS8_PvEElEESF_, symObjAddr: 0x52230, symBinAddr: 0x100054A68, symSize: 0x30 }
  - { offsetInCU: 0x628CE, offset: 0x628CE, size: 0x8, addend: 0x0, symName: __ZNSt3__14nextB7v160006INS_21__tree_const_iteratorINS_12__value_typeINS_12basic_stringIcNS_11char_traitsIcEENS_9allocatorIcEEEES8_EEPNS_11__tree_nodeIS9_PvEElEEEENS_9enable_ifIXsr25__is_cpp17_input_iteratorIT_EE5valueESG_E4typeESG_NS_15iterator_traitsISG_E15difference_typeE, symObjAddr: 0x52D38, symBinAddr: 0x100055570, symSize: 0x50 }
  - { offsetInCU: 0x62911, offset: 0x62911, size: 0x8, addend: 0x0, symName: __ZNSt3__17launderB7v160006IKNS_4pairIKNS_12basic_stringIcNS_11char_traitsIcEENS_9allocatorIcEEEES7_EEEEPT_SC_, symObjAddr: 0x52E70, symBinAddr: 0x1000556A8, symSize: 0x24 }
  - { offsetInCU: 0x62948, offset: 0x62948, size: 0x8, addend: 0x0, symName: __ZNSt3__19__launderB7v160006IKNS_4pairIKNS_12basic_stringIcNS_11char_traitsIcEENS_9allocatorIcEEEES7_EEEEPT_SC_, symObjAddr: 0x52E94, symBinAddr: 0x1000556CC, symSize: 0x14 }
  - { offsetInCU: 0x6297F, offset: 0x6297F, size: 0x8, addend: 0x0, symName: __ZNSt3__116__tree_prev_iterB7v160006IPNS_16__tree_node_baseIPvEEPNS_15__tree_end_nodeIS4_EEEET_T0_, symObjAddr: 0x52EA8, symBinAddr: 0x1000556E0, symSize: 0x88 }
  - { offsetInCU: 0x629CC, offset: 0x629CC, size: 0x8, addend: 0x0, symName: __ZNSt3__110__tree_maxB7v160006IPNS_16__tree_node_baseIPvEEEET_S5_, symObjAddr: 0x52F30, symBinAddr: 0x100055768, symSize: 0x40 }
  - { offsetInCU: 0x62A02, offset: 0x62A02, size: 0x8, addend: 0x0, symName: __ZNSt3__121__convert_to_integralB7v160006El, symObjAddr: 0x52FE4, symBinAddr: 0x10005581C, symSize: 0x14 }
  - { offsetInCU: 0x62A2E, offset: 0x62A2E, size: 0x8, addend: 0x0, symName: __ZNSt3__19__advanceB7v160006INS_21__tree_const_iteratorINS_12__value_typeINS_12basic_stringIcNS_11char_traitsIcEENS_9allocatorIcEEEES8_EEPNS_11__tree_nodeIS9_PvEElEEEEvRT_NS_15iterator_traitsISF_E15difference_typeENS_26bidirectional_iterator_tagE, symObjAddr: 0x52FF8, symBinAddr: 0x100055830, symSize: 0xA4 }
  - { offsetInCU: 0x62A78, offset: 0x62A78, size: 0x8, addend: 0x0, symName: __ZNSt3__116__tree_next_iterB7v160006IPNS_15__tree_end_nodeIPNS_16__tree_node_baseIPvEEEES5_EET_T0_, symObjAddr: 0x530D4, symBinAddr: 0x10005590C, symSize: 0x80 }
  - { offsetInCU: 0x62AB7, offset: 0x62AB7, size: 0x8, addend: 0x0, symName: __ZNSt3__110__tree_minB7v160006IPNS_16__tree_node_baseIPvEEEET_S5_, symObjAddr: 0x53154, symBinAddr: 0x10005598C, symSize: 0x40 }
  - { offsetInCU: 0x62B3D, offset: 0x62B3D, size: 0x8, addend: 0x0, symName: __ZNSt3__119__allocate_at_leastB7v160006INS_9allocatorIN7tinyobj10material_tEEEEENS_19__allocation_resultINS_16allocator_traitsIT_E7pointerEEERS7_m, symObjAddr: 0x53DA4, symBinAddr: 0x1000565DC, symSize: 0x40 }
  - { offsetInCU: 0x62B80, offset: 0x62B80, size: 0x8, addend: 0x0, symName: __ZNSt3__142__uninitialized_allocator_move_if_noexceptB7v160006INS_9allocatorIN7tinyobj10material_tEEENS_16reverse_iteratorIPS3_EES7_S7_EET2_RT_T0_T1_S8_, symObjAddr: 0x53F5C, symBinAddr: 0x100056794, symSize: 0x12C }
  - { offsetInCU: 0x62C21, offset: 0x62C21, size: 0x8, addend: 0x0, symName: __ZNSt3__14swapB7v160006IPN7tinyobj10material_tEEENS_9enable_ifIXaasr21is_move_constructibleIT_EE5valuesr18is_move_assignableIS5_EE5valueEvE4typeERS5_S8_, symObjAddr: 0x540D4, symBinAddr: 0x10005690C, symSize: 0x3C }
  - { offsetInCU: 0x62C73, offset: 0x62C73, size: 0x8, addend: 0x0, symName: __ZNSt3__125__debug_db_invalidate_allB7v160006INS_6vectorIN7tinyobj10material_tENS_9allocatorIS3_EEEEEEvPT_, symObjAddr: 0x541D8, symBinAddr: 0x100056A10, symSize: 0x10 }
  - { offsetInCU: 0x62CA4, offset: 0x62CA4, size: 0x8, addend: 0x0, symName: __ZNSt3__122__make_exception_guardB7v160006INS_29_AllocatorDestroyRangeReverseINS_9allocatorIN7tinyobj10material_tEEENS_16reverse_iteratorIPS4_EEEEEENS_28__exception_guard_exceptionsIT_EESB_, symObjAddr: 0x541E8, symBinAddr: 0x100056A20, symSize: 0x4C }
  - { offsetInCU: 0x62CDA, offset: 0x62CDA, size: 0x8, addend: 0x0, symName: __ZNSt3__1neB7v160006IPN7tinyobj10material_tES3_EEbRKNS_16reverse_iteratorIT_EERKNS4_IT0_EE, symObjAddr: 0x54278, symBinAddr: 0x100056AB0, symSize: 0x48 }
  - { offsetInCU: 0x62D26, offset: 0x62D26, size: 0x8, addend: 0x0, symName: __ZNSt3__112__to_addressB7v160006INS_16reverse_iteratorIPN7tinyobj10material_tEEEvEENS_5decayIDTclsr19__to_address_helperIT_EE6__callclsr3stdE7declvalIRKS7_EEEEE4typeES9_, symObjAddr: 0x542F4, symBinAddr: 0x100056B2C, symSize: 0x24 }
  - { offsetInCU: 0x62D86, offset: 0x62D86, size: 0x8, addend: 0x0, symName: __ZNSt3__119__allocator_destroyB7v160006INS_9allocatorIN7tinyobj10material_tEEENS_16reverse_iteratorINS5_IPS3_EEEES8_EEvRT_T0_T1_, symObjAddr: 0x54ABC, symBinAddr: 0x1000572F4, symSize: 0x70 }
  - { offsetInCU: 0x62DEB, offset: 0x62DEB, size: 0x8, addend: 0x0, symName: __ZNSt3__1neB7v160006INS_16reverse_iteratorIPN7tinyobj10material_tEEES5_EEbRKNS1_IT_EERKNS1_IT0_EE, symObjAddr: 0x54B68, symBinAddr: 0x1000573A0, symSize: 0x60 }
  - { offsetInCU: 0x62E37, offset: 0x62E37, size: 0x8, addend: 0x0, symName: __ZNSt3__112__to_addressB7v160006INS_16reverse_iteratorINS1_IPN7tinyobj10material_tEEEEEvEENS_5decayIDTclsr19__to_address_helperIT_EE6__callclsr3stdE7declvalIRKS8_EEEEE4typeESA_, symObjAddr: 0x54BC8, symBinAddr: 0x100057400, symSize: 0x24 }
  - { offsetInCU: 0x62E98, offset: 0x62E98, size: 0x8, addend: 0x0, symName: __ZNSt3__125__debug_db_invalidate_allB7v160006INS_6vectorIN7tinyobj7shape_tENS_9allocatorIS3_EEEEEEvPT_, symObjAddr: 0x5567C, symBinAddr: 0x100057EB4, symSize: 0x10 }
  - { offsetInCU: 0x62ECA, offset: 0x62ECA, size: 0x8, addend: 0x0, symName: __ZNSt3__119__debug_db_insert_cB7v160006INS_6vectorIN7tinyobj5tag_tENS_9allocatorIS3_EEEEEEvPT_, symObjAddr: 0x55720, symBinAddr: 0x100057F58, symSize: 0x10 }
  - { offsetInCU: 0x62EFC, offset: 0x62EFC, size: 0x8, addend: 0x0, symName: __ZNSt3__118__debug_db_erase_cB7v160006INS_6vectorIN7tinyobj5tag_tENS_9allocatorIS3_EEEEEEvPT_, symObjAddr: 0x55A00, symBinAddr: 0x100058238, symSize: 0x10 }
  - { offsetInCU: 0x62F2E, offset: 0x62F2E, size: 0x8, addend: 0x0, symName: __ZNSt3__119__debug_db_insert_cB7v160006INS_6vectorIN7tinyobj7index_tENS_9allocatorIS3_EEEEEEvPT_, symObjAddr: 0x563E0, symBinAddr: 0x100058C18, symSize: 0x10 }
  - { offsetInCU: 0x62F60, offset: 0x62F60, size: 0x8, addend: 0x0, symName: __ZNSt3__118__debug_db_erase_cB7v160006INS_6vectorIN7tinyobj7index_tENS_9allocatorIS3_EEEEEEvPT_, symObjAddr: 0x565D0, symBinAddr: 0x100058E08, symSize: 0x10 }
  - { offsetInCU: 0x62F91, offset: 0x62F91, size: 0x8, addend: 0x0, symName: __ZNSt3__142__uninitialized_allocator_move_if_noexceptB7v160006INS_9allocatorIfEENS_16reverse_iteratorIPfEES5_fvEET1_RT_T0_S9_S6_, symObjAddr: 0x56C0C, symBinAddr: 0x100059444, symSize: 0x78 }
  - { offsetInCU: 0x63010, offset: 0x63010, size: 0x8, addend: 0x0, symName: __ZNSt3__14swapB7v160006IPfEENS_9enable_ifIXaasr21is_move_constructibleIT_EE5valuesr18is_move_assignableIS3_EE5valueEvE4typeERS3_S6_, symObjAddr: 0x56C84, symBinAddr: 0x1000594BC, symSize: 0x3C }
  - { offsetInCU: 0x63061, offset: 0x63061, size: 0x8, addend: 0x0, symName: __ZNSt3__14moveB7v160006INS_16reverse_iteratorIPfEES3_EET0_T_S5_S4_, symObjAddr: 0x56CC0, symBinAddr: 0x1000594F8, symSize: 0x78 }
  - { offsetInCU: 0x630BB, offset: 0x630BB, size: 0x8, addend: 0x0, symName: __ZNSt3__16__moveB7v160006INS_17_ClassicAlgPolicyENS_16reverse_iteratorIPfEES4_S4_EENS_4pairIT0_T2_EES6_T1_S7_, symObjAddr: 0x56D38, symBinAddr: 0x100059570, symSize: 0x64 }
  - { offsetInCU: 0x63127, offset: 0x63127, size: 0x8, addend: 0x0, symName: __ZNSt3__123__dispatch_copy_or_moveB7v160006INS_17_ClassicAlgPolicyENS_11__move_loopIS1_EENS_14__move_trivialENS_16reverse_iteratorIPfEES7_S7_EENS_4pairIT2_T4_EES9_T3_SA_, symObjAddr: 0x56D9C, symBinAddr: 0x1000595D4, symSize: 0x64 }
  - { offsetInCU: 0x631A5, offset: 0x631A5, size: 0x8, addend: 0x0, symName: __ZNSt3__121__unwrap_and_dispatchB7v160006INS_10__overloadINS_11__move_loopINS_17_ClassicAlgPolicyEEENS_14__move_trivialEEENS_16reverse_iteratorIPfEES9_S9_Li0EEENS_4pairIT0_T2_EESB_T1_SC_, symObjAddr: 0x56E00, symBinAddr: 0x100059638, symSize: 0x12C }
  - { offsetInCU: 0x63235, offset: 0x63235, size: 0x8, addend: 0x0, symName: __ZNSt3__114__unwrap_rangeB7v160006INS_16reverse_iteratorIPfEES3_EENS_4pairIT0_S5_EET_S7_, symObjAddr: 0x56F2C, symBinAddr: 0x100059764, symSize: 0x84 }
  - { offsetInCU: 0x63355, offset: 0x63355, size: 0x8, addend: 0x0, symName: __ZNSt3__113__unwrap_iterB7v160006INS_16reverse_iteratorIPfEENS_18__unwrap_iter_implIS3_Lb0EEELi0EEEDTclsrT0_8__unwrapclsr3stdE7declvalIT_EEEES7_, symObjAddr: 0x57050, symBinAddr: 0x100059888, symSize: 0x44 }
  - { offsetInCU: 0x63399, offset: 0x63399, size: 0x8, addend: 0x0, symName: __ZNSt3__19make_pairB7v160006INS_16reverse_iteratorIPfEES3_EENS_4pairINS_18__unwrap_ref_decayIT_E4typeENS5_IT0_E4typeEEEOS6_OS9_, symObjAddr: 0x57094, symBinAddr: 0x1000598CC, symSize: 0x38 }
  - { offsetInCU: 0x633E8, offset: 0x633E8, size: 0x8, addend: 0x0, symName: __ZNSt3__114__rewrap_rangeB7v160006INS_16reverse_iteratorIPfEES3_EET_S4_T0_, symObjAddr: 0x570CC, symBinAddr: 0x100059904, symSize: 0x5C }
  - { offsetInCU: 0x63434, offset: 0x63434, size: 0x8, addend: 0x0, symName: __ZNSt3__113__rewrap_iterB7v160006INS_16reverse_iteratorIPfEES3_NS_18__unwrap_iter_implIS3_Lb0EEEEET_S6_T0_, symObjAddr: 0x57128, symBinAddr: 0x100059960, symSize: 0x74 }
  - { offsetInCU: 0x634F5, offset: 0x634F5, size: 0x8, addend: 0x0, symName: __ZNSt3__119__allocate_at_leastB7v160006INS_9allocatorIN7tinyobj18joint_and_weight_tEEEEENS_19__allocation_resultINS_16allocator_traitsIT_E7pointerEEERS7_m, symObjAddr: 0x57BC4, symBinAddr: 0x10005A3FC, symSize: 0x40 }
  - { offsetInCU: 0x63538, offset: 0x63538, size: 0x8, addend: 0x0, symName: __ZNSt3__142__uninitialized_allocator_move_if_noexceptB7v160006INS_9allocatorIN7tinyobj18joint_and_weight_tEEENS_16reverse_iteratorIPS3_EES7_S3_vEET1_RT_T0_SB_S8_, symObjAddr: 0x57D78, symBinAddr: 0x10005A5B0, symSize: 0x78 }
  - { offsetInCU: 0x635B7, offset: 0x635B7, size: 0x8, addend: 0x0, symName: __ZNSt3__14swapB7v160006IPN7tinyobj18joint_and_weight_tEEENS_9enable_ifIXaasr21is_move_constructibleIT_EE5valuesr18is_move_assignableIS5_EE5valueEvE4typeERS5_S8_, symObjAddr: 0x57E3C, symBinAddr: 0x10005A674, symSize: 0x3C }
  - { offsetInCU: 0x63609, offset: 0x63609, size: 0x8, addend: 0x0, symName: __ZNSt3__125__debug_db_invalidate_allB7v160006INS_6vectorIN7tinyobj18joint_and_weight_tENS_9allocatorIS3_EEEEEEvPT_, symObjAddr: 0x57F24, symBinAddr: 0x10005A75C, symSize: 0x10 }
  - { offsetInCU: 0x6363A, offset: 0x6363A, size: 0x8, addend: 0x0, symName: __ZNSt3__14moveB7v160006INS_16reverse_iteratorIPN7tinyobj18joint_and_weight_tEEES5_EET0_T_S7_S6_, symObjAddr: 0x57F34, symBinAddr: 0x10005A76C, symSize: 0x78 }
  - { offsetInCU: 0x63694, offset: 0x63694, size: 0x8, addend: 0x0, symName: __ZNSt3__16__moveB7v160006INS_17_ClassicAlgPolicyENS_16reverse_iteratorIPN7tinyobj18joint_and_weight_tEEES6_S6_EENS_4pairIT0_T2_EES8_T1_S9_, symObjAddr: 0x57FAC, symBinAddr: 0x10005A7E4, symSize: 0x64 }
  - { offsetInCU: 0x63700, offset: 0x63700, size: 0x8, addend: 0x0, symName: __ZNSt3__123__dispatch_copy_or_moveB7v160006INS_17_ClassicAlgPolicyENS_11__move_loopIS1_EENS_14__move_trivialENS_16reverse_iteratorIPN7tinyobj18joint_and_weight_tEEES9_S9_EENS_4pairIT2_T4_EESB_T3_SC_, symObjAddr: 0x58010, symBinAddr: 0x10005A848, symSize: 0x64 }
  - { offsetInCU: 0x6377E, offset: 0x6377E, size: 0x8, addend: 0x0, symName: __ZNSt3__121__unwrap_and_dispatchB7v160006INS_10__overloadINS_11__move_loopINS_17_ClassicAlgPolicyEEENS_14__move_trivialEEENS_16reverse_iteratorIPN7tinyobj18joint_and_weight_tEEESB_SB_Li0EEENS_4pairIT0_T2_EESD_T1_SE_, symObjAddr: 0x58074, symBinAddr: 0x10005A8AC, symSize: 0x12C }
  - { offsetInCU: 0x6380E, offset: 0x6380E, size: 0x8, addend: 0x0, symName: __ZNSt3__114__unwrap_rangeB7v160006INS_16reverse_iteratorIPN7tinyobj18joint_and_weight_tEEES5_EENS_4pairIT0_S7_EET_S9_, symObjAddr: 0x581A0, symBinAddr: 0x10005A9D8, symSize: 0x84 }
  - { offsetInCU: 0x6392E, offset: 0x6392E, size: 0x8, addend: 0x0, symName: __ZNSt3__113__unwrap_iterB7v160006INS_16reverse_iteratorIPN7tinyobj18joint_and_weight_tEEENS_18__unwrap_iter_implIS5_Lb0EEELi0EEEDTclsrT0_8__unwrapclsr3stdE7declvalIT_EEEES9_, symObjAddr: 0x582C4, symBinAddr: 0x10005AAFC, symSize: 0x44 }
  - { offsetInCU: 0x63972, offset: 0x63972, size: 0x8, addend: 0x0, symName: __ZNSt3__19make_pairB7v160006INS_16reverse_iteratorIPN7tinyobj18joint_and_weight_tEEES5_EENS_4pairINS_18__unwrap_ref_decayIT_E4typeENS7_IT0_E4typeEEEOS8_OSB_, symObjAddr: 0x58308, symBinAddr: 0x10005AB40, symSize: 0x38 }
  - { offsetInCU: 0x639C1, offset: 0x639C1, size: 0x8, addend: 0x0, symName: __ZNSt3__114__rewrap_rangeB7v160006INS_16reverse_iteratorIPN7tinyobj18joint_and_weight_tEEES5_EET_S6_T0_, symObjAddr: 0x58340, symBinAddr: 0x10005AB78, symSize: 0x5C }
  - { offsetInCU: 0x63A0D, offset: 0x63A0D, size: 0x8, addend: 0x0, symName: __ZNSt3__113__rewrap_iterB7v160006INS_16reverse_iteratorIPN7tinyobj18joint_and_weight_tEEES5_NS_18__unwrap_iter_implIS5_Lb0EEEEET_S8_T0_, symObjAddr: 0x5839C, symBinAddr: 0x10005ABD4, symSize: 0x74 }
  - { offsetInCU: 0x63A62, offset: 0x63A62, size: 0x8, addend: 0x0, symName: __ZNSt3__1neB7v160006IPN7tinyobj18joint_and_weight_tES3_EEbRKNS_16reverse_iteratorIT_EERKNS4_IT0_EE, symObjAddr: 0x58410, symBinAddr: 0x10005AC48, symSize: 0x48 }
  - { offsetInCU: 0x63B1A, offset: 0x63B1A, size: 0x8, addend: 0x0, symName: __ZNSt3__122__make_exception_guardB7v160006INS_6vectorIN7tinyobj18joint_and_weight_tENS_9allocatorIS3_EEE16__destroy_vectorEEENS_28__exception_guard_exceptionsIT_EES9_, symObjAddr: 0x58C84, symBinAddr: 0x10005B4BC, symSize: 0x40 }
  - { offsetInCU: 0x63B4F, offset: 0x63B4F, size: 0x8, addend: 0x0, symName: __ZNSt3__130__uninitialized_allocator_copyB7v160006INS_9allocatorIN7tinyobj18joint_and_weight_tEEEPS3_S5_S5_EET2_RT_T0_T1_S6_, symObjAddr: 0x58EF8, symBinAddr: 0x10005B730, symSize: 0xF4 }
  - { offsetInCU: 0x63BED, offset: 0x63BED, size: 0x8, addend: 0x0, symName: __ZNSt3__122__make_exception_guardB7v160006INS_29_AllocatorDestroyRangeReverseINS_9allocatorIN7tinyobj18joint_and_weight_tEEEPS4_EEEENS_28__exception_guard_exceptionsIT_EES9_, symObjAddr: 0x58FEC, symBinAddr: 0x10005B824, symSize: 0x4C }
  - { offsetInCU: 0x63C23, offset: 0x63C23, size: 0x8, addend: 0x0, symName: __ZNSt3__119__allocator_destroyB7v160006INS_9allocatorIN7tinyobj18joint_and_weight_tEEENS_16reverse_iteratorIPS3_EES7_EEvRT_T0_T1_, symObjAddr: 0x59274, symBinAddr: 0x10005BAAC, symSize: 0x70 }
  - { offsetInCU: 0x63C86, offset: 0x63C86, size: 0x8, addend: 0x0, symName: __ZNSt3__112__to_addressB7v160006INS_16reverse_iteratorIPN7tinyobj18joint_and_weight_tEEEvEENS_5decayIDTclsr19__to_address_helperIT_EE6__callclsr3stdE7declvalIRKS7_EEEEE4typeES9_, symObjAddr: 0x592E4, symBinAddr: 0x10005BB1C, symSize: 0x24 }
  - { offsetInCU: 0x63CE6, offset: 0x63CE6, size: 0x8, addend: 0x0, symName: __ZNSt3__119__allocate_at_leastB7v160006INS_9allocatorIN7tinyobj13skin_weight_tEEEEENS_19__allocation_resultINS_16allocator_traitsIT_E7pointerEEERS7_m, symObjAddr: 0x59834, symBinAddr: 0x10005C06C, symSize: 0x40 }
  - { offsetInCU: 0x63D29, offset: 0x63D29, size: 0x8, addend: 0x0, symName: __ZNSt3__142__uninitialized_allocator_move_if_noexceptB7v160006INS_9allocatorIN7tinyobj13skin_weight_tEEENS_16reverse_iteratorIPS3_EES7_S7_EET2_RT_T0_T1_S8_, symObjAddr: 0x599E8, symBinAddr: 0x10005C220, symSize: 0x12C }
  - { offsetInCU: 0x63DCA, offset: 0x63DCA, size: 0x8, addend: 0x0, symName: __ZNSt3__14swapB7v160006IPN7tinyobj13skin_weight_tEEENS_9enable_ifIXaasr21is_move_constructibleIT_EE5valuesr18is_move_assignableIS5_EE5valueEvE4typeERS5_S8_, symObjAddr: 0x59B60, symBinAddr: 0x10005C398, symSize: 0x3C }
  - { offsetInCU: 0x63E1C, offset: 0x63E1C, size: 0x8, addend: 0x0, symName: __ZNSt3__125__debug_db_invalidate_allB7v160006INS_6vectorIN7tinyobj13skin_weight_tENS_9allocatorIS3_EEEEEEvPT_, symObjAddr: 0x59C48, symBinAddr: 0x10005C480, symSize: 0x10 }
  - { offsetInCU: 0x63E4D, offset: 0x63E4D, size: 0x8, addend: 0x0, symName: __ZNSt3__122__make_exception_guardB7v160006INS_29_AllocatorDestroyRangeReverseINS_9allocatorIN7tinyobj13skin_weight_tEEENS_16reverse_iteratorIPS4_EEEEEENS_28__exception_guard_exceptionsIT_EESB_, symObjAddr: 0x59C58, symBinAddr: 0x10005C490, symSize: 0x4C }
  - { offsetInCU: 0x63E83, offset: 0x63E83, size: 0x8, addend: 0x0, symName: __ZNSt3__1neB7v160006IPN7tinyobj13skin_weight_tES3_EEbRKNS_16reverse_iteratorIT_EERKNS4_IT0_EE, symObjAddr: 0x59CE8, symBinAddr: 0x10005C520, symSize: 0x48 }
  - { offsetInCU: 0x63ECF, offset: 0x63ECF, size: 0x8, addend: 0x0, symName: __ZNSt3__112__to_addressB7v160006INS_16reverse_iteratorIPN7tinyobj13skin_weight_tEEEvEENS_5decayIDTclsr19__to_address_helperIT_EE6__callclsr3stdE7declvalIRKS7_EEEEE4typeES9_, symObjAddr: 0x59D64, symBinAddr: 0x10005C59C, symSize: 0x24 }
  - { offsetInCU: 0x63F06, offset: 0x63F06, size: 0x8, addend: 0x0, symName: __ZNSt3__115__debug_db_swapB7v160006INS_6vectorIN7tinyobj18joint_and_weight_tENS_9allocatorIS3_EEEEEEvPT_S8_, symObjAddr: 0x5A070, symBinAddr: 0x10005C8A8, symSize: 0x14 }
  - { offsetInCU: 0x63F6F, offset: 0x63F6F, size: 0x8, addend: 0x0, symName: __ZNSt3__119__allocator_destroyB7v160006INS_9allocatorIN7tinyobj13skin_weight_tEEENS_16reverse_iteratorINS5_IPS3_EEEES8_EEvRT_T0_T1_, symObjAddr: 0x5A1E4, symBinAddr: 0x10005CA1C, symSize: 0x70 }
  - { offsetInCU: 0x63FD4, offset: 0x63FD4, size: 0x8, addend: 0x0, symName: __ZNSt3__1neB7v160006INS_16reverse_iteratorIPN7tinyobj13skin_weight_tEEES5_EEbRKNS1_IT_EERKNS1_IT0_EE, symObjAddr: 0x5A290, symBinAddr: 0x10005CAC8, symSize: 0x60 }
  - { offsetInCU: 0x64020, offset: 0x64020, size: 0x8, addend: 0x0, symName: __ZNSt3__112__to_addressB7v160006INS_16reverse_iteratorINS1_IPN7tinyobj13skin_weight_tEEEEEvEENS_5decayIDTclsr19__to_address_helperIT_EE6__callclsr3stdE7declvalIRKS8_EEEEE4typeESA_, symObjAddr: 0x5A2F0, symBinAddr: 0x10005CB28, symSize: 0x24 }
  - { offsetInCU: 0x64080, offset: 0x64080, size: 0x8, addend: 0x0, symName: __ZNSt3__119__allocate_at_leastB7v160006INS_9allocatorIN7tinyobj14vertex_index_tEEEEENS_19__allocation_resultINS_16allocator_traitsIT_E7pointerEEERS7_m, symObjAddr: 0x5ADC8, symBinAddr: 0x10005D600, symSize: 0x40 }
  - { offsetInCU: 0x640C3, offset: 0x640C3, size: 0x8, addend: 0x0, symName: __ZNSt3__142__uninitialized_allocator_move_if_noexceptB7v160006INS_9allocatorIN7tinyobj14vertex_index_tEEENS_16reverse_iteratorIPS3_EES7_S3_vEET1_RT_T0_SB_S8_, symObjAddr: 0x5AF80, symBinAddr: 0x10005D7B8, symSize: 0x78 }
  - { offsetInCU: 0x64142, offset: 0x64142, size: 0x8, addend: 0x0, symName: __ZNSt3__14swapB7v160006IPN7tinyobj14vertex_index_tEEENS_9enable_ifIXaasr21is_move_constructibleIT_EE5valuesr18is_move_assignableIS5_EE5valueEvE4typeERS5_S8_, symObjAddr: 0x5B044, symBinAddr: 0x10005D87C, symSize: 0x3C }
  - { offsetInCU: 0x64194, offset: 0x64194, size: 0x8, addend: 0x0, symName: __ZNSt3__125__debug_db_invalidate_allB7v160006INS_6vectorIN7tinyobj14vertex_index_tENS_9allocatorIS3_EEEEEEvPT_, symObjAddr: 0x5B148, symBinAddr: 0x10005D980, symSize: 0x10 }
  - { offsetInCU: 0x641C5, offset: 0x641C5, size: 0x8, addend: 0x0, symName: __ZNSt3__14moveB7v160006INS_16reverse_iteratorIPN7tinyobj14vertex_index_tEEES5_EET0_T_S7_S6_, symObjAddr: 0x5B158, symBinAddr: 0x10005D990, symSize: 0x78 }
  - { offsetInCU: 0x6421F, offset: 0x6421F, size: 0x8, addend: 0x0, symName: __ZNSt3__16__moveB7v160006INS_17_ClassicAlgPolicyENS_16reverse_iteratorIPN7tinyobj14vertex_index_tEEES6_S6_EENS_4pairIT0_T2_EES8_T1_S9_, symObjAddr: 0x5B1D0, symBinAddr: 0x10005DA08, symSize: 0x64 }
  - { offsetInCU: 0x6428B, offset: 0x6428B, size: 0x8, addend: 0x0, symName: __ZNSt3__123__dispatch_copy_or_moveB7v160006INS_17_ClassicAlgPolicyENS_11__move_loopIS1_EENS_14__move_trivialENS_16reverse_iteratorIPN7tinyobj14vertex_index_tEEES9_S9_EENS_4pairIT2_T4_EESB_T3_SC_, symObjAddr: 0x5B234, symBinAddr: 0x10005DA6C, symSize: 0x64 }
  - { offsetInCU: 0x64309, offset: 0x64309, size: 0x8, addend: 0x0, symName: __ZNSt3__121__unwrap_and_dispatchB7v160006INS_10__overloadINS_11__move_loopINS_17_ClassicAlgPolicyEEENS_14__move_trivialEEENS_16reverse_iteratorIPN7tinyobj14vertex_index_tEEESB_SB_Li0EEENS_4pairIT0_T2_EESD_T1_SE_, symObjAddr: 0x5B298, symBinAddr: 0x10005DAD0, symSize: 0x12C }
  - { offsetInCU: 0x64399, offset: 0x64399, size: 0x8, addend: 0x0, symName: __ZNSt3__114__unwrap_rangeB7v160006INS_16reverse_iteratorIPN7tinyobj14vertex_index_tEEES5_EENS_4pairIT0_S7_EET_S9_, symObjAddr: 0x5B3C4, symBinAddr: 0x10005DBFC, symSize: 0x84 }
  - { offsetInCU: 0x644B9, offset: 0x644B9, size: 0x8, addend: 0x0, symName: __ZNSt3__113__unwrap_iterB7v160006INS_16reverse_iteratorIPN7tinyobj14vertex_index_tEEENS_18__unwrap_iter_implIS5_Lb0EEELi0EEEDTclsrT0_8__unwrapclsr3stdE7declvalIT_EEEES9_, symObjAddr: 0x5B4F0, symBinAddr: 0x10005DD28, symSize: 0x44 }
  - { offsetInCU: 0x644FD, offset: 0x644FD, size: 0x8, addend: 0x0, symName: __ZNSt3__19make_pairB7v160006INS_16reverse_iteratorIPN7tinyobj14vertex_index_tEEES5_EENS_4pairINS_18__unwrap_ref_decayIT_E4typeENS7_IT0_E4typeEEEOS8_OSB_, symObjAddr: 0x5B534, symBinAddr: 0x10005DD6C, symSize: 0x38 }
  - { offsetInCU: 0x6454C, offset: 0x6454C, size: 0x8, addend: 0x0, symName: __ZNSt3__114__rewrap_rangeB7v160006INS_16reverse_iteratorIPN7tinyobj14vertex_index_tEEES5_EET_S6_T0_, symObjAddr: 0x5B56C, symBinAddr: 0x10005DDA4, symSize: 0x5C }
  - { offsetInCU: 0x64598, offset: 0x64598, size: 0x8, addend: 0x0, symName: __ZNSt3__113__rewrap_iterB7v160006INS_16reverse_iteratorIPN7tinyobj14vertex_index_tEEES5_NS_18__unwrap_iter_implIS5_Lb0EEEEET_S8_T0_, symObjAddr: 0x5B5C8, symBinAddr: 0x10005DE00, symSize: 0x74 }
  - { offsetInCU: 0x645ED, offset: 0x645ED, size: 0x8, addend: 0x0, symName: __ZNSt3__1neB7v160006IPN7tinyobj14vertex_index_tES3_EEbRKNS_16reverse_iteratorIT_EERKNS4_IT0_EE, symObjAddr: 0x5B63C, symBinAddr: 0x10005DE74, symSize: 0x48 }
  - { offsetInCU: 0x646A5, offset: 0x646A5, size: 0x8, addend: 0x0, symName: __ZNSt3__122__make_exception_guardB7v160006INS_6vectorIN7tinyobj14vertex_index_tENS_9allocatorIS3_EEE16__destroy_vectorEEENS_28__exception_guard_exceptionsIT_EES9_, symObjAddr: 0x5BEA4, symBinAddr: 0x10005E6DC, symSize: 0x40 }
  - { offsetInCU: 0x646DA, offset: 0x646DA, size: 0x8, addend: 0x0, symName: __ZNSt3__130__uninitialized_allocator_copyB7v160006INS_9allocatorIN7tinyobj14vertex_index_tEEEPS3_S5_S5_EET2_RT_T0_T1_S6_, symObjAddr: 0x5C120, symBinAddr: 0x10005E958, symSize: 0xF4 }
  - { offsetInCU: 0x64778, offset: 0x64778, size: 0x8, addend: 0x0, symName: __ZNSt3__122__make_exception_guardB7v160006INS_29_AllocatorDestroyRangeReverseINS_9allocatorIN7tinyobj14vertex_index_tEEEPS4_EEEENS_28__exception_guard_exceptionsIT_EES9_, symObjAddr: 0x5C214, symBinAddr: 0x10005EA4C, symSize: 0x4C }
  - { offsetInCU: 0x647AE, offset: 0x647AE, size: 0x8, addend: 0x0, symName: __ZNSt3__119__allocator_destroyB7v160006INS_9allocatorIN7tinyobj14vertex_index_tEEENS_16reverse_iteratorIPS3_EES7_EEvRT_T0_T1_, symObjAddr: 0x5C4A4, symBinAddr: 0x10005ECDC, symSize: 0x70 }
  - { offsetInCU: 0x64811, offset: 0x64811, size: 0x8, addend: 0x0, symName: __ZNSt3__112__to_addressB7v160006INS_16reverse_iteratorIPN7tinyobj14vertex_index_tEEEvEENS_5decayIDTclsr19__to_address_helperIT_EE6__callclsr3stdE7declvalIRKS7_EEEEE4typeES9_, symObjAddr: 0x5C514, symBinAddr: 0x10005ED4C, symSize: 0x24 }
  - { offsetInCU: 0x64871, offset: 0x64871, size: 0x8, addend: 0x0, symName: __ZNSt3__119__allocate_at_leastB7v160006INS_9allocatorIN7tinyobj8__line_tEEEEENS_19__allocation_resultINS_16allocator_traitsIT_E7pointerEEERS7_m, symObjAddr: 0x5CA74, symBinAddr: 0x10005F2AC, symSize: 0x40 }
  - { offsetInCU: 0x648B4, offset: 0x648B4, size: 0x8, addend: 0x0, symName: __ZNSt3__142__uninitialized_allocator_move_if_noexceptB7v160006INS_9allocatorIN7tinyobj8__line_tEEENS_16reverse_iteratorIPS3_EES7_S7_EET2_RT_T0_T1_S8_, symObjAddr: 0x5CC2C, symBinAddr: 0x10005F464, symSize: 0x12C }
  - { offsetInCU: 0x64955, offset: 0x64955, size: 0x8, addend: 0x0, symName: __ZNSt3__14swapB7v160006IPN7tinyobj8__line_tEEENS_9enable_ifIXaasr21is_move_constructibleIT_EE5valuesr18is_move_assignableIS5_EE5valueEvE4typeERS5_S8_, symObjAddr: 0x5CDA4, symBinAddr: 0x10005F5DC, symSize: 0x3C }
  - { offsetInCU: 0x649A6, offset: 0x649A6, size: 0x8, addend: 0x0, symName: __ZNSt3__122__make_exception_guardB7v160006INS_29_AllocatorDestroyRangeReverseINS_9allocatorIN7tinyobj8__line_tEEENS_16reverse_iteratorIPS4_EEEEEENS_28__exception_guard_exceptionsIT_EESB_, symObjAddr: 0x5CEA8, symBinAddr: 0x10005F6E0, symSize: 0x4C }
  - { offsetInCU: 0x649DC, offset: 0x649DC, size: 0x8, addend: 0x0, symName: __ZNSt3__1neB7v160006IPN7tinyobj8__line_tES3_EEbRKNS_16reverse_iteratorIT_EERKNS4_IT0_EE, symObjAddr: 0x5CF38, symBinAddr: 0x10005F770, symSize: 0x48 }
  - { offsetInCU: 0x64A28, offset: 0x64A28, size: 0x8, addend: 0x0, symName: __ZNSt3__112__to_addressB7v160006INS_16reverse_iteratorIPN7tinyobj8__line_tEEEvEENS_5decayIDTclsr19__to_address_helperIT_EE6__callclsr3stdE7declvalIRKS7_EEEEE4typeES9_, symObjAddr: 0x5CFB4, symBinAddr: 0x10005F7EC, symSize: 0x24 }
  - { offsetInCU: 0x64A5F, offset: 0x64A5F, size: 0x8, addend: 0x0, symName: __ZNSt3__115__debug_db_swapB7v160006INS_6vectorIN7tinyobj14vertex_index_tENS_9allocatorIS3_EEEEEEvPT_S8_, symObjAddr: 0x5D2AC, symBinAddr: 0x10005FAE4, symSize: 0x14 }
  - { offsetInCU: 0x64AC8, offset: 0x64AC8, size: 0x8, addend: 0x0, symName: __ZNSt3__119__allocator_destroyB7v160006INS_9allocatorIN7tinyobj8__line_tEEENS_16reverse_iteratorINS5_IPS3_EEEES8_EEvRT_T0_T1_, symObjAddr: 0x5D420, symBinAddr: 0x10005FC58, symSize: 0x70 }
  - { offsetInCU: 0x64B2D, offset: 0x64B2D, size: 0x8, addend: 0x0, symName: __ZNSt3__1neB7v160006INS_16reverse_iteratorIPN7tinyobj8__line_tEEES5_EEbRKNS1_IT_EERKNS1_IT0_EE, symObjAddr: 0x5D4CC, symBinAddr: 0x10005FD04, symSize: 0x60 }
  - { offsetInCU: 0x64B79, offset: 0x64B79, size: 0x8, addend: 0x0, symName: __ZNSt3__112__to_addressB7v160006INS_16reverse_iteratorINS1_IPN7tinyobj8__line_tEEEEEvEENS_5decayIDTclsr19__to_address_helperIT_EE6__callclsr3stdE7declvalIRKS8_EEEEE4typeESA_, symObjAddr: 0x5D52C, symBinAddr: 0x10005FD64, symSize: 0x24 }
  - { offsetInCU: 0x64BD9, offset: 0x64BD9, size: 0x8, addend: 0x0, symName: __ZNSt3__119__allocate_at_leastB7v160006INS_9allocatorIN7tinyobj10__points_tEEEEENS_19__allocation_resultINS_16allocator_traitsIT_E7pointerEEERS7_m, symObjAddr: 0x5E06C, symBinAddr: 0x1000608A4, symSize: 0x40 }
  - { offsetInCU: 0x64C1C, offset: 0x64C1C, size: 0x8, addend: 0x0, symName: __ZNSt3__142__uninitialized_allocator_move_if_noexceptB7v160006INS_9allocatorIN7tinyobj10__points_tEEENS_16reverse_iteratorIPS3_EES7_S7_EET2_RT_T0_T1_S8_, symObjAddr: 0x5E224, symBinAddr: 0x100060A5C, symSize: 0x12C }
  - { offsetInCU: 0x64CBD, offset: 0x64CBD, size: 0x8, addend: 0x0, symName: __ZNSt3__14swapB7v160006IPN7tinyobj10__points_tEEENS_9enable_ifIXaasr21is_move_constructibleIT_EE5valuesr18is_move_assignableIS5_EE5valueEvE4typeERS5_S8_, symObjAddr: 0x5E39C, symBinAddr: 0x100060BD4, symSize: 0x3C }
  - { offsetInCU: 0x64D0E, offset: 0x64D0E, size: 0x8, addend: 0x0, symName: __ZNSt3__122__make_exception_guardB7v160006INS_29_AllocatorDestroyRangeReverseINS_9allocatorIN7tinyobj10__points_tEEENS_16reverse_iteratorIPS4_EEEEEENS_28__exception_guard_exceptionsIT_EESB_, symObjAddr: 0x5E4A0, symBinAddr: 0x100060CD8, symSize: 0x4C }
  - { offsetInCU: 0x64D44, offset: 0x64D44, size: 0x8, addend: 0x0, symName: __ZNSt3__1neB7v160006IPN7tinyobj10__points_tES3_EEbRKNS_16reverse_iteratorIT_EERKNS4_IT0_EE, symObjAddr: 0x5E530, symBinAddr: 0x100060D68, symSize: 0x48 }
  - { offsetInCU: 0x64D90, offset: 0x64D90, size: 0x8, addend: 0x0, symName: __ZNSt3__112__to_addressB7v160006INS_16reverse_iteratorIPN7tinyobj10__points_tEEEvEENS_5decayIDTclsr19__to_address_helperIT_EE6__callclsr3stdE7declvalIRKS7_EEEEE4typeES9_, symObjAddr: 0x5E5AC, symBinAddr: 0x100060DE4, symSize: 0x24 }
  - { offsetInCU: 0x64DF0, offset: 0x64DF0, size: 0x8, addend: 0x0, symName: __ZNSt3__119__allocator_destroyB7v160006INS_9allocatorIN7tinyobj10__points_tEEENS_16reverse_iteratorINS5_IPS3_EEEES8_EEvRT_T0_T1_, symObjAddr: 0x5E8F4, symBinAddr: 0x10006112C, symSize: 0x70 }
  - { offsetInCU: 0x64E55, offset: 0x64E55, size: 0x8, addend: 0x0, symName: __ZNSt3__1neB7v160006INS_16reverse_iteratorIPN7tinyobj10__points_tEEES5_EEbRKNS1_IT_EERKNS1_IT0_EE, symObjAddr: 0x5E9A0, symBinAddr: 0x1000611D8, symSize: 0x60 }
  - { offsetInCU: 0x64EA1, offset: 0x64EA1, size: 0x8, addend: 0x0, symName: __ZNSt3__112__to_addressB7v160006INS_16reverse_iteratorINS1_IPN7tinyobj10__points_tEEEEEvEENS_5decayIDTclsr19__to_address_helperIT_EE6__callclsr3stdE7declvalIRKS8_EEEEE4typeESA_, symObjAddr: 0x5EA00, symBinAddr: 0x100061238, symSize: 0x24 }
  - { offsetInCU: 0x64F01, offset: 0x64F01, size: 0x8, addend: 0x0, symName: __ZNSt3__119__allocate_at_leastB7v160006INS_9allocatorIN7tinyobj6face_tEEEEENS_19__allocation_resultINS_16allocator_traitsIT_E7pointerEEERS7_m, symObjAddr: 0x5F53C, symBinAddr: 0x100061D74, symSize: 0x40 }
  - { offsetInCU: 0x64F44, offset: 0x64F44, size: 0x8, addend: 0x0, symName: __ZNSt3__142__uninitialized_allocator_move_if_noexceptB7v160006INS_9allocatorIN7tinyobj6face_tEEENS_16reverse_iteratorIPS3_EES7_S7_EET2_RT_T0_T1_S8_, symObjAddr: 0x5F6F0, symBinAddr: 0x100061F28, symSize: 0x12C }
  - { offsetInCU: 0x64FE5, offset: 0x64FE5, size: 0x8, addend: 0x0, symName: __ZNSt3__14swapB7v160006IPN7tinyobj6face_tEEENS_9enable_ifIXaasr21is_move_constructibleIT_EE5valuesr18is_move_assignableIS5_EE5valueEvE4typeERS5_S8_, symObjAddr: 0x5F868, symBinAddr: 0x1000620A0, symSize: 0x3C }
  - { offsetInCU: 0x65036, offset: 0x65036, size: 0x8, addend: 0x0, symName: __ZNSt3__122__make_exception_guardB7v160006INS_29_AllocatorDestroyRangeReverseINS_9allocatorIN7tinyobj6face_tEEENS_16reverse_iteratorIPS4_EEEEEENS_28__exception_guard_exceptionsIT_EESB_, symObjAddr: 0x5F950, symBinAddr: 0x100062188, symSize: 0x4C }
  - { offsetInCU: 0x6506C, offset: 0x6506C, size: 0x8, addend: 0x0, symName: __ZNSt3__1neB7v160006IPN7tinyobj6face_tES3_EEbRKNS_16reverse_iteratorIT_EERKNS4_IT0_EE, symObjAddr: 0x5F9E0, symBinAddr: 0x100062218, symSize: 0x48 }
  - { offsetInCU: 0x650B8, offset: 0x650B8, size: 0x8, addend: 0x0, symName: __ZNSt3__112__to_addressB7v160006INS_16reverse_iteratorIPN7tinyobj6face_tEEEvEENS_5decayIDTclsr19__to_address_helperIT_EE6__callclsr3stdE7declvalIRKS7_EEEEE4typeES9_, symObjAddr: 0x5FA5C, symBinAddr: 0x100062294, symSize: 0x24 }
  - { offsetInCU: 0x65118, offset: 0x65118, size: 0x8, addend: 0x0, symName: __ZNSt3__119__allocator_destroyB7v160006INS_9allocatorIN7tinyobj6face_tEEENS_16reverse_iteratorINS5_IPS3_EEEES8_EEvRT_T0_T1_, symObjAddr: 0x5FDB8, symBinAddr: 0x1000625F0, symSize: 0x70 }
  - { offsetInCU: 0x6517D, offset: 0x6517D, size: 0x8, addend: 0x0, symName: __ZNSt3__1neB7v160006INS_16reverse_iteratorIPN7tinyobj6face_tEEES5_EEbRKNS1_IT_EERKNS1_IT0_EE, symObjAddr: 0x5FE64, symBinAddr: 0x10006269C, symSize: 0x60 }
  - { offsetInCU: 0x651C9, offset: 0x651C9, size: 0x8, addend: 0x0, symName: __ZNSt3__112__to_addressB7v160006INS_16reverse_iteratorINS1_IPN7tinyobj6face_tEEEEEvEENS_5decayIDTclsr19__to_address_helperIT_EE6__callclsr3stdE7declvalIRKS8_EEEEE4typeESA_, symObjAddr: 0x5FEC4, symBinAddr: 0x1000626FC, symSize: 0x24 }
  - { offsetInCU: 0x65229, offset: 0x65229, size: 0x8, addend: 0x0, symName: __ZNSt3__1neB7v160006ERKNS_15__tree_iteratorINS_12__value_typeINS_12basic_stringIcNS_11char_traitsIcEENS_9allocatorIcEEEEiEEPNS_11__tree_nodeIS8_PvEElEESF_, symObjAddr: 0x603C8, symBinAddr: 0x100062C00, symSize: 0x34 }
  - { offsetInCU: 0x65266, offset: 0x65266, size: 0x8, addend: 0x0, symName: __ZNSt3__1eqB7v160006ERKNS_15__tree_iteratorINS_12__value_typeINS_12basic_stringIcNS_11char_traitsIcEENS_9allocatorIcEEEEiEEPNS_11__tree_nodeIS8_PvEElEESF_, symObjAddr: 0x604AC, symBinAddr: 0x100062CE4, symSize: 0x30 }
  - { offsetInCU: 0x652A3, offset: 0x652A3, size: 0x8, addend: 0x0, symName: __ZNSt3__1neB7v160006ERKNS_21__tree_const_iteratorINS_12__value_typeINS_12basic_stringIcNS_11char_traitsIcEENS_9allocatorIcEEEEiEEPNS_11__tree_nodeIS8_PvEElEESF_, symObjAddr: 0x60584, symBinAddr: 0x100062DBC, symSize: 0x34 }
  - { offsetInCU: 0x652E0, offset: 0x652E0, size: 0x8, addend: 0x0, symName: __ZNSt3__1eqB7v160006ERKNS_21__tree_const_iteratorINS_12__value_typeINS_12basic_stringIcNS_11char_traitsIcEENS_9allocatorIcEEEEiEEPNS_11__tree_nodeIS8_PvEElEESF_, symObjAddr: 0x605B8, symBinAddr: 0x100062DF0, symSize: 0x30 }
  - { offsetInCU: 0x653A1, offset: 0x653A1, size: 0x8, addend: 0x0, symName: __ZNSt3__122__make_exception_guardB7v160006INS_6vectorIN7tinyobj7index_tENS_9allocatorIS3_EEE16__destroy_vectorEEENS_28__exception_guard_exceptionsIT_EES9_, symObjAddr: 0x61BF8, symBinAddr: 0x100064430, symSize: 0x40 }
  - { offsetInCU: 0x653D6, offset: 0x653D6, size: 0x8, addend: 0x0, symName: __ZNSt3__130__uninitialized_allocator_copyB7v160006INS_9allocatorIN7tinyobj7index_tEEEPS3_S5_S5_EET2_RT_T0_T1_S6_, symObjAddr: 0x61E74, symBinAddr: 0x1000646AC, symSize: 0xF4 }
  - { offsetInCU: 0x65474, offset: 0x65474, size: 0x8, addend: 0x0, symName: __ZNSt3__122__make_exception_guardB7v160006INS_29_AllocatorDestroyRangeReverseINS_9allocatorIN7tinyobj7index_tEEEPS4_EEEENS_28__exception_guard_exceptionsIT_EES9_, symObjAddr: 0x61F68, symBinAddr: 0x1000647A0, symSize: 0x4C }
  - { offsetInCU: 0x654AA, offset: 0x654AA, size: 0x8, addend: 0x0, symName: __ZNSt3__119__allocator_destroyB7v160006INS_9allocatorIN7tinyobj7index_tEEENS_16reverse_iteratorIPS3_EES7_EEvRT_T0_T1_, symObjAddr: 0x621F8, symBinAddr: 0x100064A30, symSize: 0x70 }
  - { offsetInCU: 0x6550D, offset: 0x6550D, size: 0x8, addend: 0x0, symName: __ZNSt3__112__to_addressB7v160006INS_16reverse_iteratorIPN7tinyobj7index_tEEEvEENS_5decayIDTclsr19__to_address_helperIT_EE6__callclsr3stdE7declvalIRKS7_EEEEE4typeES9_, symObjAddr: 0x62268, symBinAddr: 0x100064AA0, symSize: 0x24 }
  - { offsetInCU: 0x6556D, offset: 0x6556D, size: 0x8, addend: 0x0, symName: __ZNSt3__122__make_exception_guardB7v160006INS_6vectorIjNS_9allocatorIjEEE16__destroy_vectorEEENS_28__exception_guard_exceptionsIT_EES7_, symObjAddr: 0x62458, symBinAddr: 0x100064C90, symSize: 0x40 }
  - { offsetInCU: 0x655A2, offset: 0x655A2, size: 0x8, addend: 0x0, symName: __ZNSt3__130__uninitialized_allocator_copyB7v160006INS_9allocatorIjEEPjS3_S3_EET2_RT_T0_T1_S4_, symObjAddr: 0x62670, symBinAddr: 0x100064EA8, symSize: 0xF4 }
  - { offsetInCU: 0x65640, offset: 0x65640, size: 0x8, addend: 0x0, symName: __ZNSt3__122__make_exception_guardB7v160006INS_29_AllocatorDestroyRangeReverseINS_9allocatorIjEEPjEEEENS_28__exception_guard_exceptionsIT_EES7_, symObjAddr: 0x62764, symBinAddr: 0x100064F9C, symSize: 0x4C }
  - { offsetInCU: 0x65676, offset: 0x65676, size: 0x8, addend: 0x0, symName: __ZNSt3__119__allocator_destroyB7v160006INS_9allocatorIjEENS_16reverse_iteratorIPjEES5_EEvRT_T0_T1_, symObjAddr: 0x629EC, symBinAddr: 0x100065224, symSize: 0x70 }
  - { offsetInCU: 0x656D9, offset: 0x656D9, size: 0x8, addend: 0x0, symName: __ZNSt3__112__to_addressB7v160006INS_16reverse_iteratorIPjEEvEENS_5decayIDTclsr19__to_address_helperIT_EE6__callclsr3stdE7declvalIRKS5_EEEEE4typeES7_, symObjAddr: 0x62A5C, symBinAddr: 0x100065294, symSize: 0x24 }
  - { offsetInCU: 0x65739, offset: 0x65739, size: 0x8, addend: 0x0, symName: __ZNSt3__122__make_exception_guardB7v160006INS_6vectorIN7tinyobj5tag_tENS_9allocatorIS3_EEE16__destroy_vectorEEENS_28__exception_guard_exceptionsIT_EES9_, symObjAddr: 0x62C88, symBinAddr: 0x1000654C0, symSize: 0x40 }
  - { offsetInCU: 0x6576E, offset: 0x6576E, size: 0x8, addend: 0x0, symName: __ZNSt3__119__allocate_at_leastB7v160006INS_9allocatorIN7tinyobj7shape_tEEEEENS_19__allocation_resultINS_16allocator_traitsIT_E7pointerEEERS7_m, symObjAddr: 0x63350, symBinAddr: 0x100065B88, symSize: 0x40 }
  - { offsetInCU: 0x657B1, offset: 0x657B1, size: 0x8, addend: 0x0, symName: __ZNSt3__142__uninitialized_allocator_move_if_noexceptB7v160006INS_9allocatorIN7tinyobj7shape_tEEENS_16reverse_iteratorIPS3_EES7_S7_EET2_RT_T0_T1_S8_, symObjAddr: 0x63508, symBinAddr: 0x100065D40, symSize: 0x12C }
  - { offsetInCU: 0x65852, offset: 0x65852, size: 0x8, addend: 0x0, symName: __ZNSt3__14swapB7v160006IPN7tinyobj7shape_tEEENS_9enable_ifIXaasr21is_move_constructibleIT_EE5valuesr18is_move_assignableIS5_EE5valueEvE4typeERS5_S8_, symObjAddr: 0x63680, symBinAddr: 0x100065EB8, symSize: 0x3C }
  - { offsetInCU: 0x658A3, offset: 0x658A3, size: 0x8, addend: 0x0, symName: __ZNSt3__122__make_exception_guardB7v160006INS_29_AllocatorDestroyRangeReverseINS_9allocatorIN7tinyobj7shape_tEEENS_16reverse_iteratorIPS4_EEEEEENS_28__exception_guard_exceptionsIT_EESB_, symObjAddr: 0x63784, symBinAddr: 0x100065FBC, symSize: 0x4C }
  - { offsetInCU: 0x658D9, offset: 0x658D9, size: 0x8, addend: 0x0, symName: __ZNSt3__1neB7v160006IPN7tinyobj7shape_tES3_EEbRKNS_16reverse_iteratorIT_EERKNS4_IT0_EE, symObjAddr: 0x63814, symBinAddr: 0x10006604C, symSize: 0x48 }
  - { offsetInCU: 0x65925, offset: 0x65925, size: 0x8, addend: 0x0, symName: __ZNSt3__112__to_addressB7v160006INS_16reverse_iteratorIPN7tinyobj7shape_tEEEvEENS_5decayIDTclsr19__to_address_helperIT_EE6__callclsr3stdE7declvalIRKS7_EEEEE4typeES9_, symObjAddr: 0x63890, symBinAddr: 0x1000660C8, symSize: 0x24 }
  - { offsetInCU: 0x65985, offset: 0x65985, size: 0x8, addend: 0x0, symName: __ZNSt3__119__allocator_destroyB7v160006INS_9allocatorIN7tinyobj7shape_tEEENS_16reverse_iteratorINS5_IPS3_EEEES8_EEvRT_T0_T1_, symObjAddr: 0x640D4, symBinAddr: 0x10006690C, symSize: 0x70 }
  - { offsetInCU: 0x659EA, offset: 0x659EA, size: 0x8, addend: 0x0, symName: __ZNSt3__1neB7v160006INS_16reverse_iteratorIPN7tinyobj7shape_tEEES5_EEbRKNS1_IT_EERKNS1_IT0_EE, symObjAddr: 0x64180, symBinAddr: 0x1000669B8, symSize: 0x60 }
  - { offsetInCU: 0x65A36, offset: 0x65A36, size: 0x8, addend: 0x0, symName: __ZNSt3__112__to_addressB7v160006INS_16reverse_iteratorINS1_IPN7tinyobj7shape_tEEEEEvEENS_5decayIDTclsr19__to_address_helperIT_EE6__callclsr3stdE7declvalIRKS8_EEEEE4typeESA_, symObjAddr: 0x641E0, symBinAddr: 0x100066A18, symSize: 0x24 }
  - { offsetInCU: 0x65A96, offset: 0x65A96, size: 0x8, addend: 0x0, symName: __ZNSt3__142__uninitialized_allocator_move_if_noexceptB7v160006INS_9allocatorIN7tinyobj5tag_tEEENS_16reverse_iteratorIPS3_EES7_S7_EET2_RT_T0_T1_S8_, symObjAddr: 0x655B4, symBinAddr: 0x100067DEC, symSize: 0x11C }
  - { offsetInCU: 0x65B37, offset: 0x65B37, size: 0x8, addend: 0x0, symName: __ZNSt3__14swapB7v160006IPN7tinyobj5tag_tEEENS_9enable_ifIXaasr21is_move_constructibleIT_EE5valuesr18is_move_assignableIS5_EE5valueEvE4typeERS5_S8_, symObjAddr: 0x656D0, symBinAddr: 0x100067F08, symSize: 0x3C }
  - { offsetInCU: 0x65B88, offset: 0x65B88, size: 0x8, addend: 0x0, symName: __ZNSt3__122__make_exception_guardB7v160006INS_29_AllocatorDestroyRangeReverseINS_9allocatorIN7tinyobj5tag_tEEENS_16reverse_iteratorIPS4_EEEEEENS_28__exception_guard_exceptionsIT_EESB_, symObjAddr: 0x6570C, symBinAddr: 0x100067F44, symSize: 0x4C }
  - { offsetInCU: 0x65BBF, offset: 0x65BBF, size: 0x8, addend: 0x0, symName: __ZNSt3__115__debug_db_swapB7v160006INS_6vectorIfNS_9allocatorIfEEEEEEvPT_S6_, symObjAddr: 0x65ACC, symBinAddr: 0x100068304, symSize: 0x14 }
  - { offsetInCU: 0x65BFF, offset: 0x65BFF, size: 0x8, addend: 0x0, symName: __ZNSt3__115__debug_db_swapB7v160006INS_6vectorINS_12basic_stringIcNS_11char_traitsIcEENS_9allocatorIcEEEENS5_IS7_EEEEEEvPT_SB_, symObjAddr: 0x65BBC, symBinAddr: 0x1000683F4, symSize: 0x14 }
  - { offsetInCU: 0x65C3E, offset: 0x65C3E, size: 0x8, addend: 0x0, symName: __ZNSt3__119__allocator_destroyB7v160006INS_9allocatorIN7tinyobj5tag_tEEENS_16reverse_iteratorINS5_IPS3_EEEES8_EEvRT_T0_T1_, symObjAddr: 0x65CD4, symBinAddr: 0x10006850C, symSize: 0x70 }
  - { offsetInCU: 0x65CA3, offset: 0x65CA3, size: 0x8, addend: 0x0, symName: __ZNSt3__1neB7v160006INS_16reverse_iteratorIPN7tinyobj5tag_tEEES5_EEbRKNS1_IT_EERKNS1_IT0_EE, symObjAddr: 0x65D80, symBinAddr: 0x1000685B8, symSize: 0x60 }
  - { offsetInCU: 0x65CEF, offset: 0x65CEF, size: 0x8, addend: 0x0, symName: __ZNSt3__112__to_addressB7v160006INS_16reverse_iteratorINS1_IPN7tinyobj5tag_tEEEEEvEENS_5decayIDTclsr19__to_address_helperIT_EE6__callclsr3stdE7declvalIRKS8_EEEEE4typeESA_, symObjAddr: 0x65DE0, symBinAddr: 0x100068618, symSize: 0x24 }
  - { offsetInCU: 0x65D50, offset: 0x65D50, size: 0x8, addend: 0x0, symName: __ZNSt3__116__swap_allocatorB7v160006INS_9allocatorIfEEEEvRT_S4_NS_17integral_constantIbLb0EEE, symObjAddr: 0x66120, symBinAddr: 0x100068958, symSize: 0x14 }
  - { offsetInCU: 0x65D95, offset: 0x65D95, size: 0x8, addend: 0x0, symName: __ZNSt3__116__swap_allocatorB7v160006INS_9allocatorIN7tinyobj13skin_weight_tEEEEEvRT_S6_NS_17integral_constantIbLb0EEE, symObjAddr: 0x66134, symBinAddr: 0x10006896C, symSize: 0x14 }
  - { offsetInCU: 0x65DDA, offset: 0x65DDA, size: 0x8, addend: 0x0, symName: __ZNSt3__115__debug_db_swapB7v160006INS_6vectorIN7tinyobj13skin_weight_tENS_9allocatorIS3_EEEEEEvPT_S8_, symObjAddr: 0x66148, symBinAddr: 0x100068980, symSize: 0x14 }
  - { offsetInCU: 0x65E1A, offset: 0x65E1A, size: 0x8, addend: 0x0, symName: __ZNSt3__119__debug_db_insert_cB7v160006INS_6vectorIPKcNS_9allocatorIS3_EEEEEEvPT_, symObjAddr: 0x661F0, symBinAddr: 0x100068A28, symSize: 0x10 }
  - { offsetInCU: 0x65E4C, offset: 0x65E4C, size: 0x8, addend: 0x0, symName: __ZNSt3__118__debug_db_erase_cB7v160006INS_6vectorIPKcNS_9allocatorIS3_EEEEEEvPT_, symObjAddr: 0x664B4, symBinAddr: 0x100068CEC, symSize: 0x10 }
  - { offsetInCU: 0x65E7E, offset: 0x65E7E, size: 0x8, addend: 0x0, symName: __ZNSt3__112__to_addressB7v160006IPKcEEPT_S4_, symObjAddr: 0x665D0, symBinAddr: 0x100068E08, symSize: 0x14 }
  - { offsetInCU: 0x65EB4, offset: 0x65EB4, size: 0x8, addend: 0x0, symName: __ZNSt3__120__throw_out_of_rangeB7v160006EPKc, symObjAddr: 0x66874, symBinAddr: 0x1000690AC, symSize: 0x64 }
  - { offsetInCU: 0x65EDE, offset: 0x65EDE, size: 0x8, addend: 0x0, symName: __ZNSt3__119__allocate_at_leastB7v160006INS_9allocatorIPKcEEEENS_19__allocation_resultINS_16allocator_traitsIT_E7pointerEEERS7_m, symObjAddr: 0x6722C, symBinAddr: 0x100069A64, symSize: 0x40 }
  - { offsetInCU: 0x65F21, offset: 0x65F21, size: 0x8, addend: 0x0, symName: __ZNSt3__142__uninitialized_allocator_move_if_noexceptB7v160006INS_9allocatorIPKcEENS_16reverse_iteratorIPS3_EES7_S3_vEET1_RT_T0_SB_S8_, symObjAddr: 0x674AC, symBinAddr: 0x100069CE4, symSize: 0x78 }
  - { offsetInCU: 0x65FA0, offset: 0x65FA0, size: 0x8, addend: 0x0, symName: __ZNSt3__14swapB7v160006IPPKcEENS_9enable_ifIXaasr21is_move_constructibleIT_EE5valuesr18is_move_assignableIS5_EE5valueEvE4typeERS5_S8_, symObjAddr: 0x67570, symBinAddr: 0x100069DA8, symSize: 0x3C }
  - { offsetInCU: 0x65FF2, offset: 0x65FF2, size: 0x8, addend: 0x0, symName: __ZNSt3__125__debug_db_invalidate_allB7v160006INS_6vectorIPKcNS_9allocatorIS3_EEEEEEvPT_, symObjAddr: 0x67658, symBinAddr: 0x100069E90, symSize: 0x10 }
  - { offsetInCU: 0x66023, offset: 0x66023, size: 0x8, addend: 0x0, symName: __ZNSt3__14moveB7v160006INS_16reverse_iteratorIPPKcEES5_EET0_T_S7_S6_, symObjAddr: 0x67668, symBinAddr: 0x100069EA0, symSize: 0x78 }
  - { offsetInCU: 0x6607D, offset: 0x6607D, size: 0x8, addend: 0x0, symName: __ZNSt3__16__moveB7v160006INS_17_ClassicAlgPolicyENS_16reverse_iteratorIPPKcEES6_S6_EENS_4pairIT0_T2_EES8_T1_S9_, symObjAddr: 0x676E0, symBinAddr: 0x100069F18, symSize: 0x64 }
  - { offsetInCU: 0x660E9, offset: 0x660E9, size: 0x8, addend: 0x0, symName: __ZNSt3__123__dispatch_copy_or_moveB7v160006INS_17_ClassicAlgPolicyENS_11__move_loopIS1_EENS_14__move_trivialENS_16reverse_iteratorIPPKcEES9_S9_EENS_4pairIT2_T4_EESB_T3_SC_, symObjAddr: 0x67744, symBinAddr: 0x100069F7C, symSize: 0x64 }
  - { offsetInCU: 0x66167, offset: 0x66167, size: 0x8, addend: 0x0, symName: __ZNSt3__121__unwrap_and_dispatchB7v160006INS_10__overloadINS_11__move_loopINS_17_ClassicAlgPolicyEEENS_14__move_trivialEEENS_16reverse_iteratorIPPKcEESB_SB_Li0EEENS_4pairIT0_T2_EESD_T1_SE_, symObjAddr: 0x677A8, symBinAddr: 0x100069FE0, symSize: 0x12C }
  - { offsetInCU: 0x661F7, offset: 0x661F7, size: 0x8, addend: 0x0, symName: __ZNSt3__114__unwrap_rangeB7v160006INS_16reverse_iteratorIPPKcEES5_EENS_4pairIT0_S7_EET_S9_, symObjAddr: 0x678D4, symBinAddr: 0x10006A10C, symSize: 0x84 }
  - { offsetInCU: 0x66317, offset: 0x66317, size: 0x8, addend: 0x0, symName: __ZNSt3__113__unwrap_iterB7v160006INS_16reverse_iteratorIPPKcEENS_18__unwrap_iter_implIS5_Lb0EEELi0EEEDTclsrT0_8__unwrapclsr3stdE7declvalIT_EEEES9_, symObjAddr: 0x679F8, symBinAddr: 0x10006A230, symSize: 0x44 }
  - { offsetInCU: 0x6635B, offset: 0x6635B, size: 0x8, addend: 0x0, symName: __ZNSt3__19make_pairB7v160006INS_16reverse_iteratorIPPKcEES5_EENS_4pairINS_18__unwrap_ref_decayIT_E4typeENS7_IT0_E4typeEEEOS8_OSB_, symObjAddr: 0x67A3C, symBinAddr: 0x10006A274, symSize: 0x38 }
  - { offsetInCU: 0x663AA, offset: 0x663AA, size: 0x8, addend: 0x0, symName: __ZNSt3__114__rewrap_rangeB7v160006INS_16reverse_iteratorIPPKcEES5_EET_S6_T0_, symObjAddr: 0x67A74, symBinAddr: 0x10006A2AC, symSize: 0x5C }
  - { offsetInCU: 0x663F6, offset: 0x663F6, size: 0x8, addend: 0x0, symName: __ZNSt3__113__rewrap_iterB7v160006INS_16reverse_iteratorIPPKcEES5_NS_18__unwrap_iter_implIS5_Lb0EEEEET_S8_T0_, symObjAddr: 0x67AD0, symBinAddr: 0x10006A308, symSize: 0x74 }
  - { offsetInCU: 0x6644B, offset: 0x6644B, size: 0x8, addend: 0x0, symName: __ZNSt3__1neB7v160006IPPKcS3_EEbRKNS_16reverse_iteratorIT_EERKNS4_IT0_EE, symObjAddr: 0x67B44, symBinAddr: 0x10006A37C, symSize: 0x48 }
  - { offsetInCU: 0x66503, offset: 0x66503, size: 0x8, addend: 0x0, symName: __ZNSt3__118__str_find_last_ofB7v160006IcmNS_11char_traitsIcEELm18446744073709551615EEET0_PKT_S3_S6_S3_S3_, symObjAddr: 0x67FB8, symBinAddr: 0x10006A7F0, symSize: 0xFC }
  - { offsetInCU: 0x665D6, offset: 0x665D6, size: 0x8, addend: 0x0, symName: __ZNSt3__119__debug_db_insert_cB7v160006INS_6vectorINS1_I4FaceNS_9allocatorIS2_EEEENS3_IS5_EEEEEEvPT_, symObjAddr: 0x68280, symBinAddr: 0x10006AAB8, symSize: 0x10 }
  - { offsetInCU: 0x66608, offset: 0x66608, size: 0x8, addend: 0x0, symName: __ZNSt3__118__debug_db_erase_cB7v160006INS_6vectorINS1_I4FaceNS_9allocatorIS2_EEEENS3_IS5_EEEEEEvPT_, symObjAddr: 0x68560, symBinAddr: 0x10006AD98, symSize: 0x10 }
  - { offsetInCU: 0x6663A, offset: 0x6663A, size: 0x8, addend: 0x0, symName: __ZNSt3__112__to_addressB7v160006INS_6vectorI4FaceNS_9allocatorIS2_EEEEEEPT_S7_, symObjAddr: 0x6867C, symBinAddr: 0x10006AEB4, symSize: 0x14 }
  - { offsetInCU: 0x6666F, offset: 0x6666F, size: 0x8, addend: 0x0, symName: __ZNSt3__142__uninitialized_allocator_move_if_noexceptB7v160006INS_9allocatorI4Vec3EENS_16reverse_iteratorIPS2_EES6_S2_vEET1_RT_T0_SA_S7_, symObjAddr: 0x68DD8, symBinAddr: 0x10006B610, symSize: 0x78 }
  - { offsetInCU: 0x666EE, offset: 0x666EE, size: 0x8, addend: 0x0, symName: __ZNSt3__14swapB7v160006IP4Vec3EENS_9enable_ifIXaasr21is_move_constructibleIT_EE5valuesr18is_move_assignableIS4_EE5valueEvE4typeERS4_S7_, symObjAddr: 0x68E50, symBinAddr: 0x10006B688, symSize: 0x3C }
  - { offsetInCU: 0x6673F, offset: 0x6673F, size: 0x8, addend: 0x0, symName: __ZNSt3__14moveB7v160006INS_16reverse_iteratorIP4Vec3EES4_EET0_T_S6_S5_, symObjAddr: 0x68E8C, symBinAddr: 0x10006B6C4, symSize: 0x78 }
  - { offsetInCU: 0x66799, offset: 0x66799, size: 0x8, addend: 0x0, symName: __ZNSt3__16__moveB7v160006INS_17_ClassicAlgPolicyENS_16reverse_iteratorIP4Vec3EES5_S5_EENS_4pairIT0_T2_EES7_T1_S8_, symObjAddr: 0x68F04, symBinAddr: 0x10006B73C, symSize: 0x64 }
  - { offsetInCU: 0x66805, offset: 0x66805, size: 0x8, addend: 0x0, symName: __ZNSt3__123__dispatch_copy_or_moveB7v160006INS_17_ClassicAlgPolicyENS_11__move_loopIS1_EENS_14__move_trivialENS_16reverse_iteratorIP4Vec3EES8_S8_EENS_4pairIT2_T4_EESA_T3_SB_, symObjAddr: 0x68F68, symBinAddr: 0x10006B7A0, symSize: 0x64 }
  - { offsetInCU: 0x66883, offset: 0x66883, size: 0x8, addend: 0x0, symName: __ZNSt3__121__unwrap_and_dispatchB7v160006INS_10__overloadINS_11__move_loopINS_17_ClassicAlgPolicyEEENS_14__move_trivialEEENS_16reverse_iteratorIP4Vec3EESA_SA_Li0EEENS_4pairIT0_T2_EESC_T1_SD_, symObjAddr: 0x68FCC, symBinAddr: 0x10006B804, symSize: 0x12C }
  - { offsetInCU: 0x66913, offset: 0x66913, size: 0x8, addend: 0x0, symName: __ZNSt3__114__unwrap_rangeB7v160006INS_16reverse_iteratorIP4Vec3EES4_EENS_4pairIT0_S6_EET_S8_, symObjAddr: 0x690F8, symBinAddr: 0x10006B930, symSize: 0x84 }
  - { offsetInCU: 0x66A33, offset: 0x66A33, size: 0x8, addend: 0x0, symName: __ZNSt3__113__unwrap_iterB7v160006INS_16reverse_iteratorIP4Vec3EENS_18__unwrap_iter_implIS4_Lb0EEELi0EEEDTclsrT0_8__unwrapclsr3stdE7declvalIT_EEEES8_, symObjAddr: 0x69224, symBinAddr: 0x10006BA5C, symSize: 0x44 }
  - { offsetInCU: 0x66A77, offset: 0x66A77, size: 0x8, addend: 0x0, symName: __ZNSt3__19make_pairB7v160006INS_16reverse_iteratorIP4Vec3EES4_EENS_4pairINS_18__unwrap_ref_decayIT_E4typeENS6_IT0_E4typeEEEOS7_OSA_, symObjAddr: 0x69268, symBinAddr: 0x10006BAA0, symSize: 0x38 }
  - { offsetInCU: 0x66AC6, offset: 0x66AC6, size: 0x8, addend: 0x0, symName: __ZNSt3__114__rewrap_rangeB7v160006INS_16reverse_iteratorIP4Vec3EES4_EET_S5_T0_, symObjAddr: 0x692A0, symBinAddr: 0x10006BAD8, symSize: 0x5C }
  - { offsetInCU: 0x66B12, offset: 0x66B12, size: 0x8, addend: 0x0, symName: __ZNSt3__113__rewrap_iterB7v160006INS_16reverse_iteratorIP4Vec3EES4_NS_18__unwrap_iter_implIS4_Lb0EEEEET_S7_T0_, symObjAddr: 0x692FC, symBinAddr: 0x10006BB34, symSize: 0x74 }
  - { offsetInCU: 0x66BD3, offset: 0x66BD3, size: 0x8, addend: 0x0, symName: __ZNSt3__122__make_exception_guardB7v160006INS_6vectorI4Vec3NS_9allocatorIS2_EEE16__destroy_vectorEEENS_28__exception_guard_exceptionsIT_EES8_, symObjAddr: 0x697A4, symBinAddr: 0x10006BFDC, symSize: 0x40 }
  - { offsetInCU: 0x66C09, offset: 0x66C09, size: 0x8, addend: 0x0, symName: __ZNSt3__115__debug_db_swapB7v160006INS_6vectorI4Vec3NS_9allocatorIS2_EEEEEEvPT_S7_, symObjAddr: 0x69CA4, symBinAddr: 0x10006C4DC, symSize: 0x14 }
  - { offsetInCU: 0x66C48, offset: 0x66C48, size: 0x8, addend: 0x0, symName: __ZNSt3__142__uninitialized_allocator_move_if_noexceptB7v160006INS_9allocatorI4FaceEENS_16reverse_iteratorIPS2_EES6_S6_EET2_RT_T0_T1_S7_, symObjAddr: 0x6A06C, symBinAddr: 0x10006C8A4, symSize: 0x11C }
  - { offsetInCU: 0x66CE9, offset: 0x66CE9, size: 0x8, addend: 0x0, symName: __ZNSt3__14swapB7v160006IP4FaceEENS_9enable_ifIXaasr21is_move_constructibleIT_EE5valuesr18is_move_assignableIS4_EE5valueEvE4typeERS4_S7_, symObjAddr: 0x6A188, symBinAddr: 0x10006C9C0, symSize: 0x3C }
  - { offsetInCU: 0x66D3A, offset: 0x66D3A, size: 0x8, addend: 0x0, symName: __ZNSt3__122__make_exception_guardB7v160006INS_29_AllocatorDestroyRangeReverseINS_9allocatorI4FaceEENS_16reverse_iteratorIPS3_EEEEEENS_28__exception_guard_exceptionsIT_EESA_, symObjAddr: 0x6A1C4, symBinAddr: 0x10006C9FC, symSize: 0x4C }
  - { offsetInCU: 0x66D70, offset: 0x66D70, size: 0x8, addend: 0x0, symName: __ZNSt3__119__allocator_destroyB7v160006INS_9allocatorI4FaceEENS_16reverse_iteratorINS4_IPS2_EEEES7_EEvRT_T0_T1_, symObjAddr: 0x6A43C, symBinAddr: 0x10006CC74, symSize: 0x70 }
  - { offsetInCU: 0x66DD5, offset: 0x66DD5, size: 0x8, addend: 0x0, symName: __ZNSt3__1neB7v160006INS_16reverse_iteratorIP4FaceEES4_EEbRKNS1_IT_EERKNS1_IT0_EE, symObjAddr: 0x6A4E8, symBinAddr: 0x10006CD20, symSize: 0x60 }
  - { offsetInCU: 0x66E21, offset: 0x66E21, size: 0x8, addend: 0x0, symName: __ZNSt3__112__to_addressB7v160006INS_16reverse_iteratorINS1_IP4FaceEEEEvEENS_5decayIDTclsr19__to_address_helperIT_EE6__callclsr3stdE7declvalIRKS7_EEEEE4typeES9_, symObjAddr: 0x6A548, symBinAddr: 0x10006CD80, symSize: 0x24 }
  - { offsetInCU: 0x66E81, offset: 0x66E81, size: 0x8, addend: 0x0, symName: __ZNSt3__122__make_exception_guardB7v160006INS_6vectorI4FaceNS_9allocatorIS2_EEE16__destroy_vectorEEENS_28__exception_guard_exceptionsIT_EES8_, symObjAddr: 0x6ACF8, symBinAddr: 0x10006D530, symSize: 0x40 }
  - { offsetInCU: 0x66EB6, offset: 0x66EB6, size: 0x8, addend: 0x0, symName: __ZNSt3__119__allocate_at_leastB7v160006INS_9allocatorINS_6vectorI4FaceNS1_IS3_EEEEEEEENS_19__allocation_resultINS_16allocator_traitsIT_E7pointerEEERS9_m, symObjAddr: 0x6B314, symBinAddr: 0x10006DB4C, symSize: 0x40 }
  - { offsetInCU: 0x66EF9, offset: 0x66EF9, size: 0x8, addend: 0x0, symName: __ZNSt3__142__uninitialized_allocator_move_if_noexceptB7v160006INS_9allocatorINS_6vectorI4FaceNS1_IS3_EEEEEENS_16reverse_iteratorIPS5_EES9_S9_EET2_RT_T0_T1_SA_, symObjAddr: 0x6B4CC, symBinAddr: 0x10006DD04, symSize: 0x12C }
  - { offsetInCU: 0x66F9A, offset: 0x66F9A, size: 0x8, addend: 0x0, symName: __ZNSt3__14swapB7v160006IPNS_6vectorI4FaceNS_9allocatorIS2_EEEEEENS_9enable_ifIXaasr21is_move_constructibleIT_EE5valuesr18is_move_assignableIS8_EE5valueEvE4typeERS8_SB_, symObjAddr: 0x6B644, symBinAddr: 0x10006DE7C, symSize: 0x3C }
  - { offsetInCU: 0x66FEC, offset: 0x66FEC, size: 0x8, addend: 0x0, symName: __ZNSt3__125__debug_db_invalidate_allB7v160006INS_6vectorINS1_I4FaceNS_9allocatorIS2_EEEENS3_IS5_EEEEEEvPT_, symObjAddr: 0x6B748, symBinAddr: 0x10006DF80, symSize: 0x10 }
  - { offsetInCU: 0x6701D, offset: 0x6701D, size: 0x8, addend: 0x0, symName: __ZNSt3__122__make_exception_guardB7v160006INS_29_AllocatorDestroyRangeReverseINS_9allocatorINS_6vectorI4FaceNS2_IS4_EEEEEENS_16reverse_iteratorIPS6_EEEEEENS_28__exception_guard_exceptionsIT_EESD_, symObjAddr: 0x6B758, symBinAddr: 0x10006DF90, symSize: 0x4C }
  - { offsetInCU: 0x67053, offset: 0x67053, size: 0x8, addend: 0x0, symName: __ZNSt3__1neB7v160006IPNS_6vectorI4FaceNS_9allocatorIS2_EEEES6_EEbRKNS_16reverse_iteratorIT_EERKNS7_IT0_EE, symObjAddr: 0x6B7E8, symBinAddr: 0x10006E020, symSize: 0x48 }
  - { offsetInCU: 0x6709F, offset: 0x6709F, size: 0x8, addend: 0x0, symName: __ZNSt3__112__to_addressB7v160006INS_16reverse_iteratorIPNS_6vectorI4FaceNS_9allocatorIS3_EEEEEEvEENS_5decayIDTclsr19__to_address_helperIT_EE6__callclsr3stdE7declvalIRKSA_EEEEE4typeESC_, symObjAddr: 0x6B864, symBinAddr: 0x10006E09C, symSize: 0x24 }
  - { offsetInCU: 0x670D6, offset: 0x670D6, size: 0x8, addend: 0x0, symName: __ZNSt3__115__debug_db_swapB7v160006INS_6vectorI4FaceNS_9allocatorIS2_EEEEEEvPT_S7_, symObjAddr: 0x6BAF4, symBinAddr: 0x10006E32C, symSize: 0x14 }
  - { offsetInCU: 0x6713F, offset: 0x6713F, size: 0x8, addend: 0x0, symName: __ZNSt3__119__allocator_destroyB7v160006INS_9allocatorINS_6vectorI4FaceNS1_IS3_EEEEEENS_16reverse_iteratorINS7_IPS5_EEEESA_EEvRT_T0_T1_, symObjAddr: 0x6BC68, symBinAddr: 0x10006E4A0, symSize: 0x70 }
  - { offsetInCU: 0x671A4, offset: 0x671A4, size: 0x8, addend: 0x0, symName: __ZNSt3__1neB7v160006INS_16reverse_iteratorIPNS_6vectorI4FaceNS_9allocatorIS3_EEEEEES8_EEbRKNS1_IT_EERKNS1_IT0_EE, symObjAddr: 0x6BD14, symBinAddr: 0x10006E54C, symSize: 0x60 }
  - { offsetInCU: 0x671F0, offset: 0x671F0, size: 0x8, addend: 0x0, symName: __ZNSt3__112__to_addressB7v160006INS_16reverse_iteratorINS1_IPNS_6vectorI4FaceNS_9allocatorIS3_EEEEEEEEvEENS_5decayIDTclsr19__to_address_helperIT_EE6__callclsr3stdE7declvalIRKSB_EEEEE4typeESD_, symObjAddr: 0x6BD74, symBinAddr: 0x10006E5AC, symSize: 0x24 }
  - { offsetInCU: 0x68A57, offset: 0x68A57, size: 0x8, addend: 0x0, symName: __ZSt28__throw_bad_array_new_lengthB7v160006v, symObjAddr: 0x11FD4, symBinAddr: 0x10001480C, symSize: 0x34 }
  - { offsetInCU: 0x691E3, offset: 0x691E3, size: 0x8, addend: 0x0, symName: __Z3powB7v160006IdiENSt3__19enable_ifIXaasr3std13is_arithmeticIT_EE5valuesr3std13is_arithmeticIT0_EE5valueENS0_9__promoteIS2_S3_vEEE4type4typeES2_S3_, symObjAddr: 0x116A0, symBinAddr: 0x100013ED8, symSize: 0x38 }
  - { offsetInCU: 0x69DEB, offset: 0x69DEB, size: 0x8, addend: 0x0, symName: __ZNSt3__16vectorIjNS_9allocatorIjEEE26__swap_out_circular_bufferERNS_14__split_bufferIjRS2_EE, symObjAddr: 0x16FE4, symBinAddr: 0x10001981C, symSize: 0x118 }
  - { offsetInCU: 0x69FBD, offset: 0x69FBD, size: 0x8, addend: 0x0, symName: __ZNSt3__16vectorIiNS_9allocatorIiEEE26__swap_out_circular_bufferERNS_14__split_bufferIiRS2_EE, symObjAddr: 0x18750, symBinAddr: 0x10001AF88, symSize: 0x118 }
  - { offsetInCU: 0x6A1E7, offset: 0x6A1E7, size: 0x8, addend: 0x0, symName: __ZNSt3__16vectorINS_5arrayIfLm2EEENS_9allocatorIS2_EEE26__swap_out_circular_bufferERNS_14__split_bufferIS2_RS4_EE, symObjAddr: 0x1A2B4, symBinAddr: 0x10001CAEC, symSize: 0x118 }
  - { offsetInCU: 0x6A3E8, offset: 0x6A3E8, size: 0x8, addend: 0x0, symName: __ZNSt3__16vectorINS0_INS_5arrayIfLm2EEENS_9allocatorIS2_EEEENS3_IS5_EEE26__swap_out_circular_bufferERNS_14__split_bufferIS5_RS6_EE, symObjAddr: 0x1C354, symBinAddr: 0x10001EB8C, symSize: 0x118 }
  - { offsetInCU: 0x6AACB, offset: 0x6AACB, size: 0x8, addend: 0x0, symName: __ZN6mapbox6earcutIjNSt3__16vectorINS2_INS1_5arrayIfLm2EEENS1_9allocatorIS4_EEEENS5_IS7_EEEEEENS2_IT_NS5_ISA_EEEERKT0_, symObjAddr: 0x16888, symBinAddr: 0x1000190C0, symSize: 0x8C }
  - { offsetInCU: 0x6AD52, offset: 0x6AD52, size: 0x8, addend: 0x0, symName: __ZNSt3__16vectorIPN6mapbox6detail6EarcutIjE4NodeENS_9allocatorIS6_EEE26__swap_out_circular_bufferERNS_14__split_bufferIS6_RS8_EE, symObjAddr: 0x1F7F8, symBinAddr: 0x100022030, symSize: 0x118 }
  - { offsetInCU: 0x6C28D, offset: 0x6C28D, size: 0x8, addend: 0x0, symName: __Z3powB7v160006IiiENSt3__19enable_ifIXaasr3std13is_arithmeticIT_EE5valuesr3std13is_arithmeticIT0_EE5valueENS0_9__promoteIS2_S3_vEEE4type4typeES2_S3_, symObjAddr: 0x30804, symBinAddr: 0x10003303C, symSize: 0x44 }
  - { offsetInCU: 0x6C7E3, offset: 0x6C7E3, size: 0x8, addend: 0x0, symName: __ZNSt3__16vectorI7BVHNodeNS_9allocatorIS1_EEE26__swap_out_circular_bufferERNS_14__split_bufferIS1_RS3_EE, symObjAddr: 0x33C08, symBinAddr: 0x100036440, symSize: 0x118 }
  - { offsetInCU: 0x6CC46, offset: 0x6CC46, size: 0x8, addend: 0x0, symName: __ZNSt3__16vectorINS0_I3RGBNS_9allocatorIS1_EEEENS2_IS4_EEE26__swap_out_circular_bufferERNS_14__split_bufferIS4_RS5_EE, symObjAddr: 0x36828, symBinAddr: 0x100039060, symSize: 0x118 }
  - { offsetInCU: 0x6CCDF, offset: 0x6CCDF, size: 0x8, addend: 0x0, symName: __ZNSt3__16vectorI3RGBNS_9allocatorIS1_EEE26__swap_out_circular_bufferERNS_14__split_bufferIS1_RS3_EE, symObjAddr: 0x38B80, symBinAddr: 0x10003B3B8, symSize: 0x118 }
  - { offsetInCU: 0x6D534, offset: 0x6D534, size: 0x8, addend: 0x0, symName: __ZN7ManagerC2Ei, symObjAddr: 0x3A8F0, symBinAddr: 0x10003D128, symSize: 0x144 }
  - { offsetInCU: 0x6D64D, offset: 0x6D64D, size: 0x8, addend: 0x0, symName: __ZNSt3__16vectorINS_6threadENS_9allocatorIS1_EEE26__swap_out_circular_bufferERNS_14__split_bufferIS1_RS3_EE, symObjAddr: 0x3D17C, symBinAddr: 0x10003F9B4, symSize: 0x118 }
  - { offsetInCU: 0x6E5F8, offset: 0x6E5F8, size: 0x8, addend: 0x0, symName: __ZN9_Renderer9renderCPUEi, symObjAddr: 0x39FD4, symBinAddr: 0x10003C80C, symSize: 0x454 }
  - { offsetInCU: 0x6E9A8, offset: 0x6E9A8, size: 0x8, addend: 0x0, symName: __Z4fmaxB7v160006IdfENSt3__19enable_ifIXaasr3std13is_arithmeticIT_EE5valuesr3std13is_arithmeticIT0_EE5valueENS0_9__promoteIS2_S3_vEEE4type4typeES2_S3_, symObjAddr: 0x453C0, symBinAddr: 0x100047BF8, symSize: 0x24 }
  - { offsetInCU: 0x6EC42, offset: 0x6EC42, size: 0x8, addend: 0x0, symName: __ZNKSt3__16chrono15__duration_castINS0_8durationIxNS_5ratioILl1ELl1000000EEEEENS2_IxNS3_ILl1ELl1EEEEES4_Lb1ELb0EEclB7v160006ERKS5_, symObjAddr: 0x48A88, symBinAddr: 0x10004B2C0, symSize: 0x4C }
  - { offsetInCU: 0x6EFDA, offset: 0x6EFDA, size: 0x8, addend: 0x0, symName: __ZNSt3__16vectorINS_5tupleIJ4Vec3S2_bEEENS_9allocatorIS3_EEE26__swap_out_circular_bufferERNS_14__split_bufferIS3_RS5_EE, symObjAddr: 0x4B110, symBinAddr: 0x10004D948, symSize: 0x118 }
  - { offsetInCU: 0x6F366, offset: 0x6F366, size: 0x8, addend: 0x0, symName: __ZNSt3__16vectorIN7tinyobj7index_tENS_9allocatorIS2_EEE26__swap_out_circular_bufferERNS_14__split_bufferIS2_RS4_EE, symObjAddr: 0x4D618, symBinAddr: 0x10004FE50, symSize: 0x118 }
  - { offsetInCU: 0x6F3BD, offset: 0x6F3BD, size: 0x8, addend: 0x0, symName: __ZNSt3__16vectorINS_12basic_stringIcNS_11char_traitsIcEENS_9allocatorIcEEEENS4_IS6_EEE26__swap_out_circular_bufferERNS_14__split_bufferIS6_RS7_EE, symObjAddr: 0x4E978, symBinAddr: 0x1000511B0, symSize: 0x118 }
  - { offsetInCU: 0x6F6F5, offset: 0x6F6F5, size: 0x8, addend: 0x0, symName: __ZNSt3__16vectorIN7tinyobj10material_tENS_9allocatorIS2_EEE26__swap_out_circular_bufferERNS_14__split_bufferIS2_RS4_EE, symObjAddr: 0x53A24, symBinAddr: 0x10005625C, symSize: 0x118 }
  - { offsetInCU: 0x6FB68, offset: 0x6FB68, size: 0x8, addend: 0x0, symName: __ZNSt3__16vectorIfNS_9allocatorIfEEE26__swap_out_circular_bufferERNS_14__split_bufferIfRS2_EE, symObjAddr: 0x5689C, symBinAddr: 0x1000590D4, symSize: 0x118 }
  - { offsetInCU: 0x6FBAB, offset: 0x6FBAB, size: 0x8, addend: 0x0, symName: __ZNSt3__16vectorIN7tinyobj18joint_and_weight_tENS_9allocatorIS2_EEE26__swap_out_circular_bufferERNS_14__split_bufferIS2_RS4_EE, symObjAddr: 0x5785C, symBinAddr: 0x10005A094, symSize: 0x118 }
  - { offsetInCU: 0x6FC45, offset: 0x6FC45, size: 0x8, addend: 0x0, symName: __ZNSt3__16vectorIN7tinyobj13skin_weight_tENS_9allocatorIS2_EEE26__swap_out_circular_bufferERNS_14__split_bufferIS2_RS4_EE, symObjAddr: 0x594CC, symBinAddr: 0x10005BD04, symSize: 0x118 }
  - { offsetInCU: 0x6FCD9, offset: 0x6FCD9, size: 0x8, addend: 0x0, symName: __ZNSt3__16vectorIN7tinyobj14vertex_index_tENS_9allocatorIS2_EEE26__swap_out_circular_bufferERNS_14__split_bufferIS2_RS4_EE, symObjAddr: 0x5AA50, symBinAddr: 0x10005D288, symSize: 0x118 }
  - { offsetInCU: 0x6FD73, offset: 0x6FD73, size: 0x8, addend: 0x0, symName: __ZNSt3__16vectorIN7tinyobj8__line_tENS_9allocatorIS2_EEE26__swap_out_circular_bufferERNS_14__split_bufferIS2_RS4_EE, symObjAddr: 0x5C6FC, symBinAddr: 0x10005EF34, symSize: 0x118 }
  - { offsetInCU: 0x6FE07, offset: 0x6FE07, size: 0x8, addend: 0x0, symName: __ZNSt3__16vectorIN7tinyobj10__points_tENS_9allocatorIS2_EEE26__swap_out_circular_bufferERNS_14__split_bufferIS2_RS4_EE, symObjAddr: 0x5DCF4, symBinAddr: 0x10006052C, symSize: 0x118 }
  - { offsetInCU: 0x6FE9B, offset: 0x6FE9B, size: 0x8, addend: 0x0, symName: __ZNSt3__16vectorIN7tinyobj6face_tENS_9allocatorIS2_EEE26__swap_out_circular_bufferERNS_14__split_bufferIS2_RS4_EE, symObjAddr: 0x5F1D4, symBinAddr: 0x100061A0C, symSize: 0x118 }
  - { offsetInCU: 0x6FFCF, offset: 0x6FFCF, size: 0x8, addend: 0x0, symName: __ZNSt3__16vectorIN7tinyobj7shape_tENS_9allocatorIS2_EEE26__swap_out_circular_bufferERNS_14__split_bufferIS2_RS4_EE, symObjAddr: 0x62FD0, symBinAddr: 0x100065808, symSize: 0x118 }
  - { offsetInCU: 0x70063, offset: 0x70063, size: 0x8, addend: 0x0, symName: __ZNSt3__16vectorIN7tinyobj5tag_tENS_9allocatorIS2_EEE26__swap_out_circular_bufferERNS_14__split_bufferIS2_RS4_EE, symObjAddr: 0x65238, symBinAddr: 0x100067A70, symSize: 0x118 }
  - { offsetInCU: 0x70268, offset: 0x70268, size: 0x8, addend: 0x0, symName: __ZNSt3__16vectorIPKcNS_9allocatorIS2_EEE26__swap_out_circular_bufferERNS_14__split_bufferIS2_RS4_EE, symObjAddr: 0x66D78, symBinAddr: 0x1000695B0, symSize: 0x118 }
  - { offsetInCU: 0x70435, offset: 0x70435, size: 0x8, addend: 0x0, symName: __ZNSt3__16vectorI4Vec3NS_9allocatorIS1_EEE26__swap_out_circular_bufferERNS_14__split_bufferIS1_RS3_EE, symObjAddr: 0x68A5C, symBinAddr: 0x10006B294, symSize: 0x118 }
  - { offsetInCU: 0x70492, offset: 0x70492, size: 0x8, addend: 0x0, symName: __ZNSt3__16vectorI4FaceNS_9allocatorIS1_EEE26__swap_out_circular_bufferERNS_14__split_bufferIS1_RS3_EE, symObjAddr: 0x69CFC, symBinAddr: 0x10006C534, symSize: 0x118 }
  - { offsetInCU: 0x7052C, offset: 0x7052C, size: 0x8, addend: 0x0, symName: __ZNSt3__16vectorINS0_I4FaceNS_9allocatorIS1_EEEENS2_IS4_EEE26__swap_out_circular_bufferERNS_14__split_bufferIS4_RS5_EE, symObjAddr: 0x6AF9C, symBinAddr: 0x10006D7D4, symSize: 0x118 }
  - { offsetInCU: 0x7252C, offset: 0x7252C, size: 0x8, addend: 0x0, symName: __ZN5iVec3aSE4Vec3, symObjAddr: 0x0, symBinAddr: 0x100002838, symSize: 0x44 }
  - { offsetInCU: 0x72561, offset: 0x72561, size: 0x8, addend: 0x0, symName: __ZN5iVec3gtE4Vec3, symObjAddr: 0x44, symBinAddr: 0x10000287C, symSize: 0x8C }
  - { offsetInCU: 0x72596, offset: 0x72596, size: 0x8, addend: 0x0, symName: __ZN5iVec3ltE4Vec3, symObjAddr: 0xD0, symBinAddr: 0x100002908, symSize: 0x98 }
  - { offsetInCU: 0x725CB, offset: 0x725CB, size: 0x8, addend: 0x0, symName: __ZN4Vec3aSE5iVec3, symObjAddr: 0x168, symBinAddr: 0x1000029A0, symSize: 0x90 }
  - { offsetInCU: 0x72602, offset: 0x72602, size: 0x8, addend: 0x0, symName: __ZN4Vec3gtE5iVec3, symObjAddr: 0x1F8, symBinAddr: 0x100002A30, symSize: 0xEC }
  - { offsetInCU: 0x72639, offset: 0x72639, size: 0x8, addend: 0x0, symName: __ZN4Vec3ltE5iVec3, symObjAddr: 0x2E4, symBinAddr: 0x100002B1C, symSize: 0xEC }
  - { offsetInCU: 0x72670, offset: 0x72670, size: 0x8, addend: 0x0, symName: __ZN4Vec35fminfES_S_, symObjAddr: 0x3D0, symBinAddr: 0x100002C08, symSize: 0x7C }
  - { offsetInCU: 0x726A4, offset: 0x726A4, size: 0x8, addend: 0x0, symName: __Z4fminB7v160006ff, symObjAddr: 0x44C, symBinAddr: 0x100002C84, symSize: 0x20 }
  - { offsetInCU: 0x726E2, offset: 0x726E2, size: 0x8, addend: 0x0, symName: __ZN4Vec3C1Efff, symObjAddr: 0x46C, symBinAddr: 0x100002CA4, symSize: 0x44 }
  - { offsetInCU: 0x72736, offset: 0x72736, size: 0x8, addend: 0x0, symName: __ZN4Vec35fmaxfES_S_, symObjAddr: 0x4B0, symBinAddr: 0x100002CE8, symSize: 0x7C }
  - { offsetInCU: 0x7276A, offset: 0x7276A, size: 0x8, addend: 0x0, symName: __Z4fmaxB7v160006ff, symObjAddr: 0x52C, symBinAddr: 0x100002D64, symSize: 0x20 }
  - { offsetInCU: 0x727A8, offset: 0x727A8, size: 0x8, addend: 0x0, symName: __ZN5iVec3mlE4Vec3, symObjAddr: 0x54C, symBinAddr: 0x100002D84, symSize: 0xCC }
  - { offsetInCU: 0x727DF, offset: 0x727DF, size: 0x8, addend: 0x0, symName: __ZN5iVec3C1Eiii, symObjAddr: 0x618, symBinAddr: 0x100002E50, symSize: 0x44 }
  - { offsetInCU: 0x72833, offset: 0x72833, size: 0x8, addend: 0x0, symName: __ZN5iVec3plE4Vec3, symObjAddr: 0x65C, symBinAddr: 0x100002E94, symSize: 0xCC }
  - { offsetInCU: 0x72869, offset: 0x72869, size: 0x8, addend: 0x0, symName: __Z9exportBmpNSt3__112basic_stringIcNS_11char_traitsIcEENS_9allocatorIcEEEER9BmpHeaderR13BmpInfoHeader5iVec2RNS_6vectorINSB_I3RGBNS3_ISC_EEEENS3_ISE_EEEE, symObjAddr: 0x728, symBinAddr: 0x100002F60, symSize: 0x3C4 }
  - { offsetInCU: 0x7294D, offset: 0x7294D, size: 0x8, addend: 0x0, symName: __ZN9BmpHeader11writeToFileEv, symObjAddr: 0xAEC, symBinAddr: 0x100003324, symSize: 0x108 }
  - { offsetInCU: 0x72981, offset: 0x72981, size: 0x8, addend: 0x0, symName: __ZN13BmpInfoHeader11writeToFileEv, symObjAddr: 0xBF4, symBinAddr: 0x10000342C, symSize: 0x1B0 }
  - { offsetInCU: 0x729B5, offset: 0x729B5, size: 0x8, addend: 0x0, symName: __ZNSt3__16vectorIhNS_9allocatorIhEEEC1Em, symObjAddr: 0xDA4, symBinAddr: 0x1000035DC, symSize: 0x34 }
  - { offsetInCU: 0x729F0, offset: 0x729F0, size: 0x8, addend: 0x0, symName: __ZNSt3__114basic_ifstreamIcNS_11char_traitsIcEEEC1EPKcj, symObjAddr: 0xDD8, symBinAddr: 0x100003610, symSize: 0x16C }
  - { offsetInCU: 0x72A54, offset: 0x72A54, size: 0x8, addend: 0x0, symName: __ZNSt3__114basic_ofstreamIcNS_11char_traitsIcEEEC1ERKNS_12basic_stringIcS2_NS_9allocatorIcEEEEj, symObjAddr: 0xF44, symBinAddr: 0x10000377C, symSize: 0x16C }
  - { offsetInCU: 0x72A9E, offset: 0x72A9E, size: 0x8, addend: 0x0, symName: __ZNSt3__16vectorINS0_I3RGBNS_9allocatorIS1_EEEENS2_IS4_EEEixB7v160006Em, symObjAddr: 0x10B0, symBinAddr: 0x1000038E8, symSize: 0x2C }
  - { offsetInCU: 0x72AD5, offset: 0x72AD5, size: 0x8, addend: 0x0, symName: __ZNSt3__16vectorI3RGBNS_9allocatorIS1_EEEixB7v160006Em, symObjAddr: 0x10DC, symBinAddr: 0x100003914, symSize: 0x2C }
  - { offsetInCU: 0x72B0C, offset: 0x72B0C, size: 0x8, addend: 0x0, symName: __ZNSt3__16vectorIhNS_9allocatorIhEEEixB7v160006Em, symObjAddr: 0x1108, symBinAddr: 0x100003940, symSize: 0x24 }
  - { offsetInCU: 0x72B43, offset: 0x72B43, size: 0x8, addend: 0x0, symName: __ZNKSt3__19basic_iosIcNS_11char_traitsIcEEEntB7v160006Ev, symObjAddr: 0x112C, symBinAddr: 0x100003964, symSize: 0x28 }
  - { offsetInCU: 0x72B69, offset: 0x72B69, size: 0x8, addend: 0x0, symName: __ZNKSt3__114basic_ifstreamIcNS_11char_traitsIcEEE5rdbufEv, symObjAddr: 0x119C, symBinAddr: 0x1000039D4, symSize: 0x18 }
  - { offsetInCU: 0x72B91, offset: 0x72B91, size: 0x8, addend: 0x0, symName: __ZNKSt3__16vectorIhNS_9allocatorIhEEE4sizeB7v160006Ev, symObjAddr: 0x11B4, symBinAddr: 0x1000039EC, symSize: 0x20 }
  - { offsetInCU: 0x72BB7, offset: 0x72BB7, size: 0x8, addend: 0x0, symName: __ZNSt3__114basic_ofstreamIcNS_11char_traitsIcEEE5closeEv, symObjAddr: 0x11D4, symBinAddr: 0x100003A0C, symSize: 0x58 }
  - { offsetInCU: 0x72BE4, offset: 0x72BE4, size: 0x8, addend: 0x0, symName: __ZNSt3__114basic_ofstreamIcNS_11char_traitsIcEEED1Ev, symObjAddr: 0x122C, symBinAddr: 0x100003A64, symSize: 0x40 }
  - { offsetInCU: 0x72C16, offset: 0x72C16, size: 0x8, addend: 0x0, symName: __ZNSt3__114basic_ifstreamIcNS_11char_traitsIcEEED1Ev, symObjAddr: 0x126C, symBinAddr: 0x100003AA4, symSize: 0x40 }
  - { offsetInCU: 0x72C43, offset: 0x72C43, size: 0x8, addend: 0x0, symName: __ZNSt3__16vectorIhNS_9allocatorIhEEED1B7v160006Ev, symObjAddr: 0x12AC, symBinAddr: 0x100003AE4, symSize: 0x2C }
  - { offsetInCU: 0x72C71, offset: 0x72C71, size: 0x8, addend: 0x0, symName: __ZN8Lighting13iRayAxesDebugER3RayRfS2_R5iVec3RiS4_, symObjAddr: 0x12D8, symBinAddr: 0x100003B10, symSize: 0x3A4 }
  - { offsetInCU: 0x72D69, offset: 0x72D69, size: 0x8, addend: 0x0, symName: __ZN8Lighting23uniformSampleHemisphereERKfS1_, symObjAddr: 0x16A8, symBinAddr: 0x100003EE0, symSize: 0xC4 }
  - { offsetInCU: 0x72DDB, offset: 0x72DDB, size: 0x8, addend: 0x0, symName: __ZN8Lighting14iRayChildDebugER3RayRfS2_R5iVec3RiS4_, symObjAddr: 0x176C, symBinAddr: 0x100003FA4, symSize: 0x428 }
  - { offsetInCU: 0x72E6A, offset: 0x72E6A, size: 0x8, addend: 0x0, symName: __ZN8LightingL7iRayBoxER3Ray4Vec3S2_RfS3_, symObjAddr: 0x446C0, symBinAddr: 0x100046EF8, symSize: 0x420 }
  - { offsetInCU: 0x72F51, offset: 0x72F51, size: 0x8, addend: 0x0, symName: __ZN8LightingL23generateRandomDirectionERNSt3__123mersenne_twister_engineIjLm32ELm624ELm397ELm31ELj2567483615ELm11ELj4294967295ELm7ELj2636928640ELm15ELj4022730752ELm18ELj1812433253EEERNS0_25uniform_real_distributionIfEERK4Vec3S9_S9_Rf, symObjAddr: 0x45588, symBinAddr: 0x100047DC0, symSize: 0x12C }
  - { offsetInCU: 0x72FFD, offset: 0x72FFD, size: 0x8, addend: 0x0, symName: __ZN4Vec3C1Ev, symObjAddr: 0x167C, symBinAddr: 0x100003EB4, symSize: 0x2C }
  - { offsetInCU: 0x73026, offset: 0x73026, size: 0x8, addend: 0x0, symName: __Zpl4Vec3S_, symObjAddr: 0x1B94, symBinAddr: 0x1000043CC, symSize: 0x5C }
  - { offsetInCU: 0x73060, offset: 0x73060, size: 0x8, addend: 0x0, symName: __Zml4Vec3f, symObjAddr: 0x1BF0, symBinAddr: 0x100004428, symSize: 0x3C }
  - { offsetInCU: 0x7309B, offset: 0x7309B, size: 0x8, addend: 0x0, symName: __ZN5iVec2C1Eii, symObjAddr: 0x1C2C, symBinAddr: 0x100004464, symSize: 0x3C }
  - { offsetInCU: 0x730E1, offset: 0x730E1, size: 0x8, addend: 0x0, symName: __ZN6CameraC1E4Vec3S0_S0_5iVec2f, symObjAddr: 0x1C68, symBinAddr: 0x1000044A0, symSize: 0xA8 }
  - { offsetInCU: 0x73156, offset: 0x73156, size: 0x8, addend: 0x0, symName: __ZN5Debug5remapEfffff, symObjAddr: 0x1D10, symBinAddr: 0x100004548, symSize: 0x50 }
  - { offsetInCU: 0x731C0, offset: 0x731C0, size: 0x8, addend: 0x0, symName: __ZN6Shapes11CreatePlaneE4Vec3iS0_bRNSt3__16vectorINS1_5tupleIJS0_S0_bEEENS1_9allocatorIS4_EEEE, symObjAddr: 0x1D60, symBinAddr: 0x100004598, symSize: 0x164 }
  - { offsetInCU: 0x73274, offset: 0x73274, size: 0x8, addend: 0x0, symName: __ZN6Shapes10CreateCubeE4Vec3iS0_bRNSt3__16vectorINS1_5tupleIJS0_S0_bEEENS1_9allocatorIS4_EEEE, symObjAddr: 0x1F74, symBinAddr: 0x1000047AC, symSize: 0x19C }
  - { offsetInCU: 0x7332A, offset: 0x7332A, size: 0x8, addend: 0x0, symName: __ZNSt3__16vectorINS_5tupleIJ4Vec3S2_bEEENS_9allocatorIS3_EEE9push_backB7v160006EOS3_, symObjAddr: 0x1EC4, symBinAddr: 0x1000046FC, symSize: 0x6C }
  - { offsetInCU: 0x73367, offset: 0x73367, size: 0x8, addend: 0x0, symName: __ZNSt3__15tupleIJ4Vec3S1_bEEC1B7v160006IJRS1_S4_bELi0EEEDpOT_, symObjAddr: 0x1F30, symBinAddr: 0x100004768, symSize: 0x44 }
  - { offsetInCU: 0x733DF, offset: 0x733DF, size: 0x8, addend: 0x0, symName: __ZNSt3__15tupleIJ4Vec3S1_bEEC1B7v160006IJS1_RS1_RbELi0EEEDpOT_, symObjAddr: 0x2110, symBinAddr: 0x100004948, symSize: 0x44 }
  - { offsetInCU: 0x73465, offset: 0x73465, size: 0x8, addend: 0x0, symName: __ZN7tinyobj14MaterialReaderD2Ev, symObjAddr: 0x2154, symBinAddr: 0x10000498C, symSize: 0x14 }
  - { offsetInCU: 0x73491, offset: 0x73491, size: 0x8, addend: 0x0, symName: __ZN7tinyobj14MaterialReaderD1Ev, symObjAddr: 0x2168, symBinAddr: 0x1000049A0, symSize: 0x14 }
  - { offsetInCU: 0x734BD, offset: 0x734BD, size: 0x8, addend: 0x0, symName: __ZN7tinyobj14MaterialReaderD0Ev, symObjAddr: 0x217C, symBinAddr: 0x1000049B4, symSize: 0xC }
  - { offsetInCU: 0x734E9, offset: 0x734E9, size: 0x8, addend: 0x0, symName: __ZNSt3__112basic_stringIcNS_11char_traitsIcEENS_9allocatorIcEEEC1B7v160006Ev, symObjAddr: 0x2BB0, symBinAddr: 0x1000053E8, symSize: 0x2C }
  - { offsetInCU: 0x73513, offset: 0x73513, size: 0x8, addend: 0x0, symName: __ZNSt3__112basic_stringIcNS_11char_traitsIcEENS_9allocatorIcEEEaSB7v160006EOS5_, symObjAddr: 0x322C, symBinAddr: 0x100005A64, symSize: 0x34 }
  - { offsetInCU: 0x7354D, offset: 0x7354D, size: 0x8, addend: 0x0, symName: __ZNSt3__112basic_stringIcNS_11char_traitsIcEENS_9allocatorIcEEEC1B7v160006IDnEEPKc, symObjAddr: 0x3260, symBinAddr: 0x100005A98, symSize: 0x34 }
  - { offsetInCU: 0x7358B, offset: 0x7358B, size: 0x8, addend: 0x0, symName: __ZNKSt3__112basic_stringIcNS_11char_traitsIcEENS_9allocatorIcEEE6lengthB7v160006Ev, symObjAddr: 0x3294, symBinAddr: 0x100005ACC, symSize: 0x24 }
  - { offsetInCU: 0x735B6, offset: 0x735B6, size: 0x8, addend: 0x0, symName: __ZN7tinyobj10material_tC1Ev, symObjAddr: 0x4DD0, symBinAddr: 0x100007608, symSize: 0x2C }
  - { offsetInCU: 0x73644, offset: 0x73644, size: 0x8, addend: 0x0, symName: __ZNSt3__118basic_stringstreamIcNS_11char_traitsIcEENS_9allocatorIcEEEC1B7v160006Ev, symObjAddr: 0x5104, symBinAddr: 0x10000793C, symSize: 0x104 }
  - { offsetInCU: 0x7366E, offset: 0x7366E, size: 0x8, addend: 0x0, symName: __ZNKSt3__112basic_stringIcNS_11char_traitsIcEENS_9allocatorIcEEE4sizeB7v160006Ev, symObjAddr: 0x5360, symBinAddr: 0x100007B98, symSize: 0x54 }
  - { offsetInCU: 0x73694, offset: 0x73694, size: 0x8, addend: 0x0, symName: __ZNKSt3__112basic_stringIcNS_11char_traitsIcEENS_9allocatorIcEEE6substrB7v160006Emm, symObjAddr: 0x53B4, symBinAddr: 0x100007BEC, symSize: 0x68 }
  - { offsetInCU: 0x736D8, offset: 0x736D8, size: 0x8, addend: 0x0, symName: __ZNKSt3__112basic_stringIcNS_11char_traitsIcEENS_9allocatorIcEEE16find_last_not_ofB7v160006EPKcm, symObjAddr: 0x541C, symBinAddr: 0x100007C54, symSize: 0x74 }
  - { offsetInCU: 0x7371E, offset: 0x7371E, size: 0x8, addend: 0x0, symName: __ZNSt3__112basic_stringIcNS_11char_traitsIcEENS_9allocatorIcEEEixB7v160006Em, symObjAddr: 0x5490, symBinAddr: 0x100007CC8, symSize: 0x30 }
  - { offsetInCU: 0x73753, offset: 0x73753, size: 0x8, addend: 0x0, symName: __ZNKSt3__112basic_stringIcNS_11char_traitsIcEENS_9allocatorIcEEE5emptyB7v160006Ev, symObjAddr: 0x54C0, symBinAddr: 0x100007CF8, symSize: 0x30 }
  - { offsetInCU: 0x73779, offset: 0x73779, size: 0x8, addend: 0x0, symName: __ZNKSt3__112basic_stringIcNS_11char_traitsIcEENS_9allocatorIcEEE5c_strB7v160006Ev, symObjAddr: 0x54F0, symBinAddr: 0x100007D28, symSize: 0x24 }
  - { offsetInCU: 0x737B9, offset: 0x737B9, size: 0x8, addend: 0x0, symName: __ZNSt3__13mapINS_12basic_stringIcNS_11char_traitsIcEENS_9allocatorIcEEEEiNS_4lessIS6_EENS4_INS_4pairIKS6_iEEEEE6insertB7v160006INS9_IS6_iEEvEENS9_INS_14__map_iteratorINS_15__tree_iteratorINS_12__value_typeIS6_iEEPNS_11__tree_nodeISJ_PvEElEEEEbEEOT_, symObjAddr: 0x5514, symBinAddr: 0x100007D4C, symSize: 0x4C }
  - { offsetInCU: 0x737F8, offset: 0x737F8, size: 0x8, addend: 0x0, symName: __ZNKSt3__16vectorIN7tinyobj10material_tENS_9allocatorIS2_EEE4sizeB7v160006Ev, symObjAddr: 0x5560, symBinAddr: 0x100007D98, symSize: 0x28 }
  - { offsetInCU: 0x73824, offset: 0x73824, size: 0x8, addend: 0x0, symName: __ZNSt3__14pairINS_12basic_stringIcNS_11char_traitsIcEENS_9allocatorIcEEEEiEC1B7v160006IRS6_iLPv0EEEOT_OT0_, symObjAddr: 0x5588, symBinAddr: 0x100007DC0, symSize: 0x3C }
  - { offsetInCU: 0x73882, offset: 0x73882, size: 0x8, addend: 0x0, symName: __ZNSt3__14pairINS_12basic_stringIcNS_11char_traitsIcEENS_9allocatorIcEEEEiED1Ev, symObjAddr: 0x55C4, symBinAddr: 0x100007DFC, symSize: 0x2C }
  - { offsetInCU: 0x738AE, offset: 0x738AE, size: 0x8, addend: 0x0, symName: __ZNSt3__16vectorIN7tinyobj10material_tENS_9allocatorIS2_EEE9push_backB7v160006ERKS2_, symObjAddr: 0x55F0, symBinAddr: 0x100007E28, symSize: 0x6C }
  - { offsetInCU: 0x738E5, offset: 0x738E5, size: 0x8, addend: 0x0, symName: __ZNSt3__112basic_stringIcNS_11char_traitsIcEENS_9allocatorIcEEEpLB7v160006EPKc, symObjAddr: 0x565C, symBinAddr: 0x100007E94, symSize: 0x2C }
  - { offsetInCU: 0x7391A, offset: 0x7391A, size: 0x8, addend: 0x0, symName: __ZNSt3__112basic_stringIcNS_11char_traitsIcEENS_9allocatorIcEEEaSB7v160006EPKc, symObjAddr: 0x56D4, symBinAddr: 0x100007F0C, symSize: 0x2C }
  - { offsetInCU: 0x7394E, offset: 0x7394E, size: 0x8, addend: 0x0, symName: __Z6strchrB7v160006Ua9enable_ifIXLb1EEEPKci, symObjAddr: 0x5700, symBinAddr: 0x100007F38, symSize: 0x2C }
  - { offsetInCU: 0x73989, offset: 0x73989, size: 0x8, addend: 0x0, symName: __ZNSt3__112basic_stringIcNS_11char_traitsIcEENS_9allocatorIcEEEC1B7v160006EPKcm, symObjAddr: 0x572C, symBinAddr: 0x100007F64, symSize: 0x3C }
  - { offsetInCU: 0x739EB, offset: 0x739EB, size: 0x8, addend: 0x0, symName: __ZNSt3__13mapINS_12basic_stringIcNS_11char_traitsIcEENS_9allocatorIcEEEES6_NS_4lessIS6_EENS4_INS_4pairIKS6_S6_EEEEE6insertB7v160006INS9_IS6_S6_EEvEENS9_INS_14__map_iteratorINS_15__tree_iteratorINS_12__value_typeIS6_S6_EEPNS_11__tree_nodeISJ_PvEElEEEEbEEOT_, symObjAddr: 0x5768, symBinAddr: 0x100007FA0, symSize: 0x4C }
  - { offsetInCU: 0x73A2A, offset: 0x73A2A, size: 0x8, addend: 0x0, symName: __ZNSt3__14pairINS_12basic_stringIcNS_11char_traitsIcEENS_9allocatorIcEEEES6_EC1B7v160006IRS6_S9_LPv0EEEOT_OT0_, symObjAddr: 0x57B4, symBinAddr: 0x100007FEC, symSize: 0x3C }
  - { offsetInCU: 0x73A88, offset: 0x73A88, size: 0x8, addend: 0x0, symName: __ZNSt3__14pairINS_12basic_stringIcNS_11char_traitsIcEENS_9allocatorIcEEEES6_ED1Ev, symObjAddr: 0x57F0, symBinAddr: 0x100008028, symSize: 0x2C }
  - { offsetInCU: 0x73AB4, offset: 0x73AB4, size: 0x8, addend: 0x0, symName: __ZNKSt3__118basic_stringstreamIcNS_11char_traitsIcEENS_9allocatorIcEEE3strB7v160006Ev, symObjAddr: 0x581C, symBinAddr: 0x100008054, symSize: 0x30 }
  - { offsetInCU: 0x73ADF, offset: 0x73ADF, size: 0x8, addend: 0x0, symName: __ZNSt3__118basic_stringstreamIcNS_11char_traitsIcEENS_9allocatorIcEEED1Ev, symObjAddr: 0x584C, symBinAddr: 0x100008084, symSize: 0x40 }
  - { offsetInCU: 0x73B0C, offset: 0x73B0C, size: 0x8, addend: 0x0, symName: __ZN7tinyobj10material_tD1Ev, symObjAddr: 0x588C, symBinAddr: 0x1000080C4, symSize: 0x2C }
  - { offsetInCU: 0x73B3D, offset: 0x73B3D, size: 0x8, addend: 0x0, symName: __ZN7tinyobj18MaterialFileReaderclERKNSt3__112basic_stringIcNS1_11char_traitsIcEENS1_9allocatorIcEEEEPNS1_6vectorINS_10material_tENS5_ISB_EEEEPNS1_3mapIS7_iNS1_4lessIS7_EENS5_INS1_4pairIS8_iEEEEEEPS7_SN_, symObjAddr: 0x58B8, symBinAddr: 0x1000080F0, symSize: 0x5C0 }
  - { offsetInCU: 0x73C96, offset: 0x73C96, size: 0x8, addend: 0x0, symName: __ZNSt3__16vectorINS_12basic_stringIcNS_11char_traitsIcEENS_9allocatorIcEEEENS4_IS6_EEEC1B7v160006Ev, symObjAddr: 0x5E78, symBinAddr: 0x1000086B0, symSize: 0x2C }
  - { offsetInCU: 0x73CE4, offset: 0x73CE4, size: 0x8, addend: 0x0, symName: __ZNSt3__119basic_istringstreamIcNS_11char_traitsIcEENS_9allocatorIcEEEC1B7v160006ERKNS_12basic_stringIcS2_S4_EEj, symObjAddr: 0x5EA4, symBinAddr: 0x1000086DC, symSize: 0xFC }
  - { offsetInCU: 0x73D2C, offset: 0x73D2C, size: 0x8, addend: 0x0, symName: __ZNKSt3__19basic_iosIcNS_11char_traitsIcEEEcvbB7v160006Ev, symObjAddr: 0x61D8, symBinAddr: 0x100008A10, symSize: 0x2C }
  - { offsetInCU: 0x73D52, offset: 0x73D52, size: 0x8, addend: 0x0, symName: __ZNSt3__16vectorINS_12basic_stringIcNS_11char_traitsIcEENS_9allocatorIcEEEENS4_IS6_EEE9push_backB7v160006ERKS6_, symObjAddr: 0x6204, symBinAddr: 0x100008A3C, symSize: 0x6C }
  - { offsetInCU: 0x73D89, offset: 0x73D89, size: 0x8, addend: 0x0, symName: __ZNKSt3__16vectorINS_12basic_stringIcNS_11char_traitsIcEENS_9allocatorIcEEEENS4_IS6_EEE4sizeB7v160006Ev, symObjAddr: 0x6270, symBinAddr: 0x100008AA8, symSize: 0x28 }
  - { offsetInCU: 0x73DAF, offset: 0x73DAF, size: 0x8, addend: 0x0, symName: __ZNSt3__16vectorINS_12basic_stringIcNS_11char_traitsIcEENS_9allocatorIcEEEENS4_IS6_EEEixB7v160006Em, symObjAddr: 0x63C0, symBinAddr: 0x100008BF8, symSize: 0x2C }
  - { offsetInCU: 0x73DE6, offset: 0x73DE6, size: 0x8, addend: 0x0, symName: __ZNSt3__112basic_stringIcNS_11char_traitsIcEENS_9allocatorIcEEEpLB7v160006ERKS5_, symObjAddr: 0x63EC, symBinAddr: 0x100008C24, symSize: 0x2C }
  - { offsetInCU: 0x73E20, offset: 0x73E20, size: 0x8, addend: 0x0, symName: __ZNSt3__119basic_istringstreamIcNS_11char_traitsIcEENS_9allocatorIcEEED1Ev, symObjAddr: 0x6418, symBinAddr: 0x100008C50, symSize: 0x40 }
  - { offsetInCU: 0x73E4D, offset: 0x73E4D, size: 0x8, addend: 0x0, symName: __ZNSt3__16vectorINS_12basic_stringIcNS_11char_traitsIcEENS_9allocatorIcEEEENS4_IS6_EEED1B7v160006Ev, symObjAddr: 0x6458, symBinAddr: 0x100008C90, symSize: 0x2C }
  - { offsetInCU: 0x73E81, offset: 0x73E81, size: 0x8, addend: 0x0, symName: __ZN7tinyobj20MaterialStreamReaderclERKNSt3__112basic_stringIcNS1_11char_traitsIcEENS1_9allocatorIcEEEEPNS1_6vectorINS_10material_tENS5_ISB_EEEEPNS1_3mapIS7_iNS1_4lessIS7_EENS5_INS1_4pairIS8_iEEEEEEPS7_SN_, symObjAddr: 0x6484, symBinAddr: 0x100008CBC, symSize: 0x150 }
  - { offsetInCU: 0x73F13, offset: 0x73F13, size: 0x8, addend: 0x0, symName: __ZNSt3__16vectorIfNS_9allocatorIfEEE5clearB7v160006Ev, symObjAddr: 0x6928, symBinAddr: 0x100009160, symSize: 0x4C }
  - { offsetInCU: 0x73F48, offset: 0x73F48, size: 0x8, addend: 0x0, symName: __ZNSt3__16vectorIN7tinyobj7shape_tENS_9allocatorIS2_EEE5clearB7v160006Ev, symObjAddr: 0x6974, symBinAddr: 0x1000091AC, symSize: 0x54 }
  - { offsetInCU: 0x73F7D, offset: 0x73F7D, size: 0x8, addend: 0x0, symName: __ZNSt3__112basic_stringIcNS_11char_traitsIcEENS_9allocatorIcEEEpLB7v160006Ec, symObjAddr: 0x69C8, symBinAddr: 0x100009200, symSize: 0x34 }
  - { offsetInCU: 0x73FB2, offset: 0x73FB2, size: 0x8, addend: 0x0, symName: __ZN7tinyobj18MaterialFileReaderC1ERKNSt3__112basic_stringIcNS1_11char_traitsIcEENS1_9allocatorIcEEEE, symObjAddr: 0x69FC, symBinAddr: 0x100009234, symSize: 0x34 }
  - { offsetInCU: 0x73FEB, offset: 0x73FEB, size: 0x8, addend: 0x0, symName: __ZN7tinyobj18MaterialFileReaderD1Ev, symObjAddr: 0x9598, symBinAddr: 0x10000BDD0, symSize: 0x2C }
  - { offsetInCU: 0x74015, offset: 0x74015, size: 0x8, addend: 0x0, symName: __ZNSt3__16vectorIfNS_9allocatorIfEEEC1B7v160006Ev, symObjAddr: 0x95C4, symBinAddr: 0x10000BDFC, symSize: 0x2C }
  - { offsetInCU: 0x7403F, offset: 0x7403F, size: 0x8, addend: 0x0, symName: __ZNSt3__16vectorIN7tinyobj13skin_weight_tENS_9allocatorIS2_EEEC1B7v160006Ev, symObjAddr: 0x95F0, symBinAddr: 0x10000BE28, symSize: 0x2C }
  - { offsetInCU: 0x74069, offset: 0x74069, size: 0x8, addend: 0x0, symName: __ZNSt3__16vectorIN7tinyobj5tag_tENS_9allocatorIS2_EEEC1B7v160006Ev, symObjAddr: 0x961C, symBinAddr: 0x10000BE54, symSize: 0x2C }
  - { offsetInCU: 0x740A2, offset: 0x740A2, size: 0x8, addend: 0x0, symName: __ZN7tinyobj9PrimGroupC1Ev, symObjAddr: 0x9648, symBinAddr: 0x10000BE80, symSize: 0x2C }
  - { offsetInCU: 0x741E2, offset: 0x741E2, size: 0x8, addend: 0x0, symName: __ZNSt3__13setINS_12basic_stringIcNS_11char_traitsIcEENS_9allocatorIcEEEENS_4lessIS6_EENS4_IS6_EEEC1B7v160006Ev, symObjAddr: 0x9674, symBinAddr: 0x10000BEAC, symSize: 0x2C }
  - { offsetInCU: 0x7420C, offset: 0x7420C, size: 0x8, addend: 0x0, symName: __ZNSt3__13mapINS_12basic_stringIcNS_11char_traitsIcEENS_9allocatorIcEEEEiNS_4lessIS6_EENS4_INS_4pairIKS6_iEEEEEC1B7v160006Ev, symObjAddr: 0x96A0, symBinAddr: 0x10000BED8, symSize: 0x2C }
  - { offsetInCU: 0x7423B, offset: 0x7423B, size: 0x8, addend: 0x0, symName: __ZN7tinyobj7shape_tC1Ev, symObjAddr: 0x96CC, symBinAddr: 0x10000BF04, symSize: 0x2C }
  - { offsetInCU: 0x74268, offset: 0x74268, size: 0x8, addend: 0x0, symName: __ZNSt3__16vectorIfNS_9allocatorIfEEE9push_backB7v160006ERKf, symObjAddr: 0x9860, symBinAddr: 0x10000C098, symSize: 0x6C }
  - { offsetInCU: 0x742A4, offset: 0x742A4, size: 0x8, addend: 0x0, symName: __ZN7tinyobj13skin_weight_tC1Ev, symObjAddr: 0x98CC, symBinAddr: 0x10000C104, symSize: 0x2C }
  - { offsetInCU: 0x742D1, offset: 0x742D1, size: 0x8, addend: 0x0, symName: __ZNSt3__16vectorIN7tinyobj18joint_and_weight_tENS_9allocatorIS2_EEE9push_backB7v160006ERKS2_, symObjAddr: 0x98F8, symBinAddr: 0x10000C130, symSize: 0x6C }
  - { offsetInCU: 0x74308, offset: 0x74308, size: 0x8, addend: 0x0, symName: __ZNSt3__16vectorIN7tinyobj13skin_weight_tENS_9allocatorIS2_EEE9push_backB7v160006ERKS2_, symObjAddr: 0x9964, symBinAddr: 0x10000C19C, symSize: 0x6C }
  - { offsetInCU: 0x7433F, offset: 0x7433F, size: 0x8, addend: 0x0, symName: __ZN7tinyobj13skin_weight_tD1Ev, symObjAddr: 0x99D0, symBinAddr: 0x10000C208, symSize: 0x2C }
  - { offsetInCU: 0x74371, offset: 0x74371, size: 0x8, addend: 0x0, symName: __ZN7tinyobj8__line_tC1Ev, symObjAddr: 0x99FC, symBinAddr: 0x10000C234, symSize: 0x2C }
  - { offsetInCU: 0x7439E, offset: 0x7439E, size: 0x8, addend: 0x0, symName: __ZN7tinyobj14vertex_index_tC1Ev, symObjAddr: 0x9A28, symBinAddr: 0x10000C260, symSize: 0x2C }
  - { offsetInCU: 0x743C8, offset: 0x743C8, size: 0x8, addend: 0x0, symName: __ZNKSt3__16vectorIfNS_9allocatorIfEEE4sizeB7v160006Ev, symObjAddr: 0x9D84, symBinAddr: 0x10000C5BC, symSize: 0x28 }
  - { offsetInCU: 0x743EE, offset: 0x743EE, size: 0x8, addend: 0x0, symName: __ZNSt3__16vectorIN7tinyobj14vertex_index_tENS_9allocatorIS2_EEE9push_backB7v160006ERKS2_, symObjAddr: 0x9ECC, symBinAddr: 0x10000C704, symSize: 0x6C }
  - { offsetInCU: 0x74425, offset: 0x74425, size: 0x8, addend: 0x0, symName: __ZNSt3__16vectorIN7tinyobj8__line_tENS_9allocatorIS2_EEE9push_backB7v160006ERKS2_, symObjAddr: 0x9F38, symBinAddr: 0x10000C770, symSize: 0x6C }
  - { offsetInCU: 0x7445C, offset: 0x7445C, size: 0x8, addend: 0x0, symName: __ZN7tinyobj8__line_tD1Ev, symObjAddr: 0x9FA4, symBinAddr: 0x10000C7DC, symSize: 0x2C }
  - { offsetInCU: 0x7448E, offset: 0x7448E, size: 0x8, addend: 0x0, symName: __ZN7tinyobj10__points_tC1Ev, symObjAddr: 0x9FD0, symBinAddr: 0x10000C808, symSize: 0x2C }
  - { offsetInCU: 0x744BB, offset: 0x744BB, size: 0x8, addend: 0x0, symName: __ZNSt3__16vectorIN7tinyobj10__points_tENS_9allocatorIS2_EEE9push_backB7v160006ERKS2_, symObjAddr: 0x9FFC, symBinAddr: 0x10000C834, symSize: 0x6C }
  - { offsetInCU: 0x744F2, offset: 0x744F2, size: 0x8, addend: 0x0, symName: __ZN7tinyobj10__points_tD1Ev, symObjAddr: 0xA068, symBinAddr: 0x10000C8A0, symSize: 0x2C }
  - { offsetInCU: 0x7451F, offset: 0x7451F, size: 0x8, addend: 0x0, symName: __ZN7tinyobj6face_tC1Ev, symObjAddr: 0xA094, symBinAddr: 0x10000C8CC, symSize: 0x2C }
  - { offsetInCU: 0x74549, offset: 0x74549, size: 0x8, addend: 0x0, symName: __ZNSt3__16vectorIN7tinyobj14vertex_index_tENS_9allocatorIS2_EEE7reserveEm, symObjAddr: 0xA0C0, symBinAddr: 0x10000C8F8, symSize: 0xE8 }
  - { offsetInCU: 0x745A5, offset: 0x745A5, size: 0x8, addend: 0x0, symName: __ZNSt3__16vectorIN7tinyobj6face_tENS_9allocatorIS2_EEE9push_backB7v160006ERKS2_, symObjAddr: 0xA1A8, symBinAddr: 0x10000C9E0, symSize: 0x6C }
  - { offsetInCU: 0x745DC, offset: 0x745DC, size: 0x8, addend: 0x0, symName: __ZN7tinyobj6face_tD1Ev, symObjAddr: 0xA214, symBinAddr: 0x10000CA4C, symSize: 0x2C }
  - { offsetInCU: 0x74609, offset: 0x74609, size: 0x8, addend: 0x0, symName: __ZNSt3__13mapINS_12basic_stringIcNS_11char_traitsIcEENS_9allocatorIcEEEEiNS_4lessIS6_EENS4_INS_4pairIKS6_iEEEEE4findB7v160006ERSA_, symObjAddr: 0xA240, symBinAddr: 0x10000CA78, symSize: 0x40 }
  - { offsetInCU: 0x7463E, offset: 0x7463E, size: 0x8, addend: 0x0, symName: __ZNSt3__120__map_const_iteratorINS_21__tree_const_iteratorINS_12__value_typeINS_12basic_stringIcNS_11char_traitsIcEENS_9allocatorIcEEEEiEEPNS_11__tree_nodeIS9_PvEElEEEC1B7v160006ENS_14__map_iteratorINS_15__tree_iteratorIS9_SD_lEEEE, symObjAddr: 0xA280, symBinAddr: 0x10000CAB8, symSize: 0x34 }
  - { offsetInCU: 0x74677, offset: 0x74677, size: 0x8, addend: 0x0, symName: __ZNSt3__13mapINS_12basic_stringIcNS_11char_traitsIcEENS_9allocatorIcEEEEiNS_4lessIS6_EENS4_INS_4pairIKS6_iEEEEE3endB7v160006Ev, symObjAddr: 0xA2E4, symBinAddr: 0x10000CB1C, symSize: 0x38 }
  - { offsetInCU: 0x7469D, offset: 0x7469D, size: 0x8, addend: 0x0, symName: __ZNKSt3__120__map_const_iteratorINS_21__tree_const_iteratorINS_12__value_typeINS_12basic_stringIcNS_11char_traitsIcEENS_9allocatorIcEEEEiEEPNS_11__tree_nodeIS9_PvEElEEEptB7v160006Ev, symObjAddr: 0xA31C, symBinAddr: 0x10000CB54, symSize: 0x2C }
  - { offsetInCU: 0x746C3, offset: 0x746C3, size: 0x8, addend: 0x0, symName: __ZNSt3__16vectorIN7tinyobj6face_tENS_9allocatorIS2_EEE5clearB7v160006Ev, symObjAddr: 0xB8DC, symBinAddr: 0x10000E114, symSize: 0x54 }
  - { offsetInCU: 0x746F8, offset: 0x746F8, size: 0x8, addend: 0x0, symName: __ZNKSt3__16vectorINS_12basic_stringIcNS_11char_traitsIcEENS_9allocatorIcEEEENS4_IS6_EEE5emptyB7v160006Ev, symObjAddr: 0xBA88, symBinAddr: 0x10000E2C0, symSize: 0x28 }
  - { offsetInCU: 0x7471E, offset: 0x7471E, size: 0x8, addend: 0x0, symName: __ZNKSt3__13setINS_12basic_stringIcNS_11char_traitsIcEENS_9allocatorIcEEEENS_4lessIS6_EENS4_IS6_EEE5countB7v160006ERKS6_, symObjAddr: 0xBAB0, symBinAddr: 0x10000E2E8, symSize: 0x2C }
  - { offsetInCU: 0x74753, offset: 0x74753, size: 0x8, addend: 0x0, symName: __ZNSt3__13setINS_12basic_stringIcNS_11char_traitsIcEENS_9allocatorIcEEEENS_4lessIS6_EENS4_IS6_EEE6insertB7v160006ERKS6_, symObjAddr: 0xBADC, symBinAddr: 0x10000E314, symSize: 0x4C }
  - { offsetInCU: 0x74788, offset: 0x74788, size: 0x8, addend: 0x0, symName: __ZNKSt3__16vectorIN7tinyobj7index_tENS_9allocatorIS2_EEE4sizeB7v160006Ev, symObjAddr: 0xBB28, symBinAddr: 0x10000E360, symSize: 0x28 }
  - { offsetInCU: 0x747AE, offset: 0x747AE, size: 0x8, addend: 0x0, symName: __ZNSt3__16vectorIN7tinyobj7shape_tENS_9allocatorIS2_EEE9push_backB7v160006ERKS2_, symObjAddr: 0xBB50, symBinAddr: 0x10000E388, symSize: 0x6C }
  - { offsetInCU: 0x747EB, offset: 0x747EB, size: 0x8, addend: 0x0, symName: __ZN7tinyobj7shape_taSEOS0_, symObjAddr: 0xBBBC, symBinAddr: 0x10000E3F4, symSize: 0x70 }
  - { offsetInCU: 0x7481D, offset: 0x7481D, size: 0x8, addend: 0x0, symName: __ZN7tinyobj7shape_tD1Ev, symObjAddr: 0xBC2C, symBinAddr: 0x10000E464, symSize: 0x2C }
  - { offsetInCU: 0x7484A, offset: 0x7484A, size: 0x8, addend: 0x0, symName: __ZN7tinyobj9PrimGroup5clearEv, symObjAddr: 0xBC58, symBinAddr: 0x10000E490, symSize: 0x40 }
  - { offsetInCU: 0x74875, offset: 0x74875, size: 0x8, addend: 0x0, symName: __ZN7tinyobj5tag_tC1Ev, symObjAddr: 0xBC98, symBinAddr: 0x10000E4D0, symSize: 0x2C }
  - { offsetInCU: 0x748A2, offset: 0x748A2, size: 0x8, addend: 0x0, symName: __ZNSt3__16vectorIiNS_9allocatorIiEEE6resizeEm, symObjAddr: 0xBE64, symBinAddr: 0x10000E69C, symSize: 0x94 }
  - { offsetInCU: 0x748E8, offset: 0x748E8, size: 0x8, addend: 0x0, symName: __ZNSt3__16vectorIiNS_9allocatorIiEEEixB7v160006Em, symObjAddr: 0xBEF8, symBinAddr: 0x10000E730, symSize: 0x24 }
  - { offsetInCU: 0x7491F, offset: 0x7491F, size: 0x8, addend: 0x0, symName: __ZNSt3__16vectorIfNS_9allocatorIfEEE6resizeEm, symObjAddr: 0xBF1C, symBinAddr: 0x10000E754, symSize: 0x94 }
  - { offsetInCU: 0x74965, offset: 0x74965, size: 0x8, addend: 0x0, symName: __ZNSt3__16vectorIfNS_9allocatorIfEEEixB7v160006Em, symObjAddr: 0xBFB0, symBinAddr: 0x10000E7E8, symSize: 0x24 }
  - { offsetInCU: 0x7499C, offset: 0x7499C, size: 0x8, addend: 0x0, symName: __ZNSt3__16vectorINS_12basic_stringIcNS_11char_traitsIcEENS_9allocatorIcEEEENS4_IS6_EEE6resizeEm, symObjAddr: 0xBFD4, symBinAddr: 0x10000E80C, symSize: 0x9C }
  - { offsetInCU: 0x749E2, offset: 0x749E2, size: 0x8, addend: 0x0, symName: __ZNSt3__16vectorIN7tinyobj5tag_tENS_9allocatorIS2_EEE9push_backB7v160006ERKS2_, symObjAddr: 0xC070, symBinAddr: 0x10000E8A8, symSize: 0x6C }
  - { offsetInCU: 0x74A19, offset: 0x74A19, size: 0x8, addend: 0x0, symName: __ZN7tinyobj5tag_tD1Ev, symObjAddr: 0xC0DC, symBinAddr: 0x10000E914, symSize: 0x2C }
  - { offsetInCU: 0x74A46, offset: 0x74A46, size: 0x8, addend: 0x0, symName: __ZNSt3__16vectorIfNS_9allocatorIfEEE4swapERS3_, symObjAddr: 0xC108, symBinAddr: 0x10000E940, symSize: 0x90 }
  - { offsetInCU: 0x74A7D, offset: 0x74A7D, size: 0x8, addend: 0x0, symName: __ZNSt3__16vectorIN7tinyobj13skin_weight_tENS_9allocatorIS2_EEE4swapERS5_, symObjAddr: 0xC198, symBinAddr: 0x10000E9D0, symSize: 0x98 }
  - { offsetInCU: 0x74AB4, offset: 0x74AB4, size: 0x8, addend: 0x0, symName: __ZNSt3__13mapINS_12basic_stringIcNS_11char_traitsIcEENS_9allocatorIcEEEEiNS_4lessIS6_EENS4_INS_4pairIKS6_iEEEEED1B7v160006Ev, symObjAddr: 0xC230, symBinAddr: 0x10000EA68, symSize: 0x2C }
  - { offsetInCU: 0x74ADE, offset: 0x74ADE, size: 0x8, addend: 0x0, symName: __ZNSt3__13setINS_12basic_stringIcNS_11char_traitsIcEENS_9allocatorIcEEEENS_4lessIS6_EENS4_IS6_EEED1B7v160006Ev, symObjAddr: 0xC25C, symBinAddr: 0x10000EA94, symSize: 0x2C }
  - { offsetInCU: 0x74B08, offset: 0x74B08, size: 0x8, addend: 0x0, symName: __ZN7tinyobj9PrimGroupD1Ev, symObjAddr: 0xC288, symBinAddr: 0x10000EAC0, symSize: 0x2C }
  - { offsetInCU: 0x74B35, offset: 0x74B35, size: 0x8, addend: 0x0, symName: __ZNSt3__16vectorIN7tinyobj5tag_tENS_9allocatorIS2_EEED1B7v160006Ev, symObjAddr: 0xC2B4, symBinAddr: 0x10000EAEC, symSize: 0x2C }
  - { offsetInCU: 0x74B5F, offset: 0x74B5F, size: 0x8, addend: 0x0, symName: __ZNSt3__16vectorIN7tinyobj13skin_weight_tENS_9allocatorIS2_EEED1B7v160006Ev, symObjAddr: 0xC2E0, symBinAddr: 0x10000EB18, symSize: 0x2C }
  - { offsetInCU: 0x74B89, offset: 0x74B89, size: 0x8, addend: 0x0, symName: __ZNSt3__16vectorIfNS_9allocatorIfEEED1B7v160006Ev, symObjAddr: 0xC30C, symBinAddr: 0x10000EB44, symSize: 0x2C }
  - { offsetInCU: 0x74BB3, offset: 0x74BB3, size: 0x8, addend: 0x0, symName: __ZNSt3__16vectorIN7tinyobj7index_tENS_9allocatorIS2_EEEC1B7v160006Ev, symObjAddr: 0xD654, symBinAddr: 0x10000FE8C, symSize: 0x2C }
  - { offsetInCU: 0x74BDD, offset: 0x74BDD, size: 0x8, addend: 0x0, symName: __ZNSt3__16vectorIN7tinyobj10material_tENS_9allocatorIS2_EEEC1B7v160006Ev, symObjAddr: 0xD680, symBinAddr: 0x10000FEB8, symSize: 0x2C }
  - { offsetInCU: 0x74C07, offset: 0x74C07, size: 0x8, addend: 0x0, symName: __ZNSt3__16vectorINS_12basic_stringIcNS_11char_traitsIcEENS_9allocatorIcEEEENS4_IS6_EEE7reserveEm, symObjAddr: 0xD6AC, symBinAddr: 0x10000FEE4, symSize: 0xE8 }
  - { offsetInCU: 0x74C63, offset: 0x74C63, size: 0x8, addend: 0x0, symName: __ZNSt3__16vectorIPKcNS_9allocatorIS2_EEEC1B7v160006Ev, symObjAddr: 0xD794, symBinAddr: 0x10000FFCC, symSize: 0x2C }
  - { offsetInCU: 0x74C8D, offset: 0x74C8D, size: 0x8, addend: 0x0, symName: __ZNSt3__16vectorIN7tinyobj7index_tENS_9allocatorIS2_EEE5clearB7v160006Ev, symObjAddr: 0xD7C0, symBinAddr: 0x10000FFF8, symSize: 0x4C }
  - { offsetInCU: 0x74CC2, offset: 0x74CC2, size: 0x8, addend: 0x0, symName: __ZNSt3__16vectorIN7tinyobj7index_tENS_9allocatorIS2_EEE9push_backB7v160006ERKS2_, symObjAddr: 0xD9F4, symBinAddr: 0x10001022C, symSize: 0x6C }
  - { offsetInCU: 0x74CF9, offset: 0x74CF9, size: 0x8, addend: 0x0, symName: __ZNSt3__16vectorIN7tinyobj7index_tENS_9allocatorIS2_EEE2atEm, symObjAddr: 0xDA60, symBinAddr: 0x100010298, symSize: 0x68 }
  - { offsetInCU: 0x74D30, offset: 0x74D30, size: 0x8, addend: 0x0, symName: __ZNSt3__16vectorIN7tinyobj10material_tENS_9allocatorIS2_EEE2atEm, symObjAddr: 0xDAC8, symBinAddr: 0x100010300, symSize: 0x68 }
  - { offsetInCU: 0x74D67, offset: 0x74D67, size: 0x8, addend: 0x0, symName: __ZNSt3__16vectorINS_12basic_stringIcNS_11char_traitsIcEENS_9allocatorIcEEEENS4_IS6_EEE5clearB7v160006Ev, symObjAddr: 0xDB30, symBinAddr: 0x100010368, symSize: 0x4C }
  - { offsetInCU: 0x74D9C, offset: 0x74D9C, size: 0x8, addend: 0x0, symName: __ZNSt3__16vectorIPKcNS_9allocatorIS2_EEE6resizeEm, symObjAddr: 0xDB7C, symBinAddr: 0x1000103B4, symSize: 0x94 }
  - { offsetInCU: 0x74DE2, offset: 0x74DE2, size: 0x8, addend: 0x0, symName: __ZNKSt3__16vectorIPKcNS_9allocatorIS2_EEE4sizeB7v160006Ev, symObjAddr: 0xDC10, symBinAddr: 0x100010448, symSize: 0x28 }
  - { offsetInCU: 0x74E08, offset: 0x74E08, size: 0x8, addend: 0x0, symName: __ZNSt3__16vectorIPKcNS_9allocatorIS2_EEEixB7v160006Em, symObjAddr: 0xDC38, symBinAddr: 0x100010470, symSize: 0x24 }
  - { offsetInCU: 0x74E3F, offset: 0x74E3F, size: 0x8, addend: 0x0, symName: __ZNSt3__16vectorIPKcNS_9allocatorIS2_EEE2atEm, symObjAddr: 0xDC5C, symBinAddr: 0x100010494, symSize: 0x60 }
  - { offsetInCU: 0x74E76, offset: 0x74E76, size: 0x8, addend: 0x0, symName: __ZNSt3__16vectorIPKcNS_9allocatorIS2_EEED1B7v160006Ev, symObjAddr: 0xDCBC, symBinAddr: 0x1000104F4, symSize: 0x2C }
  - { offsetInCU: 0x74EA0, offset: 0x74EA0, size: 0x8, addend: 0x0, symName: __ZNSt3__16vectorIN7tinyobj10material_tENS_9allocatorIS2_EEED1B7v160006Ev, symObjAddr: 0xDCE8, symBinAddr: 0x100010520, symSize: 0x2C }
  - { offsetInCU: 0x74ECA, offset: 0x74ECA, size: 0x8, addend: 0x0, symName: __ZNSt3__16vectorIN7tinyobj7index_tENS_9allocatorIS2_EEED1B7v160006Ev, symObjAddr: 0xDD14, symBinAddr: 0x10001054C, symSize: 0x2C }
  - { offsetInCU: 0x74F26, offset: 0x74F26, size: 0x8, addend: 0x0, symName: __ZN7tinyobj9ObjReader13ParseFromFileERKNSt3__112basic_stringIcNS1_11char_traitsIcEENS1_9allocatorIcEEEERKNS_15ObjReaderConfigE, symObjAddr: 0xDD40, symBinAddr: 0x100010578, symSize: 0x19C }
  - { offsetInCU: 0x74F90, offset: 0x74F90, size: 0x8, addend: 0x0, symName: __ZNKSt3__112basic_stringIcNS_11char_traitsIcEENS_9allocatorIcEEE12find_last_ofB7v160006EPKcm, symObjAddr: 0xDEDC, symBinAddr: 0x100010714, symSize: 0x74 }
  - { offsetInCU: 0x74FD6, offset: 0x74FD6, size: 0x8, addend: 0x0, symName: __ZN7tinyobj9ObjReader15ParseFromStringERKNSt3__112basic_stringIcNS1_11char_traitsIcEENS1_9allocatorIcEEEES9_RKNS_15ObjReaderConfigE, symObjAddr: 0xDF50, symBinAddr: 0x100010788, symSize: 0x1BC }
  - { offsetInCU: 0x75079, offset: 0x75079, size: 0x8, addend: 0x0, symName: __ZNSt3__115basic_stringbufIcNS_11char_traitsIcEENS_9allocatorIcEEEC1B7v160006ERKNS_12basic_stringIcS2_S4_EEj, symObjAddr: 0xE10C, symBinAddr: 0x100010944, symSize: 0x3C }
  - { offsetInCU: 0x750BF, offset: 0x750BF, size: 0x8, addend: 0x0, symName: __ZNSt3__113basic_istreamIcNS_11char_traitsIcEEEC1B7v160006EPNS_15basic_streambufIcS2_EE, symObjAddr: 0xE148, symBinAddr: 0x100010980, symSize: 0xA0 }
  - { offsetInCU: 0x750F7, offset: 0x750F7, size: 0x8, addend: 0x0, symName: __ZN7tinyobj20MaterialStreamReaderC1ERNSt3__113basic_istreamIcNS1_11char_traitsIcEEEE, symObjAddr: 0xE1E8, symBinAddr: 0x100010A20, symSize: 0x34 }
  - { offsetInCU: 0x75130, offset: 0x75130, size: 0x8, addend: 0x0, symName: __ZN7tinyobj20MaterialStreamReaderD1Ev, symObjAddr: 0xE21C, symBinAddr: 0x100010A54, symSize: 0x2C }
  - { offsetInCU: 0x7515F, offset: 0x7515F, size: 0x8, addend: 0x0, symName: __ZNSt3__115basic_stringbufIcNS_11char_traitsIcEENS_9allocatorIcEEED1Ev, symObjAddr: 0xE248, symBinAddr: 0x100010A80, symSize: 0x2C }
  - { offsetInCU: 0x7518B, offset: 0x7518B, size: 0x8, addend: 0x0, symName: __Z16calcNormalOfFaceNSt3__16vectorI4Vec3NS_9allocatorIS1_EEEEPS1_, symObjAddr: 0xE274, symBinAddr: 0x100010AAC, symSize: 0x154 }
  - { offsetInCU: 0x751FF, offset: 0x751FF, size: 0x8, addend: 0x0, symName: __Zmi4Vec3S_, symObjAddr: 0xE3C8, symBinAddr: 0x100010C00, symSize: 0x5C }
  - { offsetInCU: 0x7523A, offset: 0x7523A, size: 0x8, addend: 0x0, symName: __ZNSt3__16vectorI4Vec3NS_9allocatorIS1_EEEixB7v160006Em, symObjAddr: 0xE424, symBinAddr: 0x100010C5C, symSize: 0x2C }
  - { offsetInCU: 0x75271, offset: 0x75271, size: 0x8, addend: 0x0, symName: __ZN4Vec35crossERS_, symObjAddr: 0xE450, symBinAddr: 0x100010C88, symSize: 0xB0 }
  - { offsetInCU: 0x752CF, offset: 0x752CF, size: 0x8, addend: 0x0, symName: __ZN4Vec310normalizedEv, symObjAddr: 0xE500, symBinAddr: 0x100010D38, symSize: 0x9C }
  - { offsetInCU: 0x75310, offset: 0x75310, size: 0x8, addend: 0x0, symName: __Z7loadObjNSt3__112basic_stringIcNS_11char_traitsIcEENS_9allocatorIcEEEE, symObjAddr: 0xE59C, symBinAddr: 0x100010DD4, symSize: 0x8A4 }
  - { offsetInCU: 0x75542, offset: 0x75542, size: 0x8, addend: 0x0, symName: __ZN7tinyobj15ObjReaderConfigC1Ev, symObjAddr: 0xEE40, symBinAddr: 0x100011678, symSize: 0x2C }
  - { offsetInCU: 0x7556C, offset: 0x7556C, size: 0x8, addend: 0x0, symName: __ZN7tinyobj9ObjReaderC1Ev, symObjAddr: 0xEE6C, symBinAddr: 0x1000116A4, symSize: 0x2C }
  - { offsetInCU: 0x75596, offset: 0x75596, size: 0x8, addend: 0x0, symName: __ZNK7tinyobj9ObjReader5ErrorEv, symObjAddr: 0xEE98, symBinAddr: 0x1000116D0, symSize: 0x18 }
  - { offsetInCU: 0x755BC, offset: 0x755BC, size: 0x8, addend: 0x0, symName: __ZNK7tinyobj9ObjReader9GetAttribEv, symObjAddr: 0xEEB0, symBinAddr: 0x1000116E8, symSize: 0x18 }
  - { offsetInCU: 0x755E2, offset: 0x755E2, size: 0x8, addend: 0x0, symName: __ZNK7tinyobj9ObjReader9GetShapesEv, symObjAddr: 0xEEC8, symBinAddr: 0x100011700, symSize: 0x18 }
  - { offsetInCU: 0x75608, offset: 0x75608, size: 0x8, addend: 0x0, symName: __ZNK7tinyobj9ObjReader12GetMaterialsEv, symObjAddr: 0xEEE0, symBinAddr: 0x100011718, symSize: 0x18 }
  - { offsetInCU: 0x7562E, offset: 0x7562E, size: 0x8, addend: 0x0, symName: __ZNSt3__16vectorINS0_I4FaceNS_9allocatorIS1_EEEENS2_IS4_EEEC1B7v160006Ev, symObjAddr: 0xEEF8, symBinAddr: 0x100011730, symSize: 0x2C }
  - { offsetInCU: 0x75658, offset: 0x75658, size: 0x8, addend: 0x0, symName: __ZNKSt3__16vectorIN7tinyobj7shape_tENS_9allocatorIS2_EEE4sizeB7v160006Ev, symObjAddr: 0xEF24, symBinAddr: 0x10001175C, symSize: 0x28 }
  - { offsetInCU: 0x7567E, offset: 0x7567E, size: 0x8, addend: 0x0, symName: __ZNSt3__16vectorI4FaceNS_9allocatorIS1_EEEC1B7v160006Ev, symObjAddr: 0xEF4C, symBinAddr: 0x100011784, symSize: 0x2C }
  - { offsetInCU: 0x756A8, offset: 0x756A8, size: 0x8, addend: 0x0, symName: __ZNKSt3__16vectorIN7tinyobj7shape_tENS_9allocatorIS2_EEEixB7v160006Em, symObjAddr: 0xEF78, symBinAddr: 0x1000117B0, symSize: 0x2C }
  - { offsetInCU: 0x756DF, offset: 0x756DF, size: 0x8, addend: 0x0, symName: __ZNKSt3__16vectorIjNS_9allocatorIjEEE4sizeB7v160006Ev, symObjAddr: 0xEFA4, symBinAddr: 0x1000117DC, symSize: 0x28 }
  - { offsetInCU: 0x75705, offset: 0x75705, size: 0x8, addend: 0x0, symName: __ZNKSt3__16vectorIjNS_9allocatorIjEEEixB7v160006Em, symObjAddr: 0xEFCC, symBinAddr: 0x100011804, symSize: 0x24 }
  - { offsetInCU: 0x7573C, offset: 0x7573C, size: 0x8, addend: 0x0, symName: __ZNSt3__16vectorI4Vec3NS_9allocatorIS1_EEEC1B7v160006Ev, symObjAddr: 0xEFF0, symBinAddr: 0x100011828, symSize: 0x2C }
  - { offsetInCU: 0x75766, offset: 0x75766, size: 0x8, addend: 0x0, symName: __ZNKSt3__16vectorIN7tinyobj7index_tENS_9allocatorIS2_EEEixB7v160006Em, symObjAddr: 0xF01C, symBinAddr: 0x100011854, symSize: 0x2C }
  - { offsetInCU: 0x7579D, offset: 0x7579D, size: 0x8, addend: 0x0, symName: __ZNKSt3__16vectorIfNS_9allocatorIfEEEixB7v160006Em, symObjAddr: 0xF048, symBinAddr: 0x100011880, symSize: 0x24 }
  - { offsetInCU: 0x757D4, offset: 0x757D4, size: 0x8, addend: 0x0, symName: __ZNSt3__16vectorI4Vec3NS_9allocatorIS1_EEE9push_backB7v160006EOS1_, symObjAddr: 0xF06C, symBinAddr: 0x1000118A4, symSize: 0x6C }
  - { offsetInCU: 0x7580B, offset: 0x7580B, size: 0x8, addend: 0x0, symName: __ZNKSt3__16vectorIiNS_9allocatorIiEEEixB7v160006Em, symObjAddr: 0xF0D8, symBinAddr: 0x100011910, symSize: 0x24 }
  - { offsetInCU: 0x75842, offset: 0x75842, size: 0x8, addend: 0x0, symName: __ZNSt3__16vectorI4Vec3NS_9allocatorIS1_EEEC1ERKS4_, symObjAddr: 0xF0FC, symBinAddr: 0x100011934, symSize: 0x34 }
  - { offsetInCU: 0x7587D, offset: 0x7587D, size: 0x8, addend: 0x0, symName: __ZNSt3__16vectorI4Vec3NS_9allocatorIS1_EEED1B7v160006Ev, symObjAddr: 0xF130, symBinAddr: 0x100011968, symSize: 0x2C }
  - { offsetInCU: 0x758A7, offset: 0x758A7, size: 0x8, addend: 0x0, symName: __ZNSt3__16vectorI4FaceNS_9allocatorIS1_EEE9push_backB7v160006EOS1_, symObjAddr: 0xF15C, symBinAddr: 0x100011994, symSize: 0x6C }
  - { offsetInCU: 0x758DE, offset: 0x758DE, size: 0x8, addend: 0x0, symName: __ZN4FaceC1ENSt3__16vectorI4Vec3NS0_9allocatorIS2_EEEES2_S2_, symObjAddr: 0xF1C8, symBinAddr: 0x100011A00, symSize: 0x64 }
  - { offsetInCU: 0x75933, offset: 0x75933, size: 0x8, addend: 0x0, symName: __ZN4FaceD1Ev, symObjAddr: 0xF22C, symBinAddr: 0x100011A64, symSize: 0x2C }
  - { offsetInCU: 0x7595F, offset: 0x7595F, size: 0x8, addend: 0x0, symName: __ZNSt3__16vectorINS0_I4FaceNS_9allocatorIS1_EEEENS2_IS4_EEE9push_backB7v160006ERKS4_, symObjAddr: 0xF258, symBinAddr: 0x100011A90, symSize: 0x6C }
  - { offsetInCU: 0x75996, offset: 0x75996, size: 0x8, addend: 0x0, symName: __ZNSt3__16vectorI4FaceNS_9allocatorIS1_EEED1B7v160006Ev, symObjAddr: 0xF2C4, symBinAddr: 0x100011AFC, symSize: 0x2C }
  - { offsetInCU: 0x759C0, offset: 0x759C0, size: 0x8, addend: 0x0, symName: __ZNSt3__16vectorINS0_I4FaceNS_9allocatorIS1_EEEENS2_IS4_EEED1B7v160006Ev, symObjAddr: 0xF2F0, symBinAddr: 0x100011B28, symSize: 0x2C }
  - { offsetInCU: 0x759EA, offset: 0x759EA, size: 0x8, addend: 0x0, symName: __ZN7tinyobj9ObjReaderD1Ev, symObjAddr: 0xF31C, symBinAddr: 0x100011B54, symSize: 0x2C }
  - { offsetInCU: 0x75A17, offset: 0x75A17, size: 0x8, addend: 0x0, symName: __ZN7tinyobj15ObjReaderConfigD1Ev, symObjAddr: 0xF348, symBinAddr: 0x100011B80, symSize: 0x2C }
  - { offsetInCU: 0x75A44, offset: 0x75A44, size: 0x8, addend: 0x0, symName: _main, symObjAddr: 0xF374, symBinAddr: 0x100011BAC, symSize: 0x75C }
  - { offsetInCU: 0x75B90, offset: 0x75B90, size: 0x8, addend: 0x0, symName: __ZN11VoxelEngineC1Ev, symObjAddr: 0xFAD0, symBinAddr: 0x100012308, symSize: 0x2C }
  - { offsetInCU: 0x75BBA, offset: 0x75BBA, size: 0x8, addend: 0x0, symName: __ZN3SVOC1Ev, symObjAddr: 0xFAFC, symBinAddr: 0x100012334, symSize: 0x2C }
  - { offsetInCU: 0x75BE4, offset: 0x75BE4, size: 0x8, addend: 0x0, symName: __ZNKSt3__16vectorINS0_I4FaceNS_9allocatorIS1_EEEENS2_IS4_EEE4sizeB7v160006Ev, symObjAddr: 0xFB28, symBinAddr: 0x100012360, symSize: 0x28 }
  - { offsetInCU: 0x75C0A, offset: 0x75C0A, size: 0x8, addend: 0x0, symName: __ZNSt3__16vectorINS0_I4FaceNS_9allocatorIS1_EEEENS2_IS4_EEEixB7v160006Em, symObjAddr: 0xFB50, symBinAddr: 0x100012388, symSize: 0x2C }
  - { offsetInCU: 0x75C41, offset: 0x75C41, size: 0x8, addend: 0x0, symName: __ZNKSt3__16vectorI4FaceNS_9allocatorIS1_EEE4sizeB7v160006Ev, symObjAddr: 0xFB7C, symBinAddr: 0x1000123B4, symSize: 0x28 }
  - { offsetInCU: 0x75C67, offset: 0x75C67, size: 0x8, addend: 0x0, symName: __ZNSt3__16vectorI4FaceNS_9allocatorIS1_EEE9push_backB7v160006ERKS1_, symObjAddr: 0xFBA4, symBinAddr: 0x1000123DC, symSize: 0x6C }
  - { offsetInCU: 0x75C9E, offset: 0x75C9E, size: 0x8, addend: 0x0, symName: __ZNSt3__16vectorI4FaceNS_9allocatorIS1_EEEixB7v160006Em, symObjAddr: 0xFC10, symBinAddr: 0x100012448, symSize: 0x24 }
  - { offsetInCU: 0x75CD5, offset: 0x75CD5, size: 0x8, addend: 0x0, symName: __ZN4Vec3dvEf, symObjAddr: 0xFC34, symBinAddr: 0x10001246C, symSize: 0x5C }
  - { offsetInCU: 0x75D08, offset: 0x75D08, size: 0x8, addend: 0x0, symName: __ZlsRNSt3__113basic_ostreamIcNS_11char_traitsIcEEEE4Vec3, symObjAddr: 0xFC90, symBinAddr: 0x1000124C8, symSize: 0x78 }
  - { offsetInCU: 0x75D43, offset: 0x75D43, size: 0x8, addend: 0x0, symName: __ZNSt3__113basic_ostreamIcNS_11char_traitsIcEEElsB7v160006EPFRS3_S4_E, symObjAddr: 0xFD08, symBinAddr: 0x100012540, symSize: 0x2C }
  - { offsetInCU: 0x75D77, offset: 0x75D77, size: 0x8, addend: 0x0, symName: __ZN3BVHC1ERNSt3__16vectorI4FaceNS0_9allocatorIS2_EEEE, symObjAddr: 0xFD8C, symBinAddr: 0x1000125C4, symSize: 0x34 }
  - { offsetInCU: 0x75DAF, offset: 0x75DAF, size: 0x8, addend: 0x0, symName: __ZN3BVH8BuildBVHERNSt3__16vectorI4FaceNS0_9allocatorIS2_EEEE, symObjAddr: 0xFDC0, symBinAddr: 0x1000125F8, symSize: 0xF4 }
  - { offsetInCU: 0x75E1B, offset: 0x75E1B, size: 0x8, addend: 0x0, symName: __ZN9_RendererC1EP11VoxelEngineiiP3SVOP3BVHibb, symObjAddr: 0xFEB4, symBinAddr: 0x1000126EC, symSize: 0x8C }
  - { offsetInCU: 0x75EB5, offset: 0x75EB5, size: 0x8, addend: 0x0, symName: __ZN9_Renderer6renderEi, symObjAddr: 0xFF40, symBinAddr: 0x100012778, symSize: 0x38 }
  - { offsetInCU: 0x75EEA, offset: 0x75EEA, size: 0x8, addend: 0x0, symName: __ZNKSt3__16chrono8durationIxNS_5ratioILl1ELl1EEEE5countB7v160006Ev, symObjAddr: 0x10034, symBinAddr: 0x10001286C, symSize: 0x18 }
  - { offsetInCU: 0x75F10, offset: 0x75F10, size: 0x8, addend: 0x0, symName: __ZN9_RendererD1Ev, symObjAddr: 0x1004C, symBinAddr: 0x100012884, symSize: 0x2C }
  - { offsetInCU: 0x75F3C, offset: 0x75F3C, size: 0x8, addend: 0x0, symName: __ZN7tinyobj18MaterialFileReaderD0Ev, symObjAddr: 0x10078, symBinAddr: 0x1000128B0, symSize: 0x30 }
  - { offsetInCU: 0x75F66, offset: 0x75F66, size: 0x8, addend: 0x0, symName: __ZN7tinyobj20MaterialStreamReaderD0Ev, symObjAddr: 0x100A8, symBinAddr: 0x1000128E0, symSize: 0x30 }
  - { offsetInCU: 0x75F90, offset: 0x75F90, size: 0x8, addend: 0x0, symName: __ZN4Vec3C2Efff, symObjAddr: 0x100D8, symBinAddr: 0x100012910, symSize: 0x38 }
  - { offsetInCU: 0x75FE4, offset: 0x75FE4, size: 0x8, addend: 0x0, symName: __ZN5iVec3C2Eiii, symObjAddr: 0x10110, symBinAddr: 0x100012948, symSize: 0x38 }
  - { offsetInCU: 0x76038, offset: 0x76038, size: 0x8, addend: 0x0, symName: __ZNSt3__114basic_ofstreamIcNS_11char_traitsIcEEEC1EPKcj, symObjAddr: 0x10148, symBinAddr: 0x100012980, symSize: 0x16C }
  - { offsetInCU: 0x76082, offset: 0x76082, size: 0x8, addend: 0x0, symName: __ZNSt3__19basic_iosIcNS_11char_traitsIcEEEC2B7v160006Ev, symObjAddr: 0x102B4, symBinAddr: 0x100012AEC, symSize: 0x44 }
  - { offsetInCU: 0x760AC, offset: 0x760AC, size: 0x8, addend: 0x0, symName: __ZNSt3__113basic_ostreamIcNS_11char_traitsIcEEEC2B7v160006EPNS_15basic_streambufIcS2_EE, symObjAddr: 0x102F8, symBinAddr: 0x100012B30, symSize: 0x60 }
  - { offsetInCU: 0x760F1, offset: 0x760F1, size: 0x8, addend: 0x0, symName: __ZNSt3__19basic_iosIcNS_11char_traitsIcEEE8setstateB7v160006Ej, symObjAddr: 0x10358, symBinAddr: 0x100012B90, symSize: 0x2C }
  - { offsetInCU: 0x76126, offset: 0x76126, size: 0x8, addend: 0x0, symName: __ZNSt3__18ios_baseC2B7v160006Ev, symObjAddr: 0x10384, symBinAddr: 0x100012BBC, symSize: 0x24 }
  - { offsetInCU: 0x76150, offset: 0x76150, size: 0x8, addend: 0x0, symName: __ZNSt3__19basic_iosIcNS_11char_traitsIcEEE4initB7v160006EPNS_15basic_streambufIcS2_EE, symObjAddr: 0x103A8, symBinAddr: 0x100012BE0, symSize: 0x44 }
  - { offsetInCU: 0x76187, offset: 0x76187, size: 0x8, addend: 0x0, symName: __ZNSt3__111char_traitsIcE3eofEv, symObjAddr: 0x103EC, symBinAddr: 0x100012C24, symSize: 0x8 }
  - { offsetInCU: 0x7619B, offset: 0x7619B, size: 0x8, addend: 0x0, symName: __ZNSt3__18ios_base8setstateB7v160006Ej, symObjAddr: 0x103F4, symBinAddr: 0x100012C2C, symSize: 0x34 }
  - { offsetInCU: 0x761D2, offset: 0x761D2, size: 0x8, addend: 0x0, symName: __ZNSt3__114basic_ofstreamIcNS_11char_traitsIcEEED2Ev, symObjAddr: 0x10428, symBinAddr: 0x100012C60, symSize: 0x64 }
  - { offsetInCU: 0x7620C, offset: 0x7620C, size: 0x8, addend: 0x0, symName: __ZTv0_n24_NSt3__114basic_ofstreamIcNS_11char_traitsIcEEED1Ev, symObjAddr: 0x1048C, symBinAddr: 0x100012CC4, symSize: 0x28 }
  - { offsetInCU: 0x76223, offset: 0x76223, size: 0x8, addend: 0x0, symName: __ZNSt3__114basic_ifstreamIcNS_11char_traitsIcEEED2Ev, symObjAddr: 0x104B4, symBinAddr: 0x100012CEC, symSize: 0x64 }
  - { offsetInCU: 0x7625D, offset: 0x7625D, size: 0x8, addend: 0x0, symName: __ZTv0_n24_NSt3__114basic_ifstreamIcNS_11char_traitsIcEEED1Ev, symObjAddr: 0x10518, symBinAddr: 0x100012D50, symSize: 0x28 }
  - { offsetInCU: 0x76274, offset: 0x76274, size: 0x8, addend: 0x0, symName: __ZN4Vec3C2Ev, symObjAddr: 0x10540, symBinAddr: 0x100012D78, symSize: 0x24 }
  - { offsetInCU: 0x7629E, offset: 0x7629E, size: 0x8, addend: 0x0, symName: __ZN4Vec3pLES_, symObjAddr: 0x10564, symBinAddr: 0x100012D9C, symSize: 0x50 }
  - { offsetInCU: 0x762D2, offset: 0x762D2, size: 0x8, addend: 0x0, symName: __ZN4Vec3mLEf, symObjAddr: 0x105B4, symBinAddr: 0x100012DEC, symSize: 0x48 }
  - { offsetInCU: 0x76306, offset: 0x76306, size: 0x8, addend: 0x0, symName: __ZN5iVec2C2Eii, symObjAddr: 0x105FC, symBinAddr: 0x100012E34, symSize: 0x2C }
  - { offsetInCU: 0x7634C, offset: 0x7634C, size: 0x8, addend: 0x0, symName: __ZN6CameraC2E4Vec3S0_S0_5iVec2f, symObjAddr: 0x10628, symBinAddr: 0x100012E60, symSize: 0x598 }
  - { offsetInCU: 0x76417, offset: 0x76417, size: 0x8, addend: 0x0, symName: __ZN9Matrix4x4C1Ev, symObjAddr: 0x10BC0, symBinAddr: 0x1000133F8, symSize: 0x2C }
  - { offsetInCU: 0x76441, offset: 0x76441, size: 0x8, addend: 0x0, symName: __ZN4Vec39normalizeEv, symObjAddr: 0x10BEC, symBinAddr: 0x100013424, symSize: 0x8C }
  - { offsetInCU: 0x76475, offset: 0x76475, size: 0x8, addend: 0x0, symName: __ZN4Vec33magEv, symObjAddr: 0x10C78, symBinAddr: 0x1000134B0, symSize: 0x48 }
  - { offsetInCU: 0x7649A, offset: 0x7649A, size: 0x8, addend: 0x0, symName: __Z3tanB7v160006f, symObjAddr: 0x10CC0, symBinAddr: 0x1000134F8, symSize: 0x24 }
  - { offsetInCU: 0x764C9, offset: 0x764C9, size: 0x8, addend: 0x0, symName: __ZN4Vec3ngEv, symObjAddr: 0x10CE4, symBinAddr: 0x10001351C, symSize: 0x4C }
  - { offsetInCU: 0x764EF, offset: 0x764EF, size: 0x8, addend: 0x0, symName: __ZN9Matrix4x4C2Ev, symObjAddr: 0x10D30, symBinAddr: 0x100013568, symSize: 0x44 }
  - { offsetInCU: 0x76518, offset: 0x76518, size: 0x8, addend: 0x0, symName: __Z4sqrtB7v160006f, symObjAddr: 0x10D74, symBinAddr: 0x1000135AC, symSize: 0x18 }
  - { offsetInCU: 0x76547, offset: 0x76547, size: 0x8, addend: 0x0, symName: __ZNSt3__15tupleIJ4Vec3S1_bEEC2B7v160006IJRS1_S4_bELi0EEEDpOT_, symObjAddr: 0x10D8C, symBinAddr: 0x1000135C4, symSize: 0x44 }
  - { offsetInCU: 0x765B9, offset: 0x765B9, size: 0x8, addend: 0x0, symName: __ZNSt3__112__tuple_implINS_15__tuple_indicesIJLm0ELm1ELm2EEEEJ4Vec3S3_bEEC1B7v160006IJLm0ELm1ELm2EEJS3_S3_bEJEJEJRS3_S6_bEEENS1_IJXspT_EEEENS_13__tuple_typesIJDpT0_EEENS1_IJXspT1_EEEENS8_IJDpT2_EEEDpOT3_, symObjAddr: 0x10DD0, symBinAddr: 0x100013608, symSize: 0x44 }
  - { offsetInCU: 0x7668C, offset: 0x7668C, size: 0x8, addend: 0x0, symName: __ZNSt3__112__tuple_implINS_15__tuple_indicesIJLm0ELm1ELm2EEEEJ4Vec3S3_bEEC2B7v160006IJLm0ELm1ELm2EEJS3_S3_bEJEJEJRS3_S6_bEEENS1_IJXspT_EEEENS_13__tuple_typesIJDpT0_EEENS1_IJXspT1_EEEENS8_IJDpT2_EEEDpOT3_, symObjAddr: 0x10E14, symBinAddr: 0x10001364C, symSize: 0x5C }
  - { offsetInCU: 0x7675F, offset: 0x7675F, size: 0x8, addend: 0x0, symName: __ZNSt3__112__tuple_leafILm0E4Vec3Lb0EEC2B7v160006IRS1_vEEOT_, symObjAddr: 0x10E70, symBinAddr: 0x1000136A8, symSize: 0x2C }
  - { offsetInCU: 0x767A2, offset: 0x767A2, size: 0x8, addend: 0x0, symName: __ZNSt3__112__tuple_leafILm1E4Vec3Lb0EEC2B7v160006IRS1_vEEOT_, symObjAddr: 0x10E9C, symBinAddr: 0x1000136D4, symSize: 0x2C }
  - { offsetInCU: 0x767E5, offset: 0x767E5, size: 0x8, addend: 0x0, symName: __ZNSt3__112__tuple_leafILm2EbLb0EEC2B7v160006IbvEEOT_, symObjAddr: 0x10EC8, symBinAddr: 0x100013700, symSize: 0x28 }
  - { offsetInCU: 0x76828, offset: 0x76828, size: 0x8, addend: 0x0, symName: __ZNSt3__15tupleIJ4Vec3S1_bEEC2B7v160006IJS1_RS1_RbELi0EEEDpOT_, symObjAddr: 0x10EF0, symBinAddr: 0x100013728, symSize: 0x44 }
  - { offsetInCU: 0x7689A, offset: 0x7689A, size: 0x8, addend: 0x0, symName: __ZNSt3__112__tuple_implINS_15__tuple_indicesIJLm0ELm1ELm2EEEEJ4Vec3S3_bEEC1B7v160006IJLm0ELm1ELm2EEJS3_S3_bEJEJEJS3_RS3_RbEEENS1_IJXspT_EEEENS_13__tuple_typesIJDpT0_EEENS1_IJXspT1_EEEENS9_IJDpT2_EEEDpOT3_, symObjAddr: 0x10F34, symBinAddr: 0x10001376C, symSize: 0x44 }
  - { offsetInCU: 0x7696D, offset: 0x7696D, size: 0x8, addend: 0x0, symName: __ZNSt3__112__tuple_implINS_15__tuple_indicesIJLm0ELm1ELm2EEEEJ4Vec3S3_bEEC2B7v160006IJLm0ELm1ELm2EEJS3_S3_bEJEJEJS3_RS3_RbEEENS1_IJXspT_EEEENS_13__tuple_typesIJDpT0_EEENS1_IJXspT1_EEEENS9_IJDpT2_EEEDpOT3_, symObjAddr: 0x10F78, symBinAddr: 0x1000137B0, symSize: 0x5C }
  - { offsetInCU: 0x76A40, offset: 0x76A40, size: 0x8, addend: 0x0, symName: __ZNSt3__112__tuple_leafILm0E4Vec3Lb0EEC2B7v160006IS1_vEEOT_, symObjAddr: 0x10FD4, symBinAddr: 0x10001380C, symSize: 0x2C }
  - { offsetInCU: 0x76A83, offset: 0x76A83, size: 0x8, addend: 0x0, symName: __ZNSt3__112__tuple_leafILm2EbLb0EEC2B7v160006IRbvEEOT_, symObjAddr: 0x11000, symBinAddr: 0x100013838, symSize: 0x28 }
  - { offsetInCU: 0x76AC6, offset: 0x76AC6, size: 0x8, addend: 0x0, symName: __ZNSt3__112basic_stringIcNS_11char_traitsIcEENS_9allocatorIcEEEC1B7v160006IPKcvEET_S9_, symObjAddr: 0x116D8, symBinAddr: 0x100013F10, symSize: 0x3C }
  - { offsetInCU: 0x76B18, offset: 0x76B18, size: 0x8, addend: 0x0, symName: __ZNSt3__112basic_stringIcNS_11char_traitsIcEENS_9allocatorIcEEEC2B7v160006IPKcvEET_S9_, symObjAddr: 0x11714, symBinAddr: 0x100013F4C, symSize: 0x54 }
  - { offsetInCU: 0x76B70, offset: 0x76B70, size: 0x8, addend: 0x0, symName: __ZNSt3__117__compressed_pairINS_12basic_stringIcNS_11char_traitsIcEENS_9allocatorIcEEE5__repES5_EC1B7v160006INS_18__default_init_tagESA_EEOT_OT0_, symObjAddr: 0x11768, symBinAddr: 0x100013FA0, symSize: 0x3C }
  - { offsetInCU: 0x76BC8, offset: 0x76BC8, size: 0x8, addend: 0x0, symName: __ZNSt3__112basic_stringIcNS_11char_traitsIcEENS_9allocatorIcEEE6__initIPKcEENS_9enable_ifIXsr27__is_cpp17_forward_iteratorIT_EE5valueEvE4typeESA_SA_, symObjAddr: 0x117A4, symBinAddr: 0x100013FDC, symSize: 0x158 }
  - { offsetInCU: 0x76C52, offset: 0x76C52, size: 0x8, addend: 0x0, symName: __ZNSt3__117__compressed_pairINS_12basic_stringIcNS_11char_traitsIcEENS_9allocatorIcEEE5__repES5_EC2B7v160006INS_18__default_init_tagESA_EEOT_OT0_, symObjAddr: 0x1190C, symBinAddr: 0x100014144, symSize: 0x3C }
  - { offsetInCU: 0x76CAA, offset: 0x76CAA, size: 0x8, addend: 0x0, symName: __ZNSt3__122__compressed_pair_elemINS_12basic_stringIcNS_11char_traitsIcEENS_9allocatorIcEEE5__repELi0ELb0EEC2B7v160006ENS_18__default_init_tagE, symObjAddr: 0x11948, symBinAddr: 0x100014180, symSize: 0x14 }
  - { offsetInCU: 0x76CDF, offset: 0x76CDF, size: 0x8, addend: 0x0, symName: __ZNSt3__122__compressed_pair_elemINS_9allocatorIcEELi1ELb1EEC2B7v160006ENS_18__default_init_tagE, symObjAddr: 0x1195C, symBinAddr: 0x100014194, symSize: 0x2C }
  - { offsetInCU: 0x76D14, offset: 0x76D14, size: 0x8, addend: 0x0, symName: __ZNSt3__19allocatorIcEC2B7v160006Ev, symObjAddr: 0x11988, symBinAddr: 0x1000141C0, symSize: 0x2C }
  - { offsetInCU: 0x76D3E, offset: 0x76D3E, size: 0x8, addend: 0x0, symName: __ZNSt3__116__non_trivial_ifILb1ENS_9allocatorIcEEEC2B7v160006Ev, symObjAddr: 0x119B4, symBinAddr: 0x1000141EC, symSize: 0x14 }
  - { offsetInCU: 0x76D68, offset: 0x76D68, size: 0x8, addend: 0x0, symName: __ZNKSt3__112basic_stringIcNS_11char_traitsIcEENS_9allocatorIcEEE8max_sizeB7v160006Ev, symObjAddr: 0x119F4, symBinAddr: 0x10001422C, symSize: 0xAC }
  - { offsetInCU: 0x76DBA, offset: 0x76DBA, size: 0x8, addend: 0x0, symName: __ZNKSt3__112basic_stringIcNS_11char_traitsIcEENS_9allocatorIcEEE20__throw_length_errorB7v160006Ev, symObjAddr: 0x11AA0, symBinAddr: 0x1000142D8, symSize: 0x1C }
  - { offsetInCU: 0x76DE0, offset: 0x76DE0, size: 0x8, addend: 0x0, symName: __ZNSt3__112basic_stringIcNS_11char_traitsIcEENS_9allocatorIcEEE13__fits_in_ssoB7v160006Em, symObjAddr: 0x11ABC, symBinAddr: 0x1000142F4, symSize: 0x20 }
  - { offsetInCU: 0x76E04, offset: 0x76E04, size: 0x8, addend: 0x0, symName: __ZNSt3__112basic_stringIcNS_11char_traitsIcEENS_9allocatorIcEEE16__set_short_sizeB7v160006Em, symObjAddr: 0x11ADC, symBinAddr: 0x100014314, symSize: 0x78 }
  - { offsetInCU: 0x76E39, offset: 0x76E39, size: 0x8, addend: 0x0, symName: __ZNSt3__112basic_stringIcNS_11char_traitsIcEENS_9allocatorIcEEE19__get_short_pointerB7v160006Ev, symObjAddr: 0x11B54, symBinAddr: 0x10001438C, symSize: 0x28 }
  - { offsetInCU: 0x76E5F, offset: 0x76E5F, size: 0x8, addend: 0x0, symName: __ZNSt3__112basic_stringIcNS_11char_traitsIcEENS_9allocatorIcEEE7__allocB7v160006Ev, symObjAddr: 0x11BBC, symBinAddr: 0x1000143F4, symSize: 0x24 }
  - { offsetInCU: 0x76E85, offset: 0x76E85, size: 0x8, addend: 0x0, symName: __ZNSt3__112basic_stringIcNS_11char_traitsIcEENS_9allocatorIcEEE11__recommendB7v160006Em, symObjAddr: 0x11BE0, symBinAddr: 0x100014418, symSize: 0x84 }
  - { offsetInCU: 0x76EB8, offset: 0x76EB8, size: 0x8, addend: 0x0, symName: __ZNSt3__112basic_stringIcNS_11char_traitsIcEENS_9allocatorIcEEE16__begin_lifetimeB7v160006EPcm, symObjAddr: 0x11C64, symBinAddr: 0x10001449C, symSize: 0x14 }
  - { offsetInCU: 0x76EEB, offset: 0x76EEB, size: 0x8, addend: 0x0, symName: __ZNSt3__112basic_stringIcNS_11char_traitsIcEENS_9allocatorIcEEE18__set_long_pointerB7v160006EPc, symObjAddr: 0x11C78, symBinAddr: 0x1000144B0, symSize: 0x38 }
  - { offsetInCU: 0x76F20, offset: 0x76F20, size: 0x8, addend: 0x0, symName: __ZNSt3__112basic_stringIcNS_11char_traitsIcEENS_9allocatorIcEEE14__set_long_capB7v160006Em, symObjAddr: 0x11CB0, symBinAddr: 0x1000144E8, symSize: 0x70 }
  - { offsetInCU: 0x76F55, offset: 0x76F55, size: 0x8, addend: 0x0, symName: __ZNSt3__112basic_stringIcNS_11char_traitsIcEENS_9allocatorIcEEE15__set_long_sizeB7v160006Em, symObjAddr: 0x11D20, symBinAddr: 0x100014558, symSize: 0x38 }
  - { offsetInCU: 0x76F8A, offset: 0x76F8A, size: 0x8, addend: 0x0, symName: __ZNSt3__111char_traitsIcE6assignERcRKc, symObjAddr: 0x11D58, symBinAddr: 0x100014590, symSize: 0x24 }
  - { offsetInCU: 0x76FC5, offset: 0x76FC5, size: 0x8, addend: 0x0, symName: __ZNSt3__116allocator_traitsINS_9allocatorIcEEE8max_sizeB7v160006IS2_vEEmRKS2_, symObjAddr: 0x11D9C, symBinAddr: 0x1000145D4, symSize: 0x24 }
  - { offsetInCU: 0x76FF3, offset: 0x76FF3, size: 0x8, addend: 0x0, symName: __ZNKSt3__112basic_stringIcNS_11char_traitsIcEENS_9allocatorIcEEE7__allocB7v160006Ev, symObjAddr: 0x11DC0, symBinAddr: 0x1000145F8, symSize: 0x24 }
  - { offsetInCU: 0x77019, offset: 0x77019, size: 0x8, addend: 0x0, symName: __ZNSt3__114numeric_limitsImE3maxB7v160006Ev, symObjAddr: 0x11DE4, symBinAddr: 0x10001461C, symSize: 0x14 }
  - { offsetInCU: 0x7702D, offset: 0x7702D, size: 0x8, addend: 0x0, symName: __ZNKSt3__19allocatorIcE8max_sizeB7v160006Ev, symObjAddr: 0x11DF8, symBinAddr: 0x100014630, symSize: 0x14 }
  - { offsetInCU: 0x77053, offset: 0x77053, size: 0x8, addend: 0x0, symName: __ZNKSt3__117__compressed_pairINS_12basic_stringIcNS_11char_traitsIcEENS_9allocatorIcEEE5__repES5_E6secondB7v160006Ev, symObjAddr: 0x11E0C, symBinAddr: 0x100014644, symSize: 0x24 }
  - { offsetInCU: 0x77079, offset: 0x77079, size: 0x8, addend: 0x0, symName: __ZNKSt3__122__compressed_pair_elemINS_9allocatorIcEELi1ELb1EE5__getB7v160006Ev, symObjAddr: 0x11E30, symBinAddr: 0x100014668, symSize: 0x14 }
  - { offsetInCU: 0x7709F, offset: 0x7709F, size: 0x8, addend: 0x0, symName: __ZNSt3__123__libcpp_numeric_limitsImLb1EE3maxB7v160006Ev, symObjAddr: 0x11E44, symBinAddr: 0x10001467C, symSize: 0x8 }
  - { offsetInCU: 0x770B3, offset: 0x770B3, size: 0x8, addend: 0x0, symName: __ZNSt12length_errorC1B7v160006EPKc, symObjAddr: 0x11EB0, symBinAddr: 0x1000146E8, symSize: 0x34 }
  - { offsetInCU: 0x770EB, offset: 0x770EB, size: 0x8, addend: 0x0, symName: __ZNSt12length_errorC2B7v160006EPKc, symObjAddr: 0x11EE4, symBinAddr: 0x10001471C, symSize: 0x4C }
  - { offsetInCU: 0x77123, offset: 0x77123, size: 0x8, addend: 0x0, symName: __ZNSt3__117__compressed_pairINS_12basic_stringIcNS_11char_traitsIcEENS_9allocatorIcEEE5__repES5_E5firstB7v160006Ev, symObjAddr: 0x11F30, symBinAddr: 0x100014768, symSize: 0x24 }
  - { offsetInCU: 0x77149, offset: 0x77149, size: 0x8, addend: 0x0, symName: __ZNSt3__122__compressed_pair_elemINS_12basic_stringIcNS_11char_traitsIcEENS_9allocatorIcEEE5__repELi0ELb0EE5__getB7v160006Ev, symObjAddr: 0x11F54, symBinAddr: 0x10001478C, symSize: 0x14 }
  - { offsetInCU: 0x7716F, offset: 0x7716F, size: 0x8, addend: 0x0, symName: __ZNSt3__114pointer_traitsIPcE10pointer_toB7v160006ERc, symObjAddr: 0x11F68, symBinAddr: 0x1000147A0, symSize: 0x14 }
  - { offsetInCU: 0x77192, offset: 0x77192, size: 0x8, addend: 0x0, symName: __ZNSt3__19allocatorIcE8allocateB7v160006Em, symObjAddr: 0x11F7C, symBinAddr: 0x1000147B4, symSize: 0x58 }
  - { offsetInCU: 0x771C6, offset: 0x771C6, size: 0x8, addend: 0x0, symName: __ZNSt3__117__compressed_pairINS_12basic_stringIcNS_11char_traitsIcEENS_9allocatorIcEEE5__repES5_E6secondB7v160006Ev, symObjAddr: 0x120D8, symBinAddr: 0x100014910, symSize: 0x24 }
  - { offsetInCU: 0x771EC, offset: 0x771EC, size: 0x8, addend: 0x0, symName: __ZNSt3__122__compressed_pair_elemINS_9allocatorIcEELi1ELb1EE5__getB7v160006Ev, symObjAddr: 0x120FC, symBinAddr: 0x100014934, symSize: 0x14 }
  - { offsetInCU: 0x77212, offset: 0x77212, size: 0x8, addend: 0x0, symName: __ZNSt3__112basic_stringIcNS_11char_traitsIcEENS_9allocatorIcEEE10__align_itB7v160006ILm16EEEmm, symObjAddr: 0x12110, symBinAddr: 0x100014948, symSize: 0x1C }
  - { offsetInCU: 0x77240, offset: 0x77240, size: 0x8, addend: 0x0, symName: __ZN7tinyobj10material_tC2Ev, symObjAddr: 0x1212C, symBinAddr: 0x100014964, symSize: 0x170 }
  - { offsetInCU: 0x77271, offset: 0x77271, size: 0x8, addend: 0x0, symName: __ZN7tinyobj16texture_option_tC1Ev, symObjAddr: 0x1229C, symBinAddr: 0x100014AD4, symSize: 0x2C }
  - { offsetInCU: 0x7729D, offset: 0x7729D, size: 0x8, addend: 0x0, symName: __ZNSt3__13mapINS_12basic_stringIcNS_11char_traitsIcEENS_9allocatorIcEEEES6_NS_4lessIS6_EENS4_INS_4pairIKS6_S6_EEEEEC1B7v160006Ev, symObjAddr: 0x122C8, symBinAddr: 0x100014B00, symSize: 0x2C }
  - { offsetInCU: 0x772C7, offset: 0x772C7, size: 0x8, addend: 0x0, symName: __ZN7tinyobj16texture_option_tC2Ev, symObjAddr: 0x122F4, symBinAddr: 0x100014B2C, symSize: 0x30 }
  - { offsetInCU: 0x772F3, offset: 0x772F3, size: 0x8, addend: 0x0, symName: __ZNSt3__13mapINS_12basic_stringIcNS_11char_traitsIcEENS_9allocatorIcEEEES6_NS_4lessIS6_EENS4_INS_4pairIKS6_S6_EEEEEC2B7v160006Ev, symObjAddr: 0x12324, symBinAddr: 0x100014B5C, symSize: 0x40 }
  - { offsetInCU: 0x7731D, offset: 0x7731D, size: 0x8, addend: 0x0, symName: __ZNSt3__119__map_value_compareINS_12basic_stringIcNS_11char_traitsIcEENS_9allocatorIcEEEENS_12__value_typeIS6_S6_EENS_4lessIS6_EELb1EEC1B7v160006ESA_, symObjAddr: 0x12364, symBinAddr: 0x100014B9C, symSize: 0x2C }
  - { offsetInCU: 0x77356, offset: 0x77356, size: 0x8, addend: 0x0, symName: __ZNSt3__16__treeINS_12__value_typeINS_12basic_stringIcNS_11char_traitsIcEENS_9allocatorIcEEEES7_EENS_19__map_value_compareIS7_S8_NS_4lessIS7_EELb1EEENS5_IS8_EEEC1ERKSC_, symObjAddr: 0x12390, symBinAddr: 0x100014BC8, symSize: 0x34 }
  - { offsetInCU: 0x77391, offset: 0x77391, size: 0x8, addend: 0x0, symName: __ZNSt3__119__map_value_compareINS_12basic_stringIcNS_11char_traitsIcEENS_9allocatorIcEEEENS_12__value_typeIS6_S6_EENS_4lessIS6_EELb1EEC2B7v160006ESA_, symObjAddr: 0x123C4, symBinAddr: 0x100014BFC, symSize: 0x14 }
  - { offsetInCU: 0x773CA, offset: 0x773CA, size: 0x8, addend: 0x0, symName: __ZNSt3__16__treeINS_12__value_typeINS_12basic_stringIcNS_11char_traitsIcEENS_9allocatorIcEEEES7_EENS_19__map_value_compareIS7_S8_NS_4lessIS7_EELb1EEENS5_IS8_EEEC2ERKSC_, symObjAddr: 0x123D8, symBinAddr: 0x100014C10, symSize: 0x7C }
  - { offsetInCU: 0x77405, offset: 0x77405, size: 0x8, addend: 0x0, symName: __ZNSt3__117__compressed_pairINS_15__tree_end_nodeIPNS_16__tree_node_baseIPvEEEENS_9allocatorINS_11__tree_nodeINS_12__value_typeINS_12basic_stringIcNS_11char_traitsIcEENS7_IcEEEESE_EES3_EEEEEC1B7v160006ILb1EvEEv, symObjAddr: 0x12454, symBinAddr: 0x100014C8C, symSize: 0x2C }
  - { offsetInCU: 0x7743A, offset: 0x7743A, size: 0x8, addend: 0x0, symName: __ZNSt3__117__compressed_pairImNS_19__map_value_compareINS_12basic_stringIcNS_11char_traitsIcEENS_9allocatorIcEEEENS_12__value_typeIS7_S7_EENS_4lessIS7_EELb1EEEEC1B7v160006IiRKSC_EEOT_OT0_, symObjAddr: 0x1248C, symBinAddr: 0x100014CC4, symSize: 0x3C }
  - { offsetInCU: 0x77492, offset: 0x77492, size: 0x8, addend: 0x0, symName: __ZNSt3__16__treeINS_12__value_typeINS_12basic_stringIcNS_11char_traitsIcEENS_9allocatorIcEEEES7_EENS_19__map_value_compareIS7_S8_NS_4lessIS7_EELb1EEENS5_IS8_EEE10__end_nodeB7v160006Ev, symObjAddr: 0x124C8, symBinAddr: 0x100014D00, symSize: 0x2C }
  - { offsetInCU: 0x774B8, offset: 0x774B8, size: 0x8, addend: 0x0, symName: __ZNSt3__16__treeINS_12__value_typeINS_12basic_stringIcNS_11char_traitsIcEENS_9allocatorIcEEEES7_EENS_19__map_value_compareIS7_S8_NS_4lessIS7_EELb1EEENS5_IS8_EEE12__begin_nodeB7v160006Ev, symObjAddr: 0x124F4, symBinAddr: 0x100014D2C, symSize: 0x14 }
  - { offsetInCU: 0x774DE, offset: 0x774DE, size: 0x8, addend: 0x0, symName: __ZNSt3__117__compressed_pairINS_15__tree_end_nodeIPNS_16__tree_node_baseIPvEEEENS_9allocatorINS_11__tree_nodeINS_12__value_typeINS_12basic_stringIcNS_11char_traitsIcEENS7_IcEEEESE_EES3_EEEEEC2B7v160006ILb1EvEEv, symObjAddr: 0x12508, symBinAddr: 0x100014D40, symSize: 0x34 }
  - { offsetInCU: 0x77513, offset: 0x77513, size: 0x8, addend: 0x0, symName: __ZNSt3__122__compressed_pair_elemINS_15__tree_end_nodeIPNS_16__tree_node_baseIPvEEEELi0ELb0EEC2B7v160006ENS_16__value_init_tagE, symObjAddr: 0x1253C, symBinAddr: 0x100014D74, symSize: 0x2C }
  - { offsetInCU: 0x77548, offset: 0x77548, size: 0x8, addend: 0x0, symName: __ZNSt3__122__compressed_pair_elemINS_9allocatorINS_11__tree_nodeINS_12__value_typeINS_12basic_stringIcNS_11char_traitsIcEENS1_IcEEEES8_EEPvEEEELi1ELb1EEC2B7v160006ENS_16__value_init_tagE, symObjAddr: 0x12568, symBinAddr: 0x100014DA0, symSize: 0x2C }
  - { offsetInCU: 0x7757D, offset: 0x7757D, size: 0x8, addend: 0x0, symName: __ZNSt3__115__tree_end_nodeIPNS_16__tree_node_baseIPvEEEC1B7v160006Ev, symObjAddr: 0x12594, symBinAddr: 0x100014DCC, symSize: 0x2C }
  - { offsetInCU: 0x775A7, offset: 0x775A7, size: 0x8, addend: 0x0, symName: __ZNSt3__115__tree_end_nodeIPNS_16__tree_node_baseIPvEEEC2B7v160006Ev, symObjAddr: 0x125C0, symBinAddr: 0x100014DF8, symSize: 0x18 }
  - { offsetInCU: 0x775D1, offset: 0x775D1, size: 0x8, addend: 0x0, symName: __ZNSt3__19allocatorINS_11__tree_nodeINS_12__value_typeINS_12basic_stringIcNS_11char_traitsIcEENS0_IcEEEES7_EEPvEEEC2B7v160006Ev, symObjAddr: 0x125D8, symBinAddr: 0x100014E10, symSize: 0x2C }
  - { offsetInCU: 0x775FB, offset: 0x775FB, size: 0x8, addend: 0x0, symName: __ZNSt3__116__non_trivial_ifILb1ENS_9allocatorINS_11__tree_nodeINS_12__value_typeINS_12basic_stringIcNS_11char_traitsIcEENS1_IcEEEES8_EEPvEEEEEC2B7v160006Ev, symObjAddr: 0x12604, symBinAddr: 0x100014E3C, symSize: 0x14 }
  - { offsetInCU: 0x77625, offset: 0x77625, size: 0x8, addend: 0x0, symName: __ZNSt3__117__compressed_pairImNS_19__map_value_compareINS_12basic_stringIcNS_11char_traitsIcEENS_9allocatorIcEEEENS_12__value_typeIS7_S7_EENS_4lessIS7_EELb1EEEEC2B7v160006IiRKSC_EEOT_OT0_, symObjAddr: 0x12618, symBinAddr: 0x100014E50, symSize: 0x44 }
  - { offsetInCU: 0x7767D, offset: 0x7767D, size: 0x8, addend: 0x0, symName: __ZNSt3__122__compressed_pair_elemImLi0ELb0EEC2B7v160006IivEEOT_, symObjAddr: 0x1265C, symBinAddr: 0x100014E94, symSize: 0x24 }
  - { offsetInCU: 0x776BF, offset: 0x776BF, size: 0x8, addend: 0x0, symName: __ZNSt3__122__compressed_pair_elemINS_19__map_value_compareINS_12basic_stringIcNS_11char_traitsIcEENS_9allocatorIcEEEENS_12__value_typeIS7_S7_EENS_4lessIS7_EELb1EEELi1ELb1EEC2B7v160006IRKSC_vEEOT_, symObjAddr: 0x12680, symBinAddr: 0x100014EB8, symSize: 0x18 }
  - { offsetInCU: 0x77701, offset: 0x77701, size: 0x8, addend: 0x0, symName: __ZNSt3__114pointer_traitsIPNS_15__tree_end_nodeIPNS_16__tree_node_baseIPvEEEEE10pointer_toB7v160006ERS6_, symObjAddr: 0x12698, symBinAddr: 0x100014ED0, symSize: 0x14 }
  - { offsetInCU: 0x77724, offset: 0x77724, size: 0x8, addend: 0x0, symName: __ZNSt3__117__compressed_pairINS_15__tree_end_nodeIPNS_16__tree_node_baseIPvEEEENS_9allocatorINS_11__tree_nodeINS_12__value_typeINS_12basic_stringIcNS_11char_traitsIcEENS7_IcEEEESE_EES3_EEEEE5firstB7v160006Ev, symObjAddr: 0x126AC, symBinAddr: 0x100014EE4, symSize: 0x24 }
  - { offsetInCU: 0x7774A, offset: 0x7774A, size: 0x8, addend: 0x0, symName: __ZNSt3__122__compressed_pair_elemINS_15__tree_end_nodeIPNS_16__tree_node_baseIPvEEEELi0ELb0EE5__getB7v160006Ev, symObjAddr: 0x126D0, symBinAddr: 0x100014F08, symSize: 0x14 }
  - { offsetInCU: 0x77770, offset: 0x77770, size: 0x8, addend: 0x0, symName: __ZNSt3__13mapINS_12basic_stringIcNS_11char_traitsIcEENS_9allocatorIcEEEES6_NS_4lessIS6_EENS4_INS_4pairIKS6_S6_EEEEE5clearB7v160006Ev, symObjAddr: 0x127CC, symBinAddr: 0x100015004, symSize: 0x24 }
  - { offsetInCU: 0x77796, offset: 0x77796, size: 0x8, addend: 0x0, symName: __ZNSt3__16__treeINS_12__value_typeINS_12basic_stringIcNS_11char_traitsIcEENS_9allocatorIcEEEES7_EENS_19__map_value_compareIS7_S8_NS_4lessIS7_EELb1EEENS5_IS8_EEE5clearEv, symObjAddr: 0x127F0, symBinAddr: 0x100015028, symSize: 0x74 }
  - { offsetInCU: 0x777BE, offset: 0x777BE, size: 0x8, addend: 0x0, symName: __ZNSt3__16__treeINS_12__value_typeINS_12basic_stringIcNS_11char_traitsIcEENS_9allocatorIcEEEES7_EENS_19__map_value_compareIS7_S8_NS_4lessIS7_EELb1EEENS5_IS8_EEE7destroyEPNS_11__tree_nodeIS8_PvEE, symObjAddr: 0x12864, symBinAddr: 0x10001509C, symSize: 0xAC }
  - { offsetInCU: 0x7780A, offset: 0x7780A, size: 0x8, addend: 0x0, symName: __ZNKSt3__16__treeINS_12__value_typeINS_12basic_stringIcNS_11char_traitsIcEENS_9allocatorIcEEEES7_EENS_19__map_value_compareIS7_S8_NS_4lessIS7_EELb1EEENS5_IS8_EEE6__rootB7v160006Ev, symObjAddr: 0x12910, symBinAddr: 0x100015148, symSize: 0x28 }
  - { offsetInCU: 0x77830, offset: 0x77830, size: 0x8, addend: 0x0, symName: __ZNSt3__16__treeINS_12__value_typeINS_12basic_stringIcNS_11char_traitsIcEENS_9allocatorIcEEEES7_EENS_19__map_value_compareIS7_S8_NS_4lessIS7_EELb1EEENS5_IS8_EEE4sizeB7v160006Ev, symObjAddr: 0x12938, symBinAddr: 0x100015170, symSize: 0x28 }
  - { offsetInCU: 0x77856, offset: 0x77856, size: 0x8, addend: 0x0, symName: __ZNSt3__16__treeINS_12__value_typeINS_12basic_stringIcNS_11char_traitsIcEENS_9allocatorIcEEEES7_EENS_19__map_value_compareIS7_S8_NS_4lessIS7_EELb1EEENS5_IS8_EEE12__node_allocB7v160006Ev, symObjAddr: 0x12960, symBinAddr: 0x100015198, symSize: 0x28 }
  - { offsetInCU: 0x7787C, offset: 0x7787C, size: 0x8, addend: 0x0, symName: __ZNSt3__116allocator_traitsINS_9allocatorINS_11__tree_nodeINS_12__value_typeINS_12basic_stringIcNS_11char_traitsIcEENS1_IcEEEES8_EEPvEEEEE7destroyB7v160006INS_4pairIKS8_S8_EEvvEEvRSC_PT_, symObjAddr: 0x12988, symBinAddr: 0x1000151C0, symSize: 0x28 }
  - { offsetInCU: 0x778B7, offset: 0x778B7, size: 0x8, addend: 0x0, symName: __ZNSt3__122__tree_key_value_typesINS_12__value_typeINS_12basic_stringIcNS_11char_traitsIcEENS_9allocatorIcEEEES7_EEE9__get_ptrB7v160006ERS8_, symObjAddr: 0x129B0, symBinAddr: 0x1000151E8, symSize: 0x24 }
  - { offsetInCU: 0x778DB, offset: 0x778DB, size: 0x8, addend: 0x0, symName: __ZNSt3__116allocator_traitsINS_9allocatorINS_11__tree_nodeINS_12__value_typeINS_12basic_stringIcNS_11char_traitsIcEENS1_IcEEEES8_EEPvEEEEE10deallocateB7v160006ERSC_PSB_m, symObjAddr: 0x129D4, symBinAddr: 0x10001520C, symSize: 0x34 }
  - { offsetInCU: 0x7791D, offset: 0x7791D, size: 0x8, addend: 0x0, symName: __ZNSt3__117__compressed_pairINS_15__tree_end_nodeIPNS_16__tree_node_baseIPvEEEENS_9allocatorINS_11__tree_nodeINS_12__value_typeINS_12basic_stringIcNS_11char_traitsIcEENS7_IcEEEESE_EES3_EEEEE6secondB7v160006Ev, symObjAddr: 0x12A08, symBinAddr: 0x100015240, symSize: 0x24 }
  - { offsetInCU: 0x77943, offset: 0x77943, size: 0x8, addend: 0x0, symName: __ZNSt3__122__compressed_pair_elemINS_9allocatorINS_11__tree_nodeINS_12__value_typeINS_12basic_stringIcNS_11char_traitsIcEENS1_IcEEEES8_EEPvEEEELi1ELb1EE5__getB7v160006Ev, symObjAddr: 0x12A2C, symBinAddr: 0x100015264, symSize: 0x14 }
  - { offsetInCU: 0x77969, offset: 0x77969, size: 0x8, addend: 0x0, symName: __ZNSt3__14pairIKNS_12basic_stringIcNS_11char_traitsIcEENS_9allocatorIcEEEES6_ED1Ev, symObjAddr: 0x12A40, symBinAddr: 0x100015278, symSize: 0x2C }
  - { offsetInCU: 0x77995, offset: 0x77995, size: 0x8, addend: 0x0, symName: __ZNSt3__14pairIKNS_12basic_stringIcNS_11char_traitsIcEENS_9allocatorIcEEEES6_ED2Ev, symObjAddr: 0x12A6C, symBinAddr: 0x1000152A4, symSize: 0x38 }
  - { offsetInCU: 0x779C1, offset: 0x779C1, size: 0x8, addend: 0x0, symName: __ZNSt3__112__value_typeINS_12basic_stringIcNS_11char_traitsIcEENS_9allocatorIcEEEES6_E11__get_valueB7v160006Ev, symObjAddr: 0x12AA4, symBinAddr: 0x1000152DC, symSize: 0x24 }
  - { offsetInCU: 0x779E7, offset: 0x779E7, size: 0x8, addend: 0x0, symName: __ZNSt3__19allocatorINS_11__tree_nodeINS_12__value_typeINS_12basic_stringIcNS_11char_traitsIcEENS0_IcEEEES7_EEPvEEE10deallocateB7v160006EPSA_m, symObjAddr: 0x12B00, symBinAddr: 0x100015338, symSize: 0x44 }
  - { offsetInCU: 0x77A29, offset: 0x77A29, size: 0x8, addend: 0x0, symName: __ZNKSt3__16__treeINS_12__value_typeINS_12basic_stringIcNS_11char_traitsIcEENS_9allocatorIcEEEES7_EENS_19__map_value_compareIS7_S8_NS_4lessIS7_EELb1EEENS5_IS8_EEE10__end_nodeB7v160006Ev, symObjAddr: 0x12C4C, symBinAddr: 0x100015484, symSize: 0x2C }
  - { offsetInCU: 0x77A4F, offset: 0x77A4F, size: 0x8, addend: 0x0, symName: __ZNKSt3__117__compressed_pairINS_15__tree_end_nodeIPNS_16__tree_node_baseIPvEEEENS_9allocatorINS_11__tree_nodeINS_12__value_typeINS_12basic_stringIcNS_11char_traitsIcEENS7_IcEEEESE_EES3_EEEEE5firstB7v160006Ev, symObjAddr: 0x12C78, symBinAddr: 0x1000154B0, symSize: 0x24 }
  - { offsetInCU: 0x77A75, offset: 0x77A75, size: 0x8, addend: 0x0, symName: __ZNKSt3__122__compressed_pair_elemINS_15__tree_end_nodeIPNS_16__tree_node_baseIPvEEEELi0ELb0EE5__getB7v160006Ev, symObjAddr: 0x12C9C, symBinAddr: 0x1000154D4, symSize: 0x14 }
  - { offsetInCU: 0x77A9B, offset: 0x77A9B, size: 0x8, addend: 0x0, symName: __ZNSt3__117__compressed_pairImNS_19__map_value_compareINS_12basic_stringIcNS_11char_traitsIcEENS_9allocatorIcEEEENS_12__value_typeIS7_S7_EENS_4lessIS7_EELb1EEEE5firstB7v160006Ev, symObjAddr: 0x12CB0, symBinAddr: 0x1000154E8, symSize: 0x24 }
  - { offsetInCU: 0x77AC1, offset: 0x77AC1, size: 0x8, addend: 0x0, symName: __ZNSt3__122__compressed_pair_elemImLi0ELb0EE5__getB7v160006Ev, symObjAddr: 0x12CD4, symBinAddr: 0x10001550C, symSize: 0x14 }
  - { offsetInCU: 0x77AE7, offset: 0x77AE7, size: 0x8, addend: 0x0, symName: __ZNSt3__112basic_stringIcNS_11char_traitsIcEENS_9allocatorIcEEE5clearB7v160006Ev, symObjAddr: 0x12CE8, symBinAddr: 0x100015520, symSize: 0x88 }
  - { offsetInCU: 0x77B0F, offset: 0x77B0F, size: 0x8, addend: 0x0, symName: __ZNKSt3__19basic_iosIcNS_11char_traitsIcEEE5rdbufB7v160006Ev, symObjAddr: 0x12D70, symBinAddr: 0x1000155A8, symSize: 0x24 }
  - { offsetInCU: 0x77B50, offset: 0x77B50, size: 0x8, addend: 0x0, symName: __ZNKSt3__113basic_istreamIcNS_11char_traitsIcEEE6sentrycvbB7v160006Ev, symObjAddr: 0x12D94, symBinAddr: 0x1000155CC, symSize: 0x1C }
  - { offsetInCU: 0x77B76, offset: 0x77B76, size: 0x8, addend: 0x0, symName: __ZNSt3__115basic_streambufIcNS_11char_traitsIcEEE6sbumpcB7v160006Ev, symObjAddr: 0x12DB0, symBinAddr: 0x1000155E8, symSize: 0x78 }
  - { offsetInCU: 0x77B9C, offset: 0x77B9C, size: 0x8, addend: 0x0, symName: __ZNSt3__115basic_streambufIcNS_11char_traitsIcEEE5sgetcB7v160006Ev, symObjAddr: 0x12E28, symBinAddr: 0x100015660, symSize: 0x70 }
  - { offsetInCU: 0x77BC2, offset: 0x77BC2, size: 0x8, addend: 0x0, symName: __ZNKSt3__112basic_stringIcNS_11char_traitsIcEENS_9allocatorIcEEE9__is_longB7v160006Ev, symObjAddr: 0x12EA8, symBinAddr: 0x1000156E0, symSize: 0x38 }
  - { offsetInCU: 0x77BE8, offset: 0x77BE8, size: 0x8, addend: 0x0, symName: __ZNSt3__112basic_stringIcNS_11char_traitsIcEENS_9allocatorIcEEE18__get_long_pointerB7v160006Ev, symObjAddr: 0x12EE0, symBinAddr: 0x100015718, symSize: 0x28 }
  - { offsetInCU: 0x77C0E, offset: 0x77C0E, size: 0x8, addend: 0x0, symName: __ZNKSt3__117__compressed_pairINS_12basic_stringIcNS_11char_traitsIcEENS_9allocatorIcEEE5__repES5_E5firstB7v160006Ev, symObjAddr: 0x12F08, symBinAddr: 0x100015740, symSize: 0x24 }
  - { offsetInCU: 0x77C34, offset: 0x77C34, size: 0x8, addend: 0x0, symName: __ZNKSt3__122__compressed_pair_elemINS_12basic_stringIcNS_11char_traitsIcEENS_9allocatorIcEEE5__repELi0ELb0EE5__getB7v160006Ev, symObjAddr: 0x12F2C, symBinAddr: 0x100015764, symSize: 0x14 }
  - { offsetInCU: 0x77C5A, offset: 0x77C5A, size: 0x8, addend: 0x0, symName: __ZNKSt3__18ios_base5rdbufB7v160006Ev, symObjAddr: 0x12F40, symBinAddr: 0x100015778, symSize: 0x18 }
  - { offsetInCU: 0x77C80, offset: 0x77C80, size: 0x8, addend: 0x0, symName: __ZNSt3__111char_traitsIcE11to_int_typeEc, symObjAddr: 0x12F58, symBinAddr: 0x100015790, symSize: 0x14 }
  - { offsetInCU: 0x77CA3, offset: 0x77CA3, size: 0x8, addend: 0x0, symName: __ZNSt3__14pairINS_12basic_stringIcNS_11char_traitsIcEENS_9allocatorIcEEEEiEC2B7v160006IRS6_iLPv0EEEOT_OT0_, symObjAddr: 0x12F6C, symBinAddr: 0x1000157A4, symSize: 0x44 }
  - { offsetInCU: 0x77D01, offset: 0x77D01, size: 0x8, addend: 0x0, symName: __ZNSt3__14pairINS_12basic_stringIcNS_11char_traitsIcEENS_9allocatorIcEEEEiED2Ev, symObjAddr: 0x12FB0, symBinAddr: 0x1000157E8, symSize: 0x2C }
  - { offsetInCU: 0x77D2D, offset: 0x77D2D, size: 0x8, addend: 0x0, symName: __ZNSt3__14pairINS_12basic_stringIcNS_11char_traitsIcEENS_9allocatorIcEEEES6_EC2B7v160006IRS6_S9_LPv0EEEOT_OT0_, symObjAddr: 0x12FDC, symBinAddr: 0x100015814, symSize: 0x70 }
  - { offsetInCU: 0x77D8B, offset: 0x77D8B, size: 0x8, addend: 0x0, symName: __ZNSt3__14pairINS_12basic_stringIcNS_11char_traitsIcEENS_9allocatorIcEEEES6_ED2Ev, symObjAddr: 0x1304C, symBinAddr: 0x100015884, symSize: 0x38 }
  - { offsetInCU: 0x77DB7, offset: 0x77DB7, size: 0x8, addend: 0x0, symName: __ZNSt3__118basic_stringstreamIcNS_11char_traitsIcEENS_9allocatorIcEEED2Ev, symObjAddr: 0x13084, symBinAddr: 0x1000158BC, symSize: 0x6C }
  - { offsetInCU: 0x77DF1, offset: 0x77DF1, size: 0x8, addend: 0x0, symName: __ZThn16_NSt3__118basic_stringstreamIcNS_11char_traitsIcEENS_9allocatorIcEEED1Ev, symObjAddr: 0x130F0, symBinAddr: 0x100015928, symSize: 0x1C }
  - { offsetInCU: 0x77E08, offset: 0x77E08, size: 0x8, addend: 0x0, symName: __ZTv0_n24_NSt3__118basic_stringstreamIcNS_11char_traitsIcEENS_9allocatorIcEEED1Ev, symObjAddr: 0x1310C, symBinAddr: 0x100015944, symSize: 0x28 }
  - { offsetInCU: 0x77E1F, offset: 0x77E1F, size: 0x8, addend: 0x0, symName: __ZN7tinyobj10material_tD2Ev, symObjAddr: 0x13134, symBinAddr: 0x10001596C, symSize: 0x170 }
  - { offsetInCU: 0x77E4B, offset: 0x77E4B, size: 0x8, addend: 0x0, symName: __ZNSt3__13mapINS_12basic_stringIcNS_11char_traitsIcEENS_9allocatorIcEEEES6_NS_4lessIS6_EENS4_INS_4pairIKS6_S6_EEEEED1B7v160006Ev, symObjAddr: 0x132A4, symBinAddr: 0x100015ADC, symSize: 0x2C }
  - { offsetInCU: 0x77E75, offset: 0x77E75, size: 0x8, addend: 0x0, symName: __ZN7tinyobj16texture_option_tD1Ev, symObjAddr: 0x132D0, symBinAddr: 0x100015B08, symSize: 0x2C }
  - { offsetInCU: 0x77EA1, offset: 0x77EA1, size: 0x8, addend: 0x0, symName: __ZNSt3__13mapINS_12basic_stringIcNS_11char_traitsIcEENS_9allocatorIcEEEES6_NS_4lessIS6_EENS4_INS_4pairIKS6_S6_EEEEED2B7v160006Ev, symObjAddr: 0x132FC, symBinAddr: 0x100015B34, symSize: 0x2C }
  - { offsetInCU: 0x77ECB, offset: 0x77ECB, size: 0x8, addend: 0x0, symName: __ZNSt3__16__treeINS_12__value_typeINS_12basic_stringIcNS_11char_traitsIcEENS_9allocatorIcEEEES7_EENS_19__map_value_compareIS7_S8_NS_4lessIS7_EELb1EEENS5_IS8_EEED1Ev, symObjAddr: 0x13328, symBinAddr: 0x100015B60, symSize: 0x2C }
  - { offsetInCU: 0x77EF7, offset: 0x77EF7, size: 0x8, addend: 0x0, symName: __ZNSt3__16__treeINS_12__value_typeINS_12basic_stringIcNS_11char_traitsIcEENS_9allocatorIcEEEES7_EENS_19__map_value_compareIS7_S8_NS_4lessIS7_EELb1EEENS5_IS8_EEED2Ev, symObjAddr: 0x13354, symBinAddr: 0x100015B8C, symSize: 0x38 }
  - { offsetInCU: 0x77F23, offset: 0x77F23, size: 0x8, addend: 0x0, symName: __ZN7tinyobj16texture_option_tD2Ev, symObjAddr: 0x1338C, symBinAddr: 0x100015BC4, symSize: 0x30 }
  - { offsetInCU: 0x77F4F, offset: 0x77F4F, size: 0x8, addend: 0x0, symName: __ZNKSt3__112basic_stringIcNS_11char_traitsIcEENS_9allocatorIcEEE6rbeginB7v160006Ev, symObjAddr: 0x133BC, symBinAddr: 0x100015BF4, symSize: 0x44 }
  - { offsetInCU: 0x77F75, offset: 0x77F75, size: 0x8, addend: 0x0, symName: __ZNKSt3__116reverse_iteratorINS_11__wrap_iterIPKcEEEdeB7v160006Ev, symObjAddr: 0x13400, symBinAddr: 0x100015C38, symSize: 0x34 }
  - { offsetInCU: 0x77FA9, offset: 0x77FA9, size: 0x8, addend: 0x0, symName: __ZNKSt3__112basic_stringIcNS_11char_traitsIcEENS_9allocatorIcEEE3endB7v160006Ev, symObjAddr: 0x135EC, symBinAddr: 0x100015E24, symSize: 0x64 }
  - { offsetInCU: 0x77FCF, offset: 0x77FCF, size: 0x8, addend: 0x0, symName: __ZNSt3__116reverse_iteratorINS_11__wrap_iterIPKcEEEC1B7v160006ES4_, symObjAddr: 0x13650, symBinAddr: 0x100015E88, symSize: 0x34 }
  - { offsetInCU: 0x78007, offset: 0x78007, size: 0x8, addend: 0x0, symName: __ZNKSt3__112basic_stringIcNS_11char_traitsIcEENS_9allocatorIcEEE21__make_const_iteratorB7v160006EPKc, symObjAddr: 0x13684, symBinAddr: 0x100015EBC, symSize: 0x34 }
  - { offsetInCU: 0x7803C, offset: 0x7803C, size: 0x8, addend: 0x0, symName: __ZNKSt3__112basic_stringIcNS_11char_traitsIcEENS_9allocatorIcEEE13__get_pointerB7v160006Ev, symObjAddr: 0x136B8, symBinAddr: 0x100015EF0, symSize: 0x54 }
  - { offsetInCU: 0x78062, offset: 0x78062, size: 0x8, addend: 0x0, symName: __ZNSt3__111__wrap_iterIPKcEC1B7v160006EPKvS2_, symObjAddr: 0x1370C, symBinAddr: 0x100015F44, symSize: 0x3C }
  - { offsetInCU: 0x780A8, offset: 0x780A8, size: 0x8, addend: 0x0, symName: __ZNSt3__111__wrap_iterIPKcEC2B7v160006EPKvS2_, symObjAddr: 0x13748, symBinAddr: 0x100015F80, symSize: 0x24 }
  - { offsetInCU: 0x780EE, offset: 0x780EE, size: 0x8, addend: 0x0, symName: __ZNKSt3__112basic_stringIcNS_11char_traitsIcEENS_9allocatorIcEEE18__get_long_pointerB7v160006Ev, symObjAddr: 0x1376C, symBinAddr: 0x100015FA4, symSize: 0x28 }
  - { offsetInCU: 0x78114, offset: 0x78114, size: 0x8, addend: 0x0, symName: __ZNKSt3__112basic_stringIcNS_11char_traitsIcEENS_9allocatorIcEEE19__get_short_pointerB7v160006Ev, symObjAddr: 0x13794, symBinAddr: 0x100015FCC, symSize: 0x28 }
  - { offsetInCU: 0x7813A, offset: 0x7813A, size: 0x8, addend: 0x0, symName: __ZNSt3__114pointer_traitsIPKcE10pointer_toB7v160006ERS1_, symObjAddr: 0x137BC, symBinAddr: 0x100015FF4, symSize: 0x14 }
  - { offsetInCU: 0x7815D, offset: 0x7815D, size: 0x8, addend: 0x0, symName: __ZNSt3__116reverse_iteratorINS_11__wrap_iterIPKcEEEC2B7v160006ES4_, symObjAddr: 0x137D0, symBinAddr: 0x100016008, symSize: 0x28 }
  - { offsetInCU: 0x78195, offset: 0x78195, size: 0x8, addend: 0x0, symName: __ZNSt3__111__wrap_iterIPKcEmmB7v160006Ev, symObjAddr: 0x137F8, symBinAddr: 0x100016030, symSize: 0x20 }
  - { offsetInCU: 0x781BB, offset: 0x781BB, size: 0x8, addend: 0x0, symName: __ZNKSt3__111__wrap_iterIPKcEdeB7v160006Ev, symObjAddr: 0x13818, symBinAddr: 0x100016050, symSize: 0x18 }
  - { offsetInCU: 0x781E1, offset: 0x781E1, size: 0x8, addend: 0x0, symName: __ZNSt3__112basic_stringIcNS_11char_traitsIcEENS_9allocatorIcEEE6appendB7v160006ERKS5_, symObjAddr: 0x13830, symBinAddr: 0x100016068, symSize: 0x4C }
  - { offsetInCU: 0x78216, offset: 0x78216, size: 0x8, addend: 0x0, symName: __ZNSt3__112basic_stringIcNS_11char_traitsIcEENS_9allocatorIcEEEC1B7v160006EOS5_, symObjAddr: 0x1387C, symBinAddr: 0x1000160B4, symSize: 0x34 }
  - { offsetInCU: 0x7824F, offset: 0x7824F, size: 0x8, addend: 0x0, symName: __ZNKSt3__112basic_stringIcNS_11char_traitsIcEENS_9allocatorIcEEE4dataB7v160006Ev, symObjAddr: 0x138B0, symBinAddr: 0x1000160E8, symSize: 0x28 }
  - { offsetInCU: 0x78275, offset: 0x78275, size: 0x8, addend: 0x0, symName: __ZNSt3__112basic_stringIcNS_11char_traitsIcEENS_9allocatorIcEEEC2B7v160006EOS5_, symObjAddr: 0x138EC, symBinAddr: 0x100016124, symSize: 0x84 }
  - { offsetInCU: 0x782AE, offset: 0x782AE, size: 0x8, addend: 0x0, symName: __ZNSt3__112basic_stringIcNS_11char_traitsIcEENS_9allocatorIcEEE14__default_initB7v160006Ev, symObjAddr: 0x13970, symBinAddr: 0x1000161A8, symSize: 0x40 }
  - { offsetInCU: 0x782D4, offset: 0x782D4, size: 0x8, addend: 0x0, symName: __ZNSt3__112basic_stringIcNS_11char_traitsIcEENS_9allocatorIcEEE6insertB7v160006EmRKS5_, symObjAddr: 0x139C4, symBinAddr: 0x1000161FC, symSize: 0x5C }
  - { offsetInCU: 0x78318, offset: 0x78318, size: 0x8, addend: 0x0, symName: __ZNSt3__116allocator_traitsINS_9allocatorIcEEE37select_on_container_copy_constructionB7v160006IS2_vvEES2_RKS2_, symObjAddr: 0x13A20, symBinAddr: 0x100016258, symSize: 0x10 }
  - { offsetInCU: 0x78347, offset: 0x78347, size: 0x8, addend: 0x0, symName: __ZNKSt3__112basic_stringIcNS_11char_traitsIcEENS_9allocatorIcEEE13get_allocatorB7v160006Ev, symObjAddr: 0x13A30, symBinAddr: 0x100016268, symSize: 0x24 }
  - { offsetInCU: 0x7836D, offset: 0x7836D, size: 0x8, addend: 0x0, symName: __ZNSt3__112basic_stringIcNS_11char_traitsIcEENS_9allocatorIcEEEC1B7v160006ENS_24__uninitialized_size_tagEmRKS4_, symObjAddr: 0x13A54, symBinAddr: 0x10001628C, symSize: 0x3C }
  - { offsetInCU: 0x783C1, offset: 0x783C1, size: 0x8, addend: 0x0, symName: __ZNSt3__112basic_stringIcNS_11char_traitsIcEENS_9allocatorIcEEE13__get_pointerB7v160006Ev, symObjAddr: 0x13AA4, symBinAddr: 0x1000162DC, symSize: 0x54 }
  - { offsetInCU: 0x783E7, offset: 0x783E7, size: 0x8, addend: 0x0, symName: __ZNSt3__111char_traitsIcE4copyEPcPKcm, symObjAddr: 0x13AF8, symBinAddr: 0x100016330, symSize: 0x5C }
  - { offsetInCU: 0x78426, offset: 0x78426, size: 0x8, addend: 0x0, symName: __ZNSt3__111char_traitsIcE6assignEPcmc, symObjAddr: 0x13B54, symBinAddr: 0x10001638C, symSize: 0x44 }
  - { offsetInCU: 0x78465, offset: 0x78465, size: 0x8, addend: 0x0, symName: __ZNSt3__112basic_stringIcNS_11char_traitsIcEENS_9allocatorIcEEEC2B7v160006ENS_24__uninitialized_size_tagEmRKS4_, symObjAddr: 0x13B98, symBinAddr: 0x1000163D0, symSize: 0x118 }
  - { offsetInCU: 0x784E5, offset: 0x784E5, size: 0x8, addend: 0x0, symName: __ZNSt3__117__compressed_pairINS_12basic_stringIcNS_11char_traitsIcEENS_9allocatorIcEEE5__repES5_EC1B7v160006INS_18__default_init_tagERKS5_EEOT_OT0_, symObjAddr: 0x13CB0, symBinAddr: 0x1000164E8, symSize: 0x3C }
  - { offsetInCU: 0x7853D, offset: 0x7853D, size: 0x8, addend: 0x0, symName: __ZNSt3__116allocator_traitsINS_9allocatorIcEEE8allocateB7v160006ERS2_m, symObjAddr: 0x13CEC, symBinAddr: 0x100016524, symSize: 0x2C }
  - { offsetInCU: 0x78570, offset: 0x78570, size: 0x8, addend: 0x0, symName: __ZNSt3__117__compressed_pairINS_12basic_stringIcNS_11char_traitsIcEENS_9allocatorIcEEE5__repES5_EC2B7v160006INS_18__default_init_tagERKS5_EEOT_OT0_, symObjAddr: 0x13D18, symBinAddr: 0x100016550, symSize: 0x40 }
  - { offsetInCU: 0x785C8, offset: 0x785C8, size: 0x8, addend: 0x0, symName: __ZNSt3__122__compressed_pair_elemINS_9allocatorIcEELi1ELb1EEC2B7v160006IRKS2_vEEOT_, symObjAddr: 0x13D58, symBinAddr: 0x100016590, symSize: 0x18 }
  - { offsetInCU: 0x7862E, offset: 0x7862E, size: 0x8, addend: 0x0, symName: __ZNKSt3__114__copy_trivialclB7v160006IKccLi0EEENS_4pairIPT_PT0_EES5_S5_S7_, symObjAddr: 0x13F90, symBinAddr: 0x1000167C8, symSize: 0x48 }
  - { offsetInCU: 0x786B6, offset: 0x786B6, size: 0x8, addend: 0x0, symName: __ZNSt3__14pairIPKcS2_EC1B7v160006IS2_S2_LPv0EEEOT_OT0_, symObjAddr: 0x140F8, symBinAddr: 0x100016930, symSize: 0x3C }
  - { offsetInCU: 0x78714, offset: 0x78714, size: 0x8, addend: 0x0, symName: __ZNSt3__14pairIPKcS2_EC2B7v160006IS2_S2_LPv0EEEOT_OT0_, symObjAddr: 0x14134, symBinAddr: 0x10001696C, symSize: 0x34 }
  - { offsetInCU: 0x78772, offset: 0x78772, size: 0x8, addend: 0x0, symName: __ZNSt3__118__unwrap_iter_implIPKcLb1EE8__unwrapB7v160006ES2_, symObjAddr: 0x14168, symBinAddr: 0x1000169A0, symSize: 0x24 }
  - { offsetInCU: 0x7879B, offset: 0x7879B, size: 0x8, addend: 0x0, symName: __ZNSt3__14pairIPKcPcEC1B7v160006IRS2_S3_LPv0EEEOT_OT0_, symObjAddr: 0x14240, symBinAddr: 0x100016A78, symSize: 0x3C }
  - { offsetInCU: 0x787F9, offset: 0x787F9, size: 0x8, addend: 0x0, symName: __ZNSt3__14pairIPKcPcEC2B7v160006IRS2_S3_LPv0EEEOT_OT0_, symObjAddr: 0x1427C, symBinAddr: 0x100016AB4, symSize: 0x34 }
  - { offsetInCU: 0x78857, offset: 0x78857, size: 0x8, addend: 0x0, symName: __ZNSt3__118__unwrap_iter_implIPcLb1EE8__unwrapB7v160006ES1_, symObjAddr: 0x142B0, symBinAddr: 0x100016AE8, symSize: 0x24 }
  - { offsetInCU: 0x7887A, offset: 0x7887A, size: 0x8, addend: 0x0, symName: __ZNSt3__14pairIPKcPcEC1B7v160006IS2_S3_LPv0EEEOT_OT0_, symObjAddr: 0x142D4, symBinAddr: 0x100016B0C, symSize: 0x3C }
  - { offsetInCU: 0x788D8, offset: 0x788D8, size: 0x8, addend: 0x0, symName: __ZNSt3__14pairIPKcPcEC2B7v160006IS2_S3_LPv0EEEOT_OT0_, symObjAddr: 0x14310, symBinAddr: 0x100016B48, symSize: 0x34 }
  - { offsetInCU: 0x78936, offset: 0x78936, size: 0x8, addend: 0x0, symName: __ZNSt3__118__unwrap_iter_implIPKcLb1EE8__rewrapB7v160006ES2_S2_, symObjAddr: 0x14380, symBinAddr: 0x100016BB8, symSize: 0x48 }
  - { offsetInCU: 0x78967, offset: 0x78967, size: 0x8, addend: 0x0, symName: __ZNSt3__118__unwrap_iter_implIPcLb1EE8__rewrapB7v160006ES1_S1_, symObjAddr: 0x143C8, symBinAddr: 0x100016C00, symSize: 0x48 }
  - { offsetInCU: 0x78998, offset: 0x78998, size: 0x8, addend: 0x0, symName: __ZNSt3__119basic_istringstreamIcNS_11char_traitsIcEENS_9allocatorIcEEED2Ev, symObjAddr: 0x144CC, symBinAddr: 0x100016D04, symSize: 0x64 }
  - { offsetInCU: 0x789D2, offset: 0x789D2, size: 0x8, addend: 0x0, symName: __ZTv0_n24_NSt3__119basic_istringstreamIcNS_11char_traitsIcEENS_9allocatorIcEEED1Ev, symObjAddr: 0x14530, symBinAddr: 0x100016D68, symSize: 0x28 }
  - { offsetInCU: 0x789E9, offset: 0x789E9, size: 0x8, addend: 0x0, symName: __ZN7tinyobj18MaterialFileReaderC2ERKNSt3__112basic_stringIcNS1_11char_traitsIcEENS1_9allocatorIcEEEE, symObjAddr: 0x14558, symBinAddr: 0x100016D90, symSize: 0x80 }
  - { offsetInCU: 0x78A22, offset: 0x78A22, size: 0x8, addend: 0x0, symName: __ZN7tinyobj14MaterialReaderC2Ev, symObjAddr: 0x145D8, symBinAddr: 0x100016E10, symSize: 0x24 }
  - { offsetInCU: 0x78A4C, offset: 0x78A4C, size: 0x8, addend: 0x0, symName: __ZN7tinyobj18MaterialFileReaderD2Ev, symObjAddr: 0x145FC, symBinAddr: 0x100016E34, symSize: 0x48 }
  - { offsetInCU: 0x78A76, offset: 0x78A76, size: 0x8, addend: 0x0, symName: __ZN7tinyobj9PrimGroupC2Ev, symObjAddr: 0x14644, symBinAddr: 0x100016E7C, symSize: 0x44 }
  - { offsetInCU: 0x78AA3, offset: 0x78AA3, size: 0x8, addend: 0x0, symName: __ZNSt3__16vectorIN7tinyobj6face_tENS_9allocatorIS2_EEEC1B7v160006Ev, symObjAddr: 0x14688, symBinAddr: 0x100016EC0, symSize: 0x2C }
  - { offsetInCU: 0x78ACD, offset: 0x78ACD, size: 0x8, addend: 0x0, symName: __ZNSt3__16vectorIN7tinyobj8__line_tENS_9allocatorIS2_EEEC1B7v160006Ev, symObjAddr: 0x146B4, symBinAddr: 0x100016EEC, symSize: 0x2C }
  - { offsetInCU: 0x78AF7, offset: 0x78AF7, size: 0x8, addend: 0x0, symName: __ZNSt3__16vectorIN7tinyobj10__points_tENS_9allocatorIS2_EEEC1B7v160006Ev, symObjAddr: 0x146E0, symBinAddr: 0x100016F18, symSize: 0x2C }
  - { offsetInCU: 0x78B21, offset: 0x78B21, size: 0x8, addend: 0x0, symName: __ZNSt3__16vectorIN7tinyobj6face_tENS_9allocatorIS2_EEEC2B7v160006Ev, symObjAddr: 0x1470C, symBinAddr: 0x100016F44, symSize: 0x58 }
  - { offsetInCU: 0x78B51, offset: 0x78B51, size: 0x8, addend: 0x0, symName: __ZNSt3__117__compressed_pairIPN7tinyobj6face_tENS_9allocatorIS2_EEEC1B7v160006IDnNS_18__default_init_tagEEEOT_OT0_, symObjAddr: 0x14764, symBinAddr: 0x100016F9C, symSize: 0x3C }
  - { offsetInCU: 0x78BA9, offset: 0x78BA9, size: 0x8, addend: 0x0, symName: __ZNSt3__117__compressed_pairIPN7tinyobj6face_tENS_9allocatorIS2_EEEC2B7v160006IDnNS_18__default_init_tagEEEOT_OT0_, symObjAddr: 0x147B0, symBinAddr: 0x100016FE8, symSize: 0x40 }
  - { offsetInCU: 0x78C01, offset: 0x78C01, size: 0x8, addend: 0x0, symName: __ZNSt3__122__compressed_pair_elemIPN7tinyobj6face_tELi0ELb0EEC2B7v160006IDnvEEOT_, symObjAddr: 0x147F0, symBinAddr: 0x100017028, symSize: 0x1C }
  - { offsetInCU: 0x78C43, offset: 0x78C43, size: 0x8, addend: 0x0, symName: __ZNSt3__122__compressed_pair_elemINS_9allocatorIN7tinyobj6face_tEEELi1ELb1EEC2B7v160006ENS_18__default_init_tagE, symObjAddr: 0x1480C, symBinAddr: 0x100017044, symSize: 0x2C }
  - { offsetInCU: 0x78C78, offset: 0x78C78, size: 0x8, addend: 0x0, symName: __ZNSt3__19allocatorIN7tinyobj6face_tEEC2B7v160006Ev, symObjAddr: 0x14838, symBinAddr: 0x100017070, symSize: 0x2C }
  - { offsetInCU: 0x78CA2, offset: 0x78CA2, size: 0x8, addend: 0x0, symName: __ZNSt3__116__non_trivial_ifILb1ENS_9allocatorIN7tinyobj6face_tEEEEC2B7v160006Ev, symObjAddr: 0x14864, symBinAddr: 0x10001709C, symSize: 0x14 }
  - { offsetInCU: 0x78CCC, offset: 0x78CCC, size: 0x8, addend: 0x0, symName: __ZNSt3__16vectorIN7tinyobj8__line_tENS_9allocatorIS2_EEEC2B7v160006Ev, symObjAddr: 0x14878, symBinAddr: 0x1000170B0, symSize: 0x58 }
  - { offsetInCU: 0x78CF6, offset: 0x78CF6, size: 0x8, addend: 0x0, symName: __ZNSt3__117__compressed_pairIPN7tinyobj8__line_tENS_9allocatorIS2_EEEC1B7v160006IDnNS_18__default_init_tagEEEOT_OT0_, symObjAddr: 0x148D0, symBinAddr: 0x100017108, symSize: 0x3C }
  - { offsetInCU: 0x78D4E, offset: 0x78D4E, size: 0x8, addend: 0x0, symName: __ZNSt3__117__compressed_pairIPN7tinyobj8__line_tENS_9allocatorIS2_EEEC2B7v160006IDnNS_18__default_init_tagEEEOT_OT0_, symObjAddr: 0x1491C, symBinAddr: 0x100017154, symSize: 0x40 }
  - { offsetInCU: 0x78DA6, offset: 0x78DA6, size: 0x8, addend: 0x0, symName: __ZNSt3__122__compressed_pair_elemIPN7tinyobj8__line_tELi0ELb0EEC2B7v160006IDnvEEOT_, symObjAddr: 0x1495C, symBinAddr: 0x100017194, symSize: 0x1C }
  - { offsetInCU: 0x78DE8, offset: 0x78DE8, size: 0x8, addend: 0x0, symName: __ZNSt3__122__compressed_pair_elemINS_9allocatorIN7tinyobj8__line_tEEELi1ELb1EEC2B7v160006ENS_18__default_init_tagE, symObjAddr: 0x14978, symBinAddr: 0x1000171B0, symSize: 0x2C }
  - { offsetInCU: 0x78E1D, offset: 0x78E1D, size: 0x8, addend: 0x0, symName: __ZNSt3__19allocatorIN7tinyobj8__line_tEEC2B7v160006Ev, symObjAddr: 0x149A4, symBinAddr: 0x1000171DC, symSize: 0x2C }
  - { offsetInCU: 0x78E47, offset: 0x78E47, size: 0x8, addend: 0x0, symName: __ZNSt3__116__non_trivial_ifILb1ENS_9allocatorIN7tinyobj8__line_tEEEEC2B7v160006Ev, symObjAddr: 0x149D0, symBinAddr: 0x100017208, symSize: 0x14 }
  - { offsetInCU: 0x78E71, offset: 0x78E71, size: 0x8, addend: 0x0, symName: __ZNSt3__16vectorIN7tinyobj10__points_tENS_9allocatorIS2_EEEC2B7v160006Ev, symObjAddr: 0x149E4, symBinAddr: 0x10001721C, symSize: 0x58 }
  - { offsetInCU: 0x78E9B, offset: 0x78E9B, size: 0x8, addend: 0x0, symName: __ZNSt3__117__compressed_pairIPN7tinyobj10__points_tENS_9allocatorIS2_EEEC1B7v160006IDnNS_18__default_init_tagEEEOT_OT0_, symObjAddr: 0x14A3C, symBinAddr: 0x100017274, symSize: 0x3C }
  - { offsetInCU: 0x78EF3, offset: 0x78EF3, size: 0x8, addend: 0x0, symName: __ZNSt3__117__compressed_pairIPN7tinyobj10__points_tENS_9allocatorIS2_EEEC2B7v160006IDnNS_18__default_init_tagEEEOT_OT0_, symObjAddr: 0x14A88, symBinAddr: 0x1000172C0, symSize: 0x40 }
  - { offsetInCU: 0x78F4B, offset: 0x78F4B, size: 0x8, addend: 0x0, symName: __ZNSt3__122__compressed_pair_elemIPN7tinyobj10__points_tELi0ELb0EEC2B7v160006IDnvEEOT_, symObjAddr: 0x14AC8, symBinAddr: 0x100017300, symSize: 0x1C }
  - { offsetInCU: 0x78F8D, offset: 0x78F8D, size: 0x8, addend: 0x0, symName: __ZNSt3__122__compressed_pair_elemINS_9allocatorIN7tinyobj10__points_tEEELi1ELb1EEC2B7v160006ENS_18__default_init_tagE, symObjAddr: 0x14AE4, symBinAddr: 0x10001731C, symSize: 0x2C }
  - { offsetInCU: 0x78FC2, offset: 0x78FC2, size: 0x8, addend: 0x0, symName: __ZNSt3__19allocatorIN7tinyobj10__points_tEEC2B7v160006Ev, symObjAddr: 0x14B10, symBinAddr: 0x100017348, symSize: 0x2C }
  - { offsetInCU: 0x78FEC, offset: 0x78FEC, size: 0x8, addend: 0x0, symName: __ZNSt3__116__non_trivial_ifILb1ENS_9allocatorIN7tinyobj10__points_tEEEEC2B7v160006Ev, symObjAddr: 0x14B3C, symBinAddr: 0x100017374, symSize: 0x14 }
  - { offsetInCU: 0x79016, offset: 0x79016, size: 0x8, addend: 0x0, symName: __ZN7tinyobj7shape_tC2Ev, symObjAddr: 0x14B50, symBinAddr: 0x100017388, symSize: 0x50 }
  - { offsetInCU: 0x79048, offset: 0x79048, size: 0x8, addend: 0x0, symName: __ZN7tinyobj6mesh_tC1Ev, symObjAddr: 0x14BA0, symBinAddr: 0x1000173D8, symSize: 0x2C }
  - { offsetInCU: 0x7907A, offset: 0x7907A, size: 0x8, addend: 0x0, symName: __ZN7tinyobj7lines_tC1Ev, symObjAddr: 0x14BCC, symBinAddr: 0x100017404, symSize: 0x2C }
  - { offsetInCU: 0x790AC, offset: 0x790AC, size: 0x8, addend: 0x0, symName: __ZN7tinyobj8points_tC1Ev, symObjAddr: 0x14BF8, symBinAddr: 0x100017430, symSize: 0x2C }
  - { offsetInCU: 0x790D9, offset: 0x790D9, size: 0x8, addend: 0x0, symName: __ZN7tinyobj6mesh_tC2Ev, symObjAddr: 0x14C24, symBinAddr: 0x10001745C, symSize: 0x5C }
  - { offsetInCU: 0x79106, offset: 0x79106, size: 0x8, addend: 0x0, symName: __ZNSt3__16vectorIjNS_9allocatorIjEEEC1B7v160006Ev, symObjAddr: 0x14C80, symBinAddr: 0x1000174B8, symSize: 0x2C }
  - { offsetInCU: 0x79130, offset: 0x79130, size: 0x8, addend: 0x0, symName: __ZNSt3__16vectorIiNS_9allocatorIiEEEC1B7v160006Ev, symObjAddr: 0x14CAC, symBinAddr: 0x1000174E4, symSize: 0x2C }
  - { offsetInCU: 0x7915A, offset: 0x7915A, size: 0x8, addend: 0x0, symName: __ZNSt3__16vectorIjNS_9allocatorIjEEEC2B7v160006Ev, symObjAddr: 0x14CD8, symBinAddr: 0x100017510, symSize: 0x58 }
  - { offsetInCU: 0x79184, offset: 0x79184, size: 0x8, addend: 0x0, symName: __ZNSt3__117__compressed_pairIPjNS_9allocatorIjEEEC1B7v160006IDnNS_18__default_init_tagEEEOT_OT0_, symObjAddr: 0x14D30, symBinAddr: 0x100017568, symSize: 0x3C }
  - { offsetInCU: 0x791DC, offset: 0x791DC, size: 0x8, addend: 0x0, symName: __ZNSt3__117__compressed_pairIPjNS_9allocatorIjEEEC2B7v160006IDnNS_18__default_init_tagEEEOT_OT0_, symObjAddr: 0x14D7C, symBinAddr: 0x1000175B4, symSize: 0x40 }
  - { offsetInCU: 0x79234, offset: 0x79234, size: 0x8, addend: 0x0, symName: __ZNSt3__122__compressed_pair_elemIPjLi0ELb0EEC2B7v160006IDnvEEOT_, symObjAddr: 0x14DBC, symBinAddr: 0x1000175F4, symSize: 0x1C }
  - { offsetInCU: 0x79276, offset: 0x79276, size: 0x8, addend: 0x0, symName: __ZNSt3__122__compressed_pair_elemINS_9allocatorIjEELi1ELb1EEC2B7v160006ENS_18__default_init_tagE, symObjAddr: 0x14DD8, symBinAddr: 0x100017610, symSize: 0x2C }
  - { offsetInCU: 0x792AB, offset: 0x792AB, size: 0x8, addend: 0x0, symName: __ZNSt3__19allocatorIjEC2B7v160006Ev, symObjAddr: 0x14E04, symBinAddr: 0x10001763C, symSize: 0x2C }
  - { offsetInCU: 0x792D5, offset: 0x792D5, size: 0x8, addend: 0x0, symName: __ZNSt3__116__non_trivial_ifILb1ENS_9allocatorIjEEEC2B7v160006Ev, symObjAddr: 0x14E30, symBinAddr: 0x100017668, symSize: 0x14 }
  - { offsetInCU: 0x792FF, offset: 0x792FF, size: 0x8, addend: 0x0, symName: __ZNSt3__16vectorIiNS_9allocatorIiEEEC2B7v160006Ev, symObjAddr: 0x14E44, symBinAddr: 0x10001767C, symSize: 0x58 }
  - { offsetInCU: 0x79329, offset: 0x79329, size: 0x8, addend: 0x0, symName: __ZNSt3__117__compressed_pairIPiNS_9allocatorIiEEEC1B7v160006IDnNS_18__default_init_tagEEEOT_OT0_, symObjAddr: 0x14E9C, symBinAddr: 0x1000176D4, symSize: 0x3C }
  - { offsetInCU: 0x79381, offset: 0x79381, size: 0x8, addend: 0x0, symName: __ZNSt3__117__compressed_pairIPiNS_9allocatorIiEEEC2B7v160006IDnNS_18__default_init_tagEEEOT_OT0_, symObjAddr: 0x14EE8, symBinAddr: 0x100017720, symSize: 0x40 }
  - { offsetInCU: 0x793D9, offset: 0x793D9, size: 0x8, addend: 0x0, symName: __ZNSt3__122__compressed_pair_elemIPiLi0ELb0EEC2B7v160006IDnvEEOT_, symObjAddr: 0x14F28, symBinAddr: 0x100017760, symSize: 0x1C }
  - { offsetInCU: 0x7941B, offset: 0x7941B, size: 0x8, addend: 0x0, symName: __ZNSt3__122__compressed_pair_elemINS_9allocatorIiEELi1ELb1EEC2B7v160006ENS_18__default_init_tagE, symObjAddr: 0x14F44, symBinAddr: 0x10001777C, symSize: 0x2C }
  - { offsetInCU: 0x79450, offset: 0x79450, size: 0x8, addend: 0x0, symName: __ZNSt3__19allocatorIiEC2B7v160006Ev, symObjAddr: 0x14F70, symBinAddr: 0x1000177A8, symSize: 0x2C }
  - { offsetInCU: 0x7947A, offset: 0x7947A, size: 0x8, addend: 0x0, symName: __ZNSt3__116__non_trivial_ifILb1ENS_9allocatorIiEEEC2B7v160006Ev, symObjAddr: 0x14F9C, symBinAddr: 0x1000177D4, symSize: 0x14 }
  - { offsetInCU: 0x794A4, offset: 0x794A4, size: 0x8, addend: 0x0, symName: __ZN7tinyobj7lines_tC2Ev, symObjAddr: 0x14FB0, symBinAddr: 0x1000177E8, symSize: 0x38 }
  - { offsetInCU: 0x794D1, offset: 0x794D1, size: 0x8, addend: 0x0, symName: __ZN7tinyobj8points_tC2Ev, symObjAddr: 0x14FE8, symBinAddr: 0x100017820, symSize: 0x2C }
  - { offsetInCU: 0x794FE, offset: 0x794FE, size: 0x8, addend: 0x0, symName: __ZN7tinyobj13skin_weight_tC2Ev, symObjAddr: 0x150E0, symBinAddr: 0x100017918, symSize: 0x30 }
  - { offsetInCU: 0x7952B, offset: 0x7952B, size: 0x8, addend: 0x0, symName: __ZNSt3__16vectorIN7tinyobj18joint_and_weight_tENS_9allocatorIS2_EEEC1B7v160006Ev, symObjAddr: 0x15110, symBinAddr: 0x100017948, symSize: 0x2C }
  - { offsetInCU: 0x79555, offset: 0x79555, size: 0x8, addend: 0x0, symName: __ZNSt3__16vectorIN7tinyobj18joint_and_weight_tENS_9allocatorIS2_EEEC2B7v160006Ev, symObjAddr: 0x1513C, symBinAddr: 0x100017974, symSize: 0x58 }
  - { offsetInCU: 0x7957F, offset: 0x7957F, size: 0x8, addend: 0x0, symName: __ZNSt3__117__compressed_pairIPN7tinyobj18joint_and_weight_tENS_9allocatorIS2_EEEC1B7v160006IDnNS_18__default_init_tagEEEOT_OT0_, symObjAddr: 0x15194, symBinAddr: 0x1000179CC, symSize: 0x3C }
  - { offsetInCU: 0x795D7, offset: 0x795D7, size: 0x8, addend: 0x0, symName: __ZNSt3__117__compressed_pairIPN7tinyobj18joint_and_weight_tENS_9allocatorIS2_EEEC2B7v160006IDnNS_18__default_init_tagEEEOT_OT0_, symObjAddr: 0x151E0, symBinAddr: 0x100017A18, symSize: 0x40 }
  - { offsetInCU: 0x7962F, offset: 0x7962F, size: 0x8, addend: 0x0, symName: __ZNSt3__122__compressed_pair_elemIPN7tinyobj18joint_and_weight_tELi0ELb0EEC2B7v160006IDnvEEOT_, symObjAddr: 0x15220, symBinAddr: 0x100017A58, symSize: 0x1C }
  - { offsetInCU: 0x79671, offset: 0x79671, size: 0x8, addend: 0x0, symName: __ZNSt3__122__compressed_pair_elemINS_9allocatorIN7tinyobj18joint_and_weight_tEEELi1ELb1EEC2B7v160006ENS_18__default_init_tagE, symObjAddr: 0x1523C, symBinAddr: 0x100017A74, symSize: 0x2C }
  - { offsetInCU: 0x796A6, offset: 0x796A6, size: 0x8, addend: 0x0, symName: __ZNSt3__19allocatorIN7tinyobj18joint_and_weight_tEEC2B7v160006Ev, symObjAddr: 0x15268, symBinAddr: 0x100017AA0, symSize: 0x2C }
  - { offsetInCU: 0x796D0, offset: 0x796D0, size: 0x8, addend: 0x0, symName: __ZNSt3__116__non_trivial_ifILb1ENS_9allocatorIN7tinyobj18joint_and_weight_tEEEEC2B7v160006Ev, symObjAddr: 0x15294, symBinAddr: 0x100017ACC, symSize: 0x14 }
  - { offsetInCU: 0x796FA, offset: 0x796FA, size: 0x8, addend: 0x0, symName: __ZN7tinyobj13skin_weight_tD2Ev, symObjAddr: 0x152A8, symBinAddr: 0x100017AE0, symSize: 0x30 }
  - { offsetInCU: 0x79727, offset: 0x79727, size: 0x8, addend: 0x0, symName: __ZNSt3__16vectorIN7tinyobj18joint_and_weight_tENS_9allocatorIS2_EEED1B7v160006Ev, symObjAddr: 0x152D8, symBinAddr: 0x100017B10, symSize: 0x2C }
  - { offsetInCU: 0x79751, offset: 0x79751, size: 0x8, addend: 0x0, symName: __ZNSt3__16vectorIN7tinyobj18joint_and_weight_tENS_9allocatorIS2_EEED2B7v160006Ev, symObjAddr: 0x15304, symBinAddr: 0x100017B3C, symSize: 0x44 }
  - { offsetInCU: 0x7977B, offset: 0x7977B, size: 0x8, addend: 0x0, symName: __ZNSt3__16vectorIN7tinyobj18joint_and_weight_tENS_9allocatorIS2_EEE16__destroy_vectorC1ERS5_, symObjAddr: 0x15348, symBinAddr: 0x100017B80, symSize: 0x34 }
  - { offsetInCU: 0x797B4, offset: 0x797B4, size: 0x8, addend: 0x0, symName: __ZNSt3__16vectorIN7tinyobj18joint_and_weight_tENS_9allocatorIS2_EEE16__destroy_vectorclB7v160006Ev, symObjAddr: 0x1537C, symBinAddr: 0x100017BB4, symSize: 0x9C }
  - { offsetInCU: 0x797DA, offset: 0x797DA, size: 0x8, addend: 0x0, symName: __ZNSt3__16vectorIN7tinyobj18joint_and_weight_tENS_9allocatorIS2_EEE16__destroy_vectorC2ERS5_, symObjAddr: 0x15418, symBinAddr: 0x100017C50, symSize: 0x20 }
  - { offsetInCU: 0x79813, offset: 0x79813, size: 0x8, addend: 0x0, symName: __ZNKSt3__16vectorIN7tinyobj18joint_and_weight_tENS_9allocatorIS2_EEE17__annotate_deleteB7v160006Ev, symObjAddr: 0x15438, symBinAddr: 0x100017C70, symSize: 0xB8 }
  - { offsetInCU: 0x79839, offset: 0x79839, size: 0x8, addend: 0x0, symName: __ZNSt3__16vectorIN7tinyobj18joint_and_weight_tENS_9allocatorIS2_EEE7__clearB7v160006Ev, symObjAddr: 0x15500, symBinAddr: 0x100017D38, symSize: 0x28 }
  - { offsetInCU: 0x7985F, offset: 0x7985F, size: 0x8, addend: 0x0, symName: __ZNSt3__116allocator_traitsINS_9allocatorIN7tinyobj18joint_and_weight_tEEEE10deallocateB7v160006ERS4_PS3_m, symObjAddr: 0x15528, symBinAddr: 0x100017D60, symSize: 0x34 }
  - { offsetInCU: 0x798A1, offset: 0x798A1, size: 0x8, addend: 0x0, symName: __ZNSt3__16vectorIN7tinyobj18joint_and_weight_tENS_9allocatorIS2_EEE7__allocB7v160006Ev, symObjAddr: 0x1555C, symBinAddr: 0x100017D94, symSize: 0x28 }
  - { offsetInCU: 0x798C7, offset: 0x798C7, size: 0x8, addend: 0x0, symName: __ZNKSt3__16vectorIN7tinyobj18joint_and_weight_tENS_9allocatorIS2_EEE8capacityB7v160006Ev, symObjAddr: 0x15584, symBinAddr: 0x100017DBC, symSize: 0x40 }
  - { offsetInCU: 0x798ED, offset: 0x798ED, size: 0x8, addend: 0x0, symName: __ZNKSt3__16vectorIN7tinyobj18joint_and_weight_tENS_9allocatorIS2_EEE31__annotate_contiguous_containerB7v160006EPKvS7_S7_S7_, symObjAddr: 0x155C4, symBinAddr: 0x100017DFC, symSize: 0x20 }
  - { offsetInCU: 0x79943, offset: 0x79943, size: 0x8, addend: 0x0, symName: __ZNKSt3__16vectorIN7tinyobj18joint_and_weight_tENS_9allocatorIS2_EEE4dataB7v160006Ev, symObjAddr: 0x155E4, symBinAddr: 0x100017E1C, symSize: 0x28 }
  - { offsetInCU: 0x79969, offset: 0x79969, size: 0x8, addend: 0x0, symName: __ZNKSt3__16vectorIN7tinyobj18joint_and_weight_tENS_9allocatorIS2_EEE4sizeB7v160006Ev, symObjAddr: 0x1560C, symBinAddr: 0x100017E44, symSize: 0x28 }
  - { offsetInCU: 0x7998F, offset: 0x7998F, size: 0x8, addend: 0x0, symName: __ZNSt3__16vectorIN7tinyobj18joint_and_weight_tENS_9allocatorIS2_EEE22__base_destruct_at_endB7v160006EPS2_, symObjAddr: 0x15648, symBinAddr: 0x100017E80, symSize: 0x8C }
  - { offsetInCU: 0x799D3, offset: 0x799D3, size: 0x8, addend: 0x0, symName: __ZNSt3__116allocator_traitsINS_9allocatorIN7tinyobj18joint_and_weight_tEEEE7destroyB7v160006IS3_vEEvRS4_PT_, symObjAddr: 0x156D4, symBinAddr: 0x100017F0C, symSize: 0x2C }
  - { offsetInCU: 0x79A10, offset: 0x79A10, size: 0x8, addend: 0x0, symName: __ZNSt3__19allocatorIN7tinyobj18joint_and_weight_tEE7destroyB7v160006EPS2_, symObjAddr: 0x15700, symBinAddr: 0x100017F38, symSize: 0x14 }
  - { offsetInCU: 0x79A44, offset: 0x79A44, size: 0x8, addend: 0x0, symName: __ZNSt3__19allocatorIN7tinyobj18joint_and_weight_tEE10deallocateB7v160006EPS2_m, symObjAddr: 0x15714, symBinAddr: 0x100017F4C, symSize: 0x40 }
  - { offsetInCU: 0x79A86, offset: 0x79A86, size: 0x8, addend: 0x0, symName: __ZNSt3__117__compressed_pairIPN7tinyobj18joint_and_weight_tENS_9allocatorIS2_EEE6secondB7v160006Ev, symObjAddr: 0x15754, symBinAddr: 0x100017F8C, symSize: 0x24 }
  - { offsetInCU: 0x79AAC, offset: 0x79AAC, size: 0x8, addend: 0x0, symName: __ZNSt3__122__compressed_pair_elemINS_9allocatorIN7tinyobj18joint_and_weight_tEEELi1ELb1EE5__getB7v160006Ev, symObjAddr: 0x15778, symBinAddr: 0x100017FB0, symSize: 0x14 }
  - { offsetInCU: 0x79AD2, offset: 0x79AD2, size: 0x8, addend: 0x0, symName: __ZNKSt3__16vectorIN7tinyobj18joint_and_weight_tENS_9allocatorIS2_EEE9__end_capB7v160006Ev, symObjAddr: 0x1578C, symBinAddr: 0x100017FC4, symSize: 0x28 }
  - { offsetInCU: 0x79AF8, offset: 0x79AF8, size: 0x8, addend: 0x0, symName: __ZNKSt3__117__compressed_pairIPN7tinyobj18joint_and_weight_tENS_9allocatorIS2_EEE5firstB7v160006Ev, symObjAddr: 0x157B4, symBinAddr: 0x100017FEC, symSize: 0x24 }
  - { offsetInCU: 0x79B1E, offset: 0x79B1E, size: 0x8, addend: 0x0, symName: __ZNKSt3__122__compressed_pair_elemIPN7tinyobj18joint_and_weight_tELi0ELb0EE5__getB7v160006Ev, symObjAddr: 0x157D8, symBinAddr: 0x100018010, symSize: 0x14 }
  - { offsetInCU: 0x79B44, offset: 0x79B44, size: 0x8, addend: 0x0, symName: __ZN7tinyobj8__line_tC2Ev, symObjAddr: 0x157EC, symBinAddr: 0x100018024, symSize: 0x2C }
  - { offsetInCU: 0x79B71, offset: 0x79B71, size: 0x8, addend: 0x0, symName: __ZNSt3__16vectorIN7tinyobj14vertex_index_tENS_9allocatorIS2_EEEC1B7v160006Ev, symObjAddr: 0x15818, symBinAddr: 0x100018050, symSize: 0x2C }
  - { offsetInCU: 0x79B9B, offset: 0x79B9B, size: 0x8, addend: 0x0, symName: __ZNSt3__16vectorIN7tinyobj14vertex_index_tENS_9allocatorIS2_EEEC2B7v160006Ev, symObjAddr: 0x15844, symBinAddr: 0x10001807C, symSize: 0x58 }
  - { offsetInCU: 0x79BC5, offset: 0x79BC5, size: 0x8, addend: 0x0, symName: __ZNSt3__117__compressed_pairIPN7tinyobj14vertex_index_tENS_9allocatorIS2_EEEC1B7v160006IDnNS_18__default_init_tagEEEOT_OT0_, symObjAddr: 0x1589C, symBinAddr: 0x1000180D4, symSize: 0x3C }
  - { offsetInCU: 0x79C1D, offset: 0x79C1D, size: 0x8, addend: 0x0, symName: __ZNSt3__117__compressed_pairIPN7tinyobj14vertex_index_tENS_9allocatorIS2_EEEC2B7v160006IDnNS_18__default_init_tagEEEOT_OT0_, symObjAddr: 0x158E8, symBinAddr: 0x100018120, symSize: 0x40 }
  - { offsetInCU: 0x79C75, offset: 0x79C75, size: 0x8, addend: 0x0, symName: __ZNSt3__122__compressed_pair_elemIPN7tinyobj14vertex_index_tELi0ELb0EEC2B7v160006IDnvEEOT_, symObjAddr: 0x15928, symBinAddr: 0x100018160, symSize: 0x1C }
  - { offsetInCU: 0x79CB7, offset: 0x79CB7, size: 0x8, addend: 0x0, symName: __ZNSt3__122__compressed_pair_elemINS_9allocatorIN7tinyobj14vertex_index_tEEELi1ELb1EEC2B7v160006ENS_18__default_init_tagE, symObjAddr: 0x15944, symBinAddr: 0x10001817C, symSize: 0x2C }
  - { offsetInCU: 0x79CEC, offset: 0x79CEC, size: 0x8, addend: 0x0, symName: __ZNSt3__19allocatorIN7tinyobj14vertex_index_tEEC2B7v160006Ev, symObjAddr: 0x15970, symBinAddr: 0x1000181A8, symSize: 0x2C }
  - { offsetInCU: 0x79D16, offset: 0x79D16, size: 0x8, addend: 0x0, symName: __ZNSt3__116__non_trivial_ifILb1ENS_9allocatorIN7tinyobj14vertex_index_tEEEEC2B7v160006Ev, symObjAddr: 0x1599C, symBinAddr: 0x1000181D4, symSize: 0x14 }
  - { offsetInCU: 0x79D40, offset: 0x79D40, size: 0x8, addend: 0x0, symName: __ZN7tinyobj14vertex_index_tC2Ev, symObjAddr: 0x159B0, symBinAddr: 0x1000181E8, symSize: 0x24 }
  - { offsetInCU: 0x79D6A, offset: 0x79D6A, size: 0x8, addend: 0x0, symName: __ZN7tinyobj14vertex_index_tC1Ei, symObjAddr: 0x159D4, symBinAddr: 0x10001820C, symSize: 0x34 }
  - { offsetInCU: 0x79DA3, offset: 0x79DA3, size: 0x8, addend: 0x0, symName: __ZN7tinyobj14vertex_index_tC2Ei, symObjAddr: 0x15C3C, symBinAddr: 0x100018474, symSize: 0x30 }
  - { offsetInCU: 0x79DDC, offset: 0x79DDC, size: 0x8, addend: 0x0, symName: __ZN7tinyobj8__line_tD2Ev, symObjAddr: 0x15C6C, symBinAddr: 0x1000184A4, symSize: 0x2C }
  - { offsetInCU: 0x79E09, offset: 0x79E09, size: 0x8, addend: 0x0, symName: __ZNSt3__16vectorIN7tinyobj14vertex_index_tENS_9allocatorIS2_EEED1B7v160006Ev, symObjAddr: 0x15C98, symBinAddr: 0x1000184D0, symSize: 0x2C }
  - { offsetInCU: 0x79E33, offset: 0x79E33, size: 0x8, addend: 0x0, symName: __ZNSt3__16vectorIN7tinyobj14vertex_index_tENS_9allocatorIS2_EEED2B7v160006Ev, symObjAddr: 0x15CC4, symBinAddr: 0x1000184FC, symSize: 0x44 }
  - { offsetInCU: 0x79E5D, offset: 0x79E5D, size: 0x8, addend: 0x0, symName: __ZNSt3__16vectorIN7tinyobj14vertex_index_tENS_9allocatorIS2_EEE16__destroy_vectorC1ERS5_, symObjAddr: 0x15D08, symBinAddr: 0x100018540, symSize: 0x34 }
  - { offsetInCU: 0x79E96, offset: 0x79E96, size: 0x8, addend: 0x0, symName: __ZNSt3__16vectorIN7tinyobj14vertex_index_tENS_9allocatorIS2_EEE16__destroy_vectorclB7v160006Ev, symObjAddr: 0x15D3C, symBinAddr: 0x100018574, symSize: 0x9C }
  - { offsetInCU: 0x79EBC, offset: 0x79EBC, size: 0x8, addend: 0x0, symName: __ZNSt3__16vectorIN7tinyobj14vertex_index_tENS_9allocatorIS2_EEE16__destroy_vectorC2ERS5_, symObjAddr: 0x15DD8, symBinAddr: 0x100018610, symSize: 0x20 }
  - { offsetInCU: 0x79EF5, offset: 0x79EF5, size: 0x8, addend: 0x0, symName: __ZNKSt3__16vectorIN7tinyobj14vertex_index_tENS_9allocatorIS2_EEE17__annotate_deleteB7v160006Ev, symObjAddr: 0x15DF8, symBinAddr: 0x100018630, symSize: 0xD4 }
  - { offsetInCU: 0x79F1B, offset: 0x79F1B, size: 0x8, addend: 0x0, symName: __ZNSt3__16vectorIN7tinyobj14vertex_index_tENS_9allocatorIS2_EEE7__clearB7v160006Ev, symObjAddr: 0x15EDC, symBinAddr: 0x100018714, symSize: 0x28 }
  - { offsetInCU: 0x79F41, offset: 0x79F41, size: 0x8, addend: 0x0, symName: __ZNSt3__116allocator_traitsINS_9allocatorIN7tinyobj14vertex_index_tEEEE10deallocateB7v160006ERS4_PS3_m, symObjAddr: 0x15F04, symBinAddr: 0x10001873C, symSize: 0x34 }
  - { offsetInCU: 0x79F83, offset: 0x79F83, size: 0x8, addend: 0x0, symName: __ZNSt3__16vectorIN7tinyobj14vertex_index_tENS_9allocatorIS2_EEE7__allocB7v160006Ev, symObjAddr: 0x15F38, symBinAddr: 0x100018770, symSize: 0x28 }
  - { offsetInCU: 0x79FA9, offset: 0x79FA9, size: 0x8, addend: 0x0, symName: __ZNKSt3__16vectorIN7tinyobj14vertex_index_tENS_9allocatorIS2_EEE8capacityB7v160006Ev, symObjAddr: 0x15F60, symBinAddr: 0x100018798, symSize: 0x40 }
  - { offsetInCU: 0x79FCF, offset: 0x79FCF, size: 0x8, addend: 0x0, symName: __ZNKSt3__16vectorIN7tinyobj14vertex_index_tENS_9allocatorIS2_EEE31__annotate_contiguous_containerB7v160006EPKvS7_S7_S7_, symObjAddr: 0x15FA0, symBinAddr: 0x1000187D8, symSize: 0x20 }
  - { offsetInCU: 0x7A025, offset: 0x7A025, size: 0x8, addend: 0x0, symName: __ZNKSt3__16vectorIN7tinyobj14vertex_index_tENS_9allocatorIS2_EEE4dataB7v160006Ev, symObjAddr: 0x15FC0, symBinAddr: 0x1000187F8, symSize: 0x28 }
  - { offsetInCU: 0x7A04B, offset: 0x7A04B, size: 0x8, addend: 0x0, symName: __ZNKSt3__16vectorIN7tinyobj14vertex_index_tENS_9allocatorIS2_EEE4sizeB7v160006Ev, symObjAddr: 0x15FE8, symBinAddr: 0x100018820, symSize: 0x28 }
  - { offsetInCU: 0x7A071, offset: 0x7A071, size: 0x8, addend: 0x0, symName: __ZNSt3__16vectorIN7tinyobj14vertex_index_tENS_9allocatorIS2_EEE22__base_destruct_at_endB7v160006EPS2_, symObjAddr: 0x16024, symBinAddr: 0x10001885C, symSize: 0x8C }
  - { offsetInCU: 0x7A0B5, offset: 0x7A0B5, size: 0x8, addend: 0x0, symName: __ZNSt3__116allocator_traitsINS_9allocatorIN7tinyobj14vertex_index_tEEEE7destroyB7v160006IS3_vEEvRS4_PT_, symObjAddr: 0x160B0, symBinAddr: 0x1000188E8, symSize: 0x2C }
  - { offsetInCU: 0x7A0F2, offset: 0x7A0F2, size: 0x8, addend: 0x0, symName: __ZNSt3__19allocatorIN7tinyobj14vertex_index_tEE7destroyB7v160006EPS2_, symObjAddr: 0x160DC, symBinAddr: 0x100018914, symSize: 0x14 }
  - { offsetInCU: 0x7A126, offset: 0x7A126, size: 0x8, addend: 0x0, symName: __ZNSt3__19allocatorIN7tinyobj14vertex_index_tEE10deallocateB7v160006EPS2_m, symObjAddr: 0x160F0, symBinAddr: 0x100018928, symSize: 0x44 }
  - { offsetInCU: 0x7A168, offset: 0x7A168, size: 0x8, addend: 0x0, symName: __ZNSt3__117__compressed_pairIPN7tinyobj14vertex_index_tENS_9allocatorIS2_EEE6secondB7v160006Ev, symObjAddr: 0x16134, symBinAddr: 0x10001896C, symSize: 0x24 }
  - { offsetInCU: 0x7A18E, offset: 0x7A18E, size: 0x8, addend: 0x0, symName: __ZNSt3__122__compressed_pair_elemINS_9allocatorIN7tinyobj14vertex_index_tEEELi1ELb1EE5__getB7v160006Ev, symObjAddr: 0x16158, symBinAddr: 0x100018990, symSize: 0x14 }
  - { offsetInCU: 0x7A1B4, offset: 0x7A1B4, size: 0x8, addend: 0x0, symName: __ZNKSt3__16vectorIN7tinyobj14vertex_index_tENS_9allocatorIS2_EEE9__end_capB7v160006Ev, symObjAddr: 0x1616C, symBinAddr: 0x1000189A4, symSize: 0x28 }
  - { offsetInCU: 0x7A1DA, offset: 0x7A1DA, size: 0x8, addend: 0x0, symName: __ZNKSt3__117__compressed_pairIPN7tinyobj14vertex_index_tENS_9allocatorIS2_EEE5firstB7v160006Ev, symObjAddr: 0x16194, symBinAddr: 0x1000189CC, symSize: 0x24 }
  - { offsetInCU: 0x7A200, offset: 0x7A200, size: 0x8, addend: 0x0, symName: __ZNKSt3__122__compressed_pair_elemIPN7tinyobj14vertex_index_tELi0ELb0EE5__getB7v160006Ev, symObjAddr: 0x161B8, symBinAddr: 0x1000189F0, symSize: 0x14 }
  - { offsetInCU: 0x7A226, offset: 0x7A226, size: 0x8, addend: 0x0, symName: __ZN7tinyobj10__points_tC2Ev, symObjAddr: 0x161CC, symBinAddr: 0x100018A04, symSize: 0x2C }
  - { offsetInCU: 0x7A253, offset: 0x7A253, size: 0x8, addend: 0x0, symName: __ZN7tinyobj10__points_tD2Ev, symObjAddr: 0x161F8, symBinAddr: 0x100018A30, symSize: 0x2C }
  - { offsetInCU: 0x7A280, offset: 0x7A280, size: 0x8, addend: 0x0, symName: __ZN7tinyobj6face_tC2Ev, symObjAddr: 0x16224, symBinAddr: 0x100018A5C, symSize: 0x38 }
  - { offsetInCU: 0x7A2AA, offset: 0x7A2AA, size: 0x8, addend: 0x0, symName: __ZN7tinyobj6face_tD2Ev, symObjAddr: 0x1625C, symBinAddr: 0x100018A94, symSize: 0x30 }
  - { offsetInCU: 0x7A2D7, offset: 0x7A2D7, size: 0x8, addend: 0x0, symName: __ZNK7tinyobj9PrimGroup7IsEmptyEv, symObjAddr: 0x1628C, symBinAddr: 0x100018AC4, symSize: 0x70 }
  - { offsetInCU: 0x7A2FD, offset: 0x7A2FD, size: 0x8, addend: 0x0, symName: __ZNKSt3__16vectorIN7tinyobj6face_tENS_9allocatorIS2_EEE5emptyB7v160006Ev, symObjAddr: 0x162FC, symBinAddr: 0x100018B34, symSize: 0x28 }
  - { offsetInCU: 0x7A323, offset: 0x7A323, size: 0x8, addend: 0x0, symName: __ZNKSt3__16vectorIN7tinyobj6face_tENS_9allocatorIS2_EEE4sizeB7v160006Ev, symObjAddr: 0x16324, symBinAddr: 0x100018B5C, symSize: 0x28 }
  - { offsetInCU: 0x7A349, offset: 0x7A349, size: 0x8, addend: 0x0, symName: __ZNKSt3__16vectorIN7tinyobj6face_tENS_9allocatorIS2_EEEixB7v160006Em, symObjAddr: 0x1634C, symBinAddr: 0x100018B84, symSize: 0x24 }
  - { offsetInCU: 0x7A380, offset: 0x7A380, size: 0x8, addend: 0x0, symName: __ZNKSt3__16vectorIN7tinyobj14vertex_index_tENS_9allocatorIS2_EEEixB7v160006Em, symObjAddr: 0x16370, symBinAddr: 0x100018BA8, symSize: 0x2C }
  - { offsetInCU: 0x7A3B7, offset: 0x7A3B7, size: 0x8, addend: 0x0, symName: __ZNSt3__16vectorIjNS_9allocatorIjEEE9push_backB7v160006EOj, symObjAddr: 0x1639C, symBinAddr: 0x100018BD4, symSize: 0x6C }
  - { offsetInCU: 0x7A3EE, offset: 0x7A3EE, size: 0x8, addend: 0x0, symName: __ZNSt3__16vectorIiNS_9allocatorIiEEE9push_backB7v160006ERKi, symObjAddr: 0x16408, symBinAddr: 0x100018C40, symSize: 0x6C }
  - { offsetInCU: 0x7A425, offset: 0x7A425, size: 0x8, addend: 0x0, symName: __ZNSt3__16vectorIjNS_9allocatorIjEEE9push_backB7v160006ERKj, symObjAddr: 0x16474, symBinAddr: 0x100018CAC, symSize: 0x6C }
  - { offsetInCU: 0x7A461, offset: 0x7A461, size: 0x8, addend: 0x0, symName: __ZN7tinyobj12TinyObjPointC1Ev, symObjAddr: 0x164E0, symBinAddr: 0x100018D18, symSize: 0x2C }
  - { offsetInCU: 0x7A48B, offset: 0x7A48B, size: 0x8, addend: 0x0, symName: __ZN7tinyobj12TinyObjPointC1Efff, symObjAddr: 0x1650C, symBinAddr: 0x100018D44, symSize: 0x44 }
  - { offsetInCU: 0x7A4E1, offset: 0x7A4E1, size: 0x8, addend: 0x0, symName: __Z4fabsB7v160006f, symObjAddr: 0x165AC, symBinAddr: 0x100018DE4, symSize: 0x18 }
  - { offsetInCU: 0x7A510, offset: 0x7A510, size: 0x8, addend: 0x0, symName: __ZNSt3__16vectorINS0_INS_5arrayIfLm2EEENS_9allocatorIS2_EEEENS3_IS5_EEEC1B7v160006Ev, symObjAddr: 0x166E4, symBinAddr: 0x100018F1C, symSize: 0x2C }
  - { offsetInCU: 0x7A53A, offset: 0x7A53A, size: 0x8, addend: 0x0, symName: __ZNSt3__16vectorINS_5arrayIfLm2EEENS_9allocatorIS2_EEEC1B7v160006Ev, symObjAddr: 0x16710, symBinAddr: 0x100018F48, symSize: 0x2C }
  - { offsetInCU: 0x7A564, offset: 0x7A564, size: 0x8, addend: 0x0, symName: __ZNSt3__16vectorINS_5arrayIfLm2EEENS_9allocatorIS2_EEE9push_backB7v160006EOS2_, symObjAddr: 0x167B0, symBinAddr: 0x100018FE8, symSize: 0x6C }
  - { offsetInCU: 0x7A59B, offset: 0x7A59B, size: 0x8, addend: 0x0, symName: __ZNSt3__16vectorINS0_INS_5arrayIfLm2EEENS_9allocatorIS2_EEEENS3_IS5_EEE9push_backB7v160006ERKS5_, symObjAddr: 0x1681C, symBinAddr: 0x100019054, symSize: 0x6C }
  - { offsetInCU: 0x7A5D2, offset: 0x7A5D2, size: 0x8, addend: 0x0, symName: __ZNSt3__16vectorIjNS_9allocatorIjEEEixB7v160006Em, symObjAddr: 0x16914, symBinAddr: 0x10001914C, symSize: 0x24 }
  - { offsetInCU: 0x7A609, offset: 0x7A609, size: 0x8, addend: 0x0, symName: __ZNSt3__16vectorIjNS_9allocatorIjEEED1B7v160006Ev, symObjAddr: 0x16938, symBinAddr: 0x100019170, symSize: 0x2C }
  - { offsetInCU: 0x7A633, offset: 0x7A633, size: 0x8, addend: 0x0, symName: __ZNSt3__16vectorINS_5arrayIfLm2EEENS_9allocatorIS2_EEED1B7v160006Ev, symObjAddr: 0x16964, symBinAddr: 0x10001919C, symSize: 0x2C }
  - { offsetInCU: 0x7A65D, offset: 0x7A65D, size: 0x8, addend: 0x0, symName: __ZNSt3__16vectorINS0_INS_5arrayIfLm2EEENS_9allocatorIS2_EEEENS3_IS5_EEED1B7v160006Ev, symObjAddr: 0x16990, symBinAddr: 0x1000191C8, symSize: 0x2C }
  - { offsetInCU: 0x7A687, offset: 0x7A687, size: 0x8, addend: 0x0, symName: __ZNSt3__16vectorIN7tinyobj5tag_tENS_9allocatorIS2_EEEaSB7v160006ERKS5_, symObjAddr: 0x169BC, symBinAddr: 0x1000191F4, symSize: 0x68 }
  - { offsetInCU: 0x7A6BE, offset: 0x7A6BE, size: 0x8, addend: 0x0, symName: __ZNKSt3__16vectorIN7tinyobj8__line_tENS_9allocatorIS2_EEE5emptyB7v160006Ev, symObjAddr: 0x16A24, symBinAddr: 0x10001925C, symSize: 0x28 }
  - { offsetInCU: 0x7A6E4, offset: 0x7A6E4, size: 0x8, addend: 0x0, symName: __ZNKSt3__16vectorIN7tinyobj8__line_tENS_9allocatorIS2_EEE4sizeB7v160006Ev, symObjAddr: 0x16A4C, symBinAddr: 0x100019284, symSize: 0x28 }
  - { offsetInCU: 0x7A70A, offset: 0x7A70A, size: 0x8, addend: 0x0, symName: __ZNKSt3__16vectorIN7tinyobj8__line_tENS_9allocatorIS2_EEEixB7v160006Em, symObjAddr: 0x16A74, symBinAddr: 0x1000192AC, symSize: 0x2C }
  - { offsetInCU: 0x7A741, offset: 0x7A741, size: 0x8, addend: 0x0, symName: __ZNSt3__16vectorIiNS_9allocatorIiEEE9push_backB7v160006EOi, symObjAddr: 0x16AA0, symBinAddr: 0x1000192D8, symSize: 0x6C }
  - { offsetInCU: 0x7A778, offset: 0x7A778, size: 0x8, addend: 0x0, symName: __ZNKSt3__16vectorIN7tinyobj10__points_tENS_9allocatorIS2_EEE5emptyB7v160006Ev, symObjAddr: 0x16B0C, symBinAddr: 0x100019344, symSize: 0x28 }
  - { offsetInCU: 0x7A79E, offset: 0x7A79E, size: 0x8, addend: 0x0, symName: __ZNKSt3__16vectorIN7tinyobj10__points_tENS_9allocatorIS2_EEE4sizeB7v160006Ev, symObjAddr: 0x16B34, symBinAddr: 0x10001936C, symSize: 0x28 }
  - { offsetInCU: 0x7A7C4, offset: 0x7A7C4, size: 0x8, addend: 0x0, symName: __ZNKSt3__16vectorIN7tinyobj10__points_tENS_9allocatorIS2_EEEixB7v160006Em, symObjAddr: 0x16B5C, symBinAddr: 0x100019394, symSize: 0x2C }
  - { offsetInCU: 0x7A7FB, offset: 0x7A7FB, size: 0x8, addend: 0x0, symName: __ZNSt3__16vectorIjNS_9allocatorIjEEE9__end_capB7v160006Ev, symObjAddr: 0x16B88, symBinAddr: 0x1000193C0, symSize: 0x28 }
  - { offsetInCU: 0x7A827, offset: 0x7A827, size: 0x8, addend: 0x0, symName: __ZNSt3__16vectorIjNS_9allocatorIjEEE22__construct_one_at_endB7v160006IJjEEEvDpOT_, symObjAddr: 0x16BB0, symBinAddr: 0x1000193E8, symSize: 0x90 }
  - { offsetInCU: 0x7A876, offset: 0x7A876, size: 0x8, addend: 0x0, symName: __ZNSt3__16vectorIjNS_9allocatorIjEEE21__push_back_slow_pathIjEEvOT_, symObjAddr: 0x16C40, symBinAddr: 0x100019478, symSize: 0xD8 }
  - { offsetInCU: 0x7A8D4, offset: 0x7A8D4, size: 0x8, addend: 0x0, symName: __ZNSt3__117__compressed_pairIPjNS_9allocatorIjEEE5firstB7v160006Ev, symObjAddr: 0x16D18, symBinAddr: 0x100019550, symSize: 0x24 }
  - { offsetInCU: 0x7A8FA, offset: 0x7A8FA, size: 0x8, addend: 0x0, symName: __ZNSt3__122__compressed_pair_elemIPjLi0ELb0EE5__getB7v160006Ev, symObjAddr: 0x16D3C, symBinAddr: 0x100019574, symSize: 0x14 }
  - { offsetInCU: 0x7A939, offset: 0x7A939, size: 0x8, addend: 0x0, symName: __ZNSt3__16vectorIjNS_9allocatorIjEEE21_ConstructTransactionC1B7v160006ERS3_m, symObjAddr: 0x16D50, symBinAddr: 0x100019588, symSize: 0x3C }
  - { offsetInCU: 0x7A981, offset: 0x7A981, size: 0x8, addend: 0x0, symName: __ZNSt3__116allocator_traitsINS_9allocatorIjEEE9constructB7v160006IjJjEvEEvRS2_PT_DpOT0_, symObjAddr: 0x16D8C, symBinAddr: 0x1000195C4, symSize: 0x34 }
  - { offsetInCU: 0x7A9D8, offset: 0x7A9D8, size: 0x8, addend: 0x0, symName: __ZNSt3__16vectorIjNS_9allocatorIjEEE7__allocB7v160006Ev, symObjAddr: 0x16DC0, symBinAddr: 0x1000195F8, symSize: 0x28 }
  - { offsetInCU: 0x7A9FE, offset: 0x7A9FE, size: 0x8, addend: 0x0, symName: __ZNSt3__16vectorIjNS_9allocatorIjEEE21_ConstructTransactionD1B7v160006Ev, symObjAddr: 0x16DFC, symBinAddr: 0x100019634, symSize: 0x2C }
  - { offsetInCU: 0x7AA28, offset: 0x7AA28, size: 0x8, addend: 0x0, symName: __ZNSt3__16vectorIjNS_9allocatorIjEEE21_ConstructTransactionC2B7v160006ERS3_m, symObjAddr: 0x16E28, symBinAddr: 0x100019660, symSize: 0x44 }
  - { offsetInCU: 0x7AA70, offset: 0x7AA70, size: 0x8, addend: 0x0, symName: __ZNSt3__19allocatorIjE9constructB7v160006IjJjEEEvPT_DpOT0_, symObjAddr: 0x16E6C, symBinAddr: 0x1000196A4, symSize: 0x28 }
  - { offsetInCU: 0x7AAC6, offset: 0x7AAC6, size: 0x8, addend: 0x0, symName: __ZNSt3__117__compressed_pairIPjNS_9allocatorIjEEE6secondB7v160006Ev, symObjAddr: 0x16E94, symBinAddr: 0x1000196CC, symSize: 0x24 }
  - { offsetInCU: 0x7AAEC, offset: 0x7AAEC, size: 0x8, addend: 0x0, symName: __ZNSt3__122__compressed_pair_elemINS_9allocatorIjEELi1ELb1EE5__getB7v160006Ev, symObjAddr: 0x16EB8, symBinAddr: 0x1000196F0, symSize: 0x14 }
  - { offsetInCU: 0x7AB12, offset: 0x7AB12, size: 0x8, addend: 0x0, symName: __ZNSt3__16vectorIjNS_9allocatorIjEEE21_ConstructTransactionD2B7v160006Ev, symObjAddr: 0x16ECC, symBinAddr: 0x100019704, symSize: 0x20 }
  - { offsetInCU: 0x7AB3C, offset: 0x7AB3C, size: 0x8, addend: 0x0, symName: __ZNKSt3__16vectorIjNS_9allocatorIjEEE11__recommendB7v160006Em, symObjAddr: 0x16EEC, symBinAddr: 0x100019724, symSize: 0xB4 }
  - { offsetInCU: 0x7AB91, offset: 0x7AB91, size: 0x8, addend: 0x0, symName: __ZNSt3__114__split_bufferIjRNS_9allocatorIjEEEC1EmmS3_, symObjAddr: 0x16FA0, symBinAddr: 0x1000197D8, symSize: 0x44 }
  - { offsetInCU: 0x7ABE7, offset: 0x7ABE7, size: 0x8, addend: 0x0, symName: __ZNSt3__114__split_bufferIjRNS_9allocatorIjEEED1Ev, symObjAddr: 0x170FC, symBinAddr: 0x100019934, symSize: 0x2C }
  - { offsetInCU: 0x7AC13, offset: 0x7AC13, size: 0x8, addend: 0x0, symName: __ZNKSt3__16vectorIjNS_9allocatorIjEEE8max_sizeEv, symObjAddr: 0x17128, symBinAddr: 0x100019960, symSize: 0x60 }
  - { offsetInCU: 0x7AC3B, offset: 0x7AC3B, size: 0x8, addend: 0x0, symName: __ZNKSt3__16vectorIjNS_9allocatorIjEEE20__throw_length_errorB7v160006Ev, symObjAddr: 0x17188, symBinAddr: 0x1000199C0, symSize: 0x1C }
  - { offsetInCU: 0x7AC61, offset: 0x7AC61, size: 0x8, addend: 0x0, symName: __ZNKSt3__16vectorIjNS_9allocatorIjEEE8capacityB7v160006Ev, symObjAddr: 0x171A4, symBinAddr: 0x1000199DC, symSize: 0x40 }
  - { offsetInCU: 0x7AC91, offset: 0x7AC91, size: 0x8, addend: 0x0, symName: __ZNSt3__116allocator_traitsINS_9allocatorIjEEE8max_sizeB7v160006IS2_vEEmRKS2_, symObjAddr: 0x1723C, symBinAddr: 0x100019A74, symSize: 0x24 }
  - { offsetInCU: 0x7ACBF, offset: 0x7ACBF, size: 0x8, addend: 0x0, symName: __ZNKSt3__16vectorIjNS_9allocatorIjEEE7__allocB7v160006Ev, symObjAddr: 0x17260, symBinAddr: 0x100019A98, symSize: 0x28 }
  - { offsetInCU: 0x7ACE5, offset: 0x7ACE5, size: 0x8, addend: 0x0, symName: __ZNSt3__114numeric_limitsIlE3maxB7v160006Ev, symObjAddr: 0x17288, symBinAddr: 0x100019AC0, symSize: 0x14 }
  - { offsetInCU: 0x7AD03, offset: 0x7AD03, size: 0x8, addend: 0x0, symName: __ZNKSt3__16__lessImmEclB7v160006ERKmS3_, symObjAddr: 0x172F0, symBinAddr: 0x100019B28, symSize: 0x34 }
  - { offsetInCU: 0x7AD45, offset: 0x7AD45, size: 0x8, addend: 0x0, symName: __ZNKSt3__19allocatorIjE8max_sizeB7v160006Ev, symObjAddr: 0x17324, symBinAddr: 0x100019B5C, symSize: 0x14 }
  - { offsetInCU: 0x7AD6B, offset: 0x7AD6B, size: 0x8, addend: 0x0, symName: __ZNKSt3__117__compressed_pairIPjNS_9allocatorIjEEE6secondB7v160006Ev, symObjAddr: 0x17338, symBinAddr: 0x100019B70, symSize: 0x24 }
  - { offsetInCU: 0x7AD91, offset: 0x7AD91, size: 0x8, addend: 0x0, symName: __ZNKSt3__122__compressed_pair_elemINS_9allocatorIjEELi1ELb1EE5__getB7v160006Ev, symObjAddr: 0x1735C, symBinAddr: 0x100019B94, symSize: 0x14 }
  - { offsetInCU: 0x7ADB7, offset: 0x7ADB7, size: 0x8, addend: 0x0, symName: __ZNSt3__123__libcpp_numeric_limitsIlLb1EE3maxB7v160006Ev, symObjAddr: 0x17370, symBinAddr: 0x100019BA8, symSize: 0x8 }
  - { offsetInCU: 0x7ADCB, offset: 0x7ADCB, size: 0x8, addend: 0x0, symName: __ZNKSt3__16vectorIjNS_9allocatorIjEEE9__end_capB7v160006Ev, symObjAddr: 0x17378, symBinAddr: 0x100019BB0, symSize: 0x28 }
  - { offsetInCU: 0x7ADF1, offset: 0x7ADF1, size: 0x8, addend: 0x0, symName: __ZNKSt3__117__compressed_pairIPjNS_9allocatorIjEEE5firstB7v160006Ev, symObjAddr: 0x173A0, symBinAddr: 0x100019BD8, symSize: 0x24 }
  - { offsetInCU: 0x7AE17, offset: 0x7AE17, size: 0x8, addend: 0x0, symName: __ZNKSt3__122__compressed_pair_elemIPjLi0ELb0EE5__getB7v160006Ev, symObjAddr: 0x173C4, symBinAddr: 0x100019BFC, symSize: 0x14 }
  - { offsetInCU: 0x7AE3D, offset: 0x7AE3D, size: 0x8, addend: 0x0, symName: __ZNSt3__114__split_bufferIjRNS_9allocatorIjEEEC2EmmS3_, symObjAddr: 0x1742C, symBinAddr: 0x100019C64, symSize: 0xD4 }
  - { offsetInCU: 0x7AEB0, offset: 0x7AEB0, size: 0x8, addend: 0x0, symName: __ZNSt3__117__compressed_pairIPjRNS_9allocatorIjEEEC1B7v160006IDnS4_EEOT_OT0_, symObjAddr: 0x17500, symBinAddr: 0x100019D38, symSize: 0x3C }
  - { offsetInCU: 0x7AF08, offset: 0x7AF08, size: 0x8, addend: 0x0, symName: __ZNSt3__114__split_bufferIjRNS_9allocatorIjEEE7__allocB7v160006Ev, symObjAddr: 0x1757C, symBinAddr: 0x100019DB4, symSize: 0x28 }
  - { offsetInCU: 0x7AF2E, offset: 0x7AF2E, size: 0x8, addend: 0x0, symName: __ZNSt3__114__split_bufferIjRNS_9allocatorIjEEE9__end_capB7v160006Ev, symObjAddr: 0x175A4, symBinAddr: 0x100019DDC, symSize: 0x28 }
  - { offsetInCU: 0x7AF54, offset: 0x7AF54, size: 0x8, addend: 0x0, symName: __ZNSt3__117__compressed_pairIPjRNS_9allocatorIjEEEC2B7v160006IDnS4_EEOT_OT0_, symObjAddr: 0x175CC, symBinAddr: 0x100019E04, symSize: 0x48 }
  - { offsetInCU: 0x7AFAC, offset: 0x7AFAC, size: 0x8, addend: 0x0, symName: __ZNSt3__122__compressed_pair_elemIRNS_9allocatorIjEELi1ELb0EEC2B7v160006IS3_vEEOT_, symObjAddr: 0x17614, symBinAddr: 0x100019E4C, symSize: 0x20 }
  - { offsetInCU: 0x7AFEE, offset: 0x7AFEE, size: 0x8, addend: 0x0, symName: __ZNSt3__19allocatorIjE8allocateB7v160006Em, symObjAddr: 0x17634, symBinAddr: 0x100019E6C, symSize: 0x58 }
  - { offsetInCU: 0x7B022, offset: 0x7B022, size: 0x8, addend: 0x0, symName: __ZNSt3__117__compressed_pairIPjRNS_9allocatorIjEEE6secondB7v160006Ev, symObjAddr: 0x1768C, symBinAddr: 0x100019EC4, symSize: 0x28 }
  - { offsetInCU: 0x7B048, offset: 0x7B048, size: 0x8, addend: 0x0, symName: __ZNSt3__122__compressed_pair_elemIRNS_9allocatorIjEELi1ELb0EE5__getB7v160006Ev, symObjAddr: 0x176B4, symBinAddr: 0x100019EEC, symSize: 0x18 }
  - { offsetInCU: 0x7B06E, offset: 0x7B06E, size: 0x8, addend: 0x0, symName: __ZNSt3__117__compressed_pairIPjRNS_9allocatorIjEEE5firstB7v160006Ev, symObjAddr: 0x176CC, symBinAddr: 0x100019F04, symSize: 0x24 }
  - { offsetInCU: 0x7B094, offset: 0x7B094, size: 0x8, addend: 0x0, symName: __ZNKSt3__16vectorIjNS_9allocatorIjEEE17__annotate_deleteB7v160006Ev, symObjAddr: 0x176F0, symBinAddr: 0x100019F28, symSize: 0xB8 }
  - { offsetInCU: 0x7B0BA, offset: 0x7B0BA, size: 0x8, addend: 0x0, symName: __ZNSt3__116reverse_iteratorIPjEC1B7v160006ES1_, symObjAddr: 0x17820, symBinAddr: 0x10001A058, symSize: 0x34 }
  - { offsetInCU: 0x7B0F2, offset: 0x7B0F2, size: 0x8, addend: 0x0, symName: __ZNKSt3__116reverse_iteratorIPjE4baseB7v160006Ev, symObjAddr: 0x17854, symBinAddr: 0x10001A08C, symSize: 0x18 }
  - { offsetInCU: 0x7B118, offset: 0x7B118, size: 0x8, addend: 0x0, symName: __ZNKSt3__16vectorIjNS_9allocatorIjEEE14__annotate_newB7v160006Em, symObjAddr: 0x178A8, symBinAddr: 0x10001A0E0, symSize: 0xAC }
  - { offsetInCU: 0x7B14D, offset: 0x7B14D, size: 0x8, addend: 0x0, symName: __ZNKSt3__16vectorIjNS_9allocatorIjEEE31__annotate_contiguous_containerB7v160006EPKvS5_S5_S5_, symObjAddr: 0x17964, symBinAddr: 0x10001A19C, symSize: 0x20 }
  - { offsetInCU: 0x7B1A3, offset: 0x7B1A3, size: 0x8, addend: 0x0, symName: __ZNKSt3__16vectorIjNS_9allocatorIjEEE4dataB7v160006Ev, symObjAddr: 0x17984, symBinAddr: 0x10001A1BC, symSize: 0x28 }
  - { offsetInCU: 0x7B1ED, offset: 0x7B1ED, size: 0x8, addend: 0x0, symName: __ZNKSt3__111__move_loopINS_17_ClassicAlgPolicyEEclB7v160006INS_16reverse_iteratorIPjEES6_S6_EENS_4pairIT_T1_EES8_T0_S9_, symObjAddr: 0x17C9C, symBinAddr: 0x10001A4D4, symSize: 0xA0 }
  - { offsetInCU: 0x7B258, offset: 0x7B258, size: 0x8, addend: 0x0, symName: __ZNSt3__18_IterOpsINS_17_ClassicAlgPolicyEE11__iter_moveB7v160006IRNS_16reverse_iteratorIPjEEEENS_9enable_ifIXsr12is_referenceIDTdeclsr3stdE7declvalIRT_EEEEE5valueEDTclsr3stdE4movedeclsr3stdE7declvalISA_EEEEE4typeEOS9_, symObjAddr: 0x17ED0, symBinAddr: 0x10001A708, symSize: 0x28 }
  - { offsetInCU: 0x7B284, offset: 0x7B284, size: 0x8, addend: 0x0, symName: __ZNKSt3__116reverse_iteratorIPjEdeB7v160006Ev, symObjAddr: 0x17EF8, symBinAddr: 0x10001A730, symSize: 0x28 }
  - { offsetInCU: 0x7B2B8, offset: 0x7B2B8, size: 0x8, addend: 0x0, symName: __ZNSt3__116reverse_iteratorIPjEppB7v160006Ev, symObjAddr: 0x17F20, symBinAddr: 0x10001A758, symSize: 0x20 }
  - { offsetInCU: 0x7B2DE, offset: 0x7B2DE, size: 0x8, addend: 0x0, symName: __ZNSt3__18_IterOpsINS_17_ClassicAlgPolicyEE25__validate_iter_referenceB7v160006IRNS_16reverse_iteratorIPjEEEEvv, symObjAddr: 0x17F40, symBinAddr: 0x10001A778, symSize: 0x4 }
  - { offsetInCU: 0x7B2FC, offset: 0x7B2FC, size: 0x8, addend: 0x0, symName: __ZNSt3__118__unwrap_iter_implINS_16reverse_iteratorIPjEELb0EE8__unwrapB7v160006ES3_, symObjAddr: 0x17F44, symBinAddr: 0x10001A77C, symSize: 0x24 }
  - { offsetInCU: 0x7B325, offset: 0x7B325, size: 0x8, addend: 0x0, symName: __ZNSt3__14pairINS_16reverse_iteratorIPjEES3_EC1B7v160006IS3_S3_LPv0EEEOT_OT0_, symObjAddr: 0x17F68, symBinAddr: 0x10001A7A0, symSize: 0x3C }
  - { offsetInCU: 0x7B383, offset: 0x7B383, size: 0x8, addend: 0x0, symName: __ZNSt3__14pairINS_16reverse_iteratorIPjEES3_EC2B7v160006IS3_S3_LPv0EEEOT_OT0_, symObjAddr: 0x17FA4, symBinAddr: 0x10001A7DC, symSize: 0x34 }
  - { offsetInCU: 0x7B3E1, offset: 0x7B3E1, size: 0x8, addend: 0x0, symName: __ZNSt3__118__unwrap_iter_implINS_16reverse_iteratorIPjEELb0EE8__rewrapB7v160006ES3_S3_, symObjAddr: 0x17FD8, symBinAddr: 0x10001A810, symSize: 0x2C }
  - { offsetInCU: 0x7B40F, offset: 0x7B40F, size: 0x8, addend: 0x0, symName: __ZNSt3__116reverse_iteratorIPjEC2B7v160006ES1_, symObjAddr: 0x18004, symBinAddr: 0x10001A83C, symSize: 0x28 }
  - { offsetInCU: 0x7B447, offset: 0x7B447, size: 0x8, addend: 0x0, symName: __ZNSt3__114__split_bufferIjRNS_9allocatorIjEEED2Ev, symObjAddr: 0x1802C, symBinAddr: 0x10001A864, symSize: 0x8C }
  - { offsetInCU: 0x7B473, offset: 0x7B473, size: 0x8, addend: 0x0, symName: __ZNSt3__114__split_bufferIjRNS_9allocatorIjEEE5clearB7v160006Ev, symObjAddr: 0x180B8, symBinAddr: 0x10001A8F0, symSize: 0x28 }
  - { offsetInCU: 0x7B499, offset: 0x7B499, size: 0x8, addend: 0x0, symName: __ZNSt3__116allocator_traitsINS_9allocatorIjEEE10deallocateB7v160006ERS2_Pjm, symObjAddr: 0x180E0, symBinAddr: 0x10001A918, symSize: 0x34 }
  - { offsetInCU: 0x7B4DB, offset: 0x7B4DB, size: 0x8, addend: 0x0, symName: __ZNKSt3__114__split_bufferIjRNS_9allocatorIjEEE8capacityB7v160006Ev, symObjAddr: 0x18114, symBinAddr: 0x10001A94C, symSize: 0x40 }
  - { offsetInCU: 0x7B501, offset: 0x7B501, size: 0x8, addend: 0x0, symName: __ZNSt3__114__split_bufferIjRNS_9allocatorIjEEE17__destruct_at_endB7v160006EPj, symObjAddr: 0x18154, symBinAddr: 0x10001A98C, symSize: 0x2C }
  - { offsetInCU: 0x7B535, offset: 0x7B535, size: 0x8, addend: 0x0, symName: __ZNSt3__114__split_bufferIjRNS_9allocatorIjEEE17__destruct_at_endB7v160006EPjNS_17integral_constantIbLb0EEE, symObjAddr: 0x18180, symBinAddr: 0x10001A9B8, symSize: 0x80 }
  - { offsetInCU: 0x7B576, offset: 0x7B576, size: 0x8, addend: 0x0, symName: __ZNSt3__116allocator_traitsINS_9allocatorIjEEE7destroyB7v160006IjvEEvRS2_PT_, symObjAddr: 0x18200, symBinAddr: 0x10001AA38, symSize: 0x2C }
  - { offsetInCU: 0x7B5B3, offset: 0x7B5B3, size: 0x8, addend: 0x0, symName: __ZNSt3__19allocatorIjE7destroyB7v160006EPj, symObjAddr: 0x1822C, symBinAddr: 0x10001AA64, symSize: 0x14 }
  - { offsetInCU: 0x7B5E7, offset: 0x7B5E7, size: 0x8, addend: 0x0, symName: __ZNSt3__19allocatorIjE10deallocateB7v160006EPjm, symObjAddr: 0x18240, symBinAddr: 0x10001AA78, symSize: 0x40 }
  - { offsetInCU: 0x7B629, offset: 0x7B629, size: 0x8, addend: 0x0, symName: __ZNKSt3__114__split_bufferIjRNS_9allocatorIjEEE9__end_capB7v160006Ev, symObjAddr: 0x18280, symBinAddr: 0x10001AAB8, symSize: 0x28 }
  - { offsetInCU: 0x7B64F, offset: 0x7B64F, size: 0x8, addend: 0x0, symName: __ZNKSt3__117__compressed_pairIPjRNS_9allocatorIjEEE5firstB7v160006Ev, symObjAddr: 0x182A8, symBinAddr: 0x10001AAE0, symSize: 0x24 }
  - { offsetInCU: 0x7B675, offset: 0x7B675, size: 0x8, addend: 0x0, symName: __ZNSt3__16vectorIiNS_9allocatorIiEEE9__end_capB7v160006Ev, symObjAddr: 0x182CC, symBinAddr: 0x10001AB04, symSize: 0x28 }
  - { offsetInCU: 0x7B69B, offset: 0x7B69B, size: 0x8, addend: 0x0, symName: __ZNSt3__16vectorIiNS_9allocatorIiEEE22__construct_one_at_endB7v160006IJRKiEEEvDpOT_, symObjAddr: 0x182F4, symBinAddr: 0x10001AB2C, symSize: 0x90 }
  - { offsetInCU: 0x7B6EA, offset: 0x7B6EA, size: 0x8, addend: 0x0, symName: __ZNSt3__16vectorIiNS_9allocatorIiEEE21__push_back_slow_pathIRKiEEvOT_, symObjAddr: 0x18384, symBinAddr: 0x10001ABBC, symSize: 0xD8 }
  - { offsetInCU: 0x7B748, offset: 0x7B748, size: 0x8, addend: 0x0, symName: __ZNSt3__117__compressed_pairIPiNS_9allocatorIiEEE5firstB7v160006Ev, symObjAddr: 0x1845C, symBinAddr: 0x10001AC94, symSize: 0x24 }
  - { offsetInCU: 0x7B76E, offset: 0x7B76E, size: 0x8, addend: 0x0, symName: __ZNSt3__122__compressed_pair_elemIPiLi0ELb0EE5__getB7v160006Ev, symObjAddr: 0x18480, symBinAddr: 0x10001ACB8, symSize: 0x14 }
  - { offsetInCU: 0x7B7AD, offset: 0x7B7AD, size: 0x8, addend: 0x0, symName: __ZNSt3__16vectorIiNS_9allocatorIiEEE21_ConstructTransactionC1B7v160006ERS3_m, symObjAddr: 0x18494, symBinAddr: 0x10001ACCC, symSize: 0x3C }
  - { offsetInCU: 0x7B7F5, offset: 0x7B7F5, size: 0x8, addend: 0x0, symName: __ZNSt3__116allocator_traitsINS_9allocatorIiEEE9constructB7v160006IiJRKiEvEEvRS2_PT_DpOT0_, symObjAddr: 0x184D0, symBinAddr: 0x10001AD08, symSize: 0x34 }
  - { offsetInCU: 0x7B84C, offset: 0x7B84C, size: 0x8, addend: 0x0, symName: __ZNSt3__16vectorIiNS_9allocatorIiEEE7__allocB7v160006Ev, symObjAddr: 0x18504, symBinAddr: 0x10001AD3C, symSize: 0x28 }
  - { offsetInCU: 0x7B872, offset: 0x7B872, size: 0x8, addend: 0x0, symName: __ZNSt3__16vectorIiNS_9allocatorIiEEE21_ConstructTransactionD1B7v160006Ev, symObjAddr: 0x18540, symBinAddr: 0x10001AD78, symSize: 0x2C }
  - { offsetInCU: 0x7B89C, offset: 0x7B89C, size: 0x8, addend: 0x0, symName: __ZNSt3__16vectorIiNS_9allocatorIiEEE21_ConstructTransactionC2B7v160006ERS3_m, symObjAddr: 0x1856C, symBinAddr: 0x10001ADA4, symSize: 0x44 }
  - { offsetInCU: 0x7B8E4, offset: 0x7B8E4, size: 0x8, addend: 0x0, symName: __ZNSt3__19allocatorIiE9constructB7v160006IiJRKiEEEvPT_DpOT0_, symObjAddr: 0x185B0, symBinAddr: 0x10001ADE8, symSize: 0x28 }
  - { offsetInCU: 0x7B93A, offset: 0x7B93A, size: 0x8, addend: 0x0, symName: __ZNSt3__117__compressed_pairIPiNS_9allocatorIiEEE6secondB7v160006Ev, symObjAddr: 0x185D8, symBinAddr: 0x10001AE10, symSize: 0x24 }
  - { offsetInCU: 0x7B960, offset: 0x7B960, size: 0x8, addend: 0x0, symName: __ZNSt3__122__compressed_pair_elemINS_9allocatorIiEELi1ELb1EE5__getB7v160006Ev, symObjAddr: 0x185FC, symBinAddr: 0x10001AE34, symSize: 0x14 }
  - { offsetInCU: 0x7B986, offset: 0x7B986, size: 0x8, addend: 0x0, symName: __ZNSt3__16vectorIiNS_9allocatorIiEEE21_ConstructTransactionD2B7v160006Ev, symObjAddr: 0x18610, symBinAddr: 0x10001AE48, symSize: 0x20 }
  - { offsetInCU: 0x7B9B0, offset: 0x7B9B0, size: 0x8, addend: 0x0, symName: __ZNKSt3__16vectorIiNS_9allocatorIiEEE11__recommendB7v160006Em, symObjAddr: 0x18630, symBinAddr: 0x10001AE68, symSize: 0xB4 }
  - { offsetInCU: 0x7BA05, offset: 0x7BA05, size: 0x8, addend: 0x0, symName: __ZNKSt3__16vectorIiNS_9allocatorIiEEE4sizeB7v160006Ev, symObjAddr: 0x186E4, symBinAddr: 0x10001AF1C, symSize: 0x28 }
  - { offsetInCU: 0x7BA2B, offset: 0x7BA2B, size: 0x8, addend: 0x0, symName: __ZNSt3__114__split_bufferIiRNS_9allocatorIiEEEC1EmmS3_, symObjAddr: 0x1870C, symBinAddr: 0x10001AF44, symSize: 0x44 }
  - { offsetInCU: 0x7BA81, offset: 0x7BA81, size: 0x8, addend: 0x0, symName: __ZNSt3__114__split_bufferIiRNS_9allocatorIiEEED1Ev, symObjAddr: 0x18868, symBinAddr: 0x10001B0A0, symSize: 0x2C }
  - { offsetInCU: 0x7BAAD, offset: 0x7BAAD, size: 0x8, addend: 0x0, symName: __ZNKSt3__16vectorIiNS_9allocatorIiEEE8max_sizeEv, symObjAddr: 0x18894, symBinAddr: 0x10001B0CC, symSize: 0x60 }
  - { offsetInCU: 0x7BAD5, offset: 0x7BAD5, size: 0x8, addend: 0x0, symName: __ZNKSt3__16vectorIiNS_9allocatorIiEEE20__throw_length_errorB7v160006Ev, symObjAddr: 0x188F4, symBinAddr: 0x10001B12C, symSize: 0x1C }
  - { offsetInCU: 0x7BAFB, offset: 0x7BAFB, size: 0x8, addend: 0x0, symName: __ZNKSt3__16vectorIiNS_9allocatorIiEEE8capacityB7v160006Ev, symObjAddr: 0x18910, symBinAddr: 0x10001B148, symSize: 0x40 }
  - { offsetInCU: 0x7BB2B, offset: 0x7BB2B, size: 0x8, addend: 0x0, symName: __ZNSt3__116allocator_traitsINS_9allocatorIiEEE8max_sizeB7v160006IS2_vEEmRKS2_, symObjAddr: 0x18950, symBinAddr: 0x10001B188, symSize: 0x24 }
  - { offsetInCU: 0x7BB59, offset: 0x7BB59, size: 0x8, addend: 0x0, symName: __ZNKSt3__16vectorIiNS_9allocatorIiEEE7__allocB7v160006Ev, symObjAddr: 0x18974, symBinAddr: 0x10001B1AC, symSize: 0x28 }
  - { offsetInCU: 0x7BB7F, offset: 0x7BB7F, size: 0x8, addend: 0x0, symName: __ZNKSt3__19allocatorIiE8max_sizeB7v160006Ev, symObjAddr: 0x1899C, symBinAddr: 0x10001B1D4, symSize: 0x14 }
  - { offsetInCU: 0x7BBA5, offset: 0x7BBA5, size: 0x8, addend: 0x0, symName: __ZNKSt3__117__compressed_pairIPiNS_9allocatorIiEEE6secondB7v160006Ev, symObjAddr: 0x189B0, symBinAddr: 0x10001B1E8, symSize: 0x24 }
  - { offsetInCU: 0x7BBCB, offset: 0x7BBCB, size: 0x8, addend: 0x0, symName: __ZNKSt3__122__compressed_pair_elemINS_9allocatorIiEELi1ELb1EE5__getB7v160006Ev, symObjAddr: 0x189D4, symBinAddr: 0x10001B20C, symSize: 0x14 }
  - { offsetInCU: 0x7BBF1, offset: 0x7BBF1, size: 0x8, addend: 0x0, symName: __ZNKSt3__16vectorIiNS_9allocatorIiEEE9__end_capB7v160006Ev, symObjAddr: 0x189E8, symBinAddr: 0x10001B220, symSize: 0x28 }
  - { offsetInCU: 0x7BC17, offset: 0x7BC17, size: 0x8, addend: 0x0, symName: __ZNKSt3__117__compressed_pairIPiNS_9allocatorIiEEE5firstB7v160006Ev, symObjAddr: 0x18A10, symBinAddr: 0x10001B248, symSize: 0x24 }
  - { offsetInCU: 0x7BC3D, offset: 0x7BC3D, size: 0x8, addend: 0x0, symName: __ZNKSt3__122__compressed_pair_elemIPiLi0ELb0EE5__getB7v160006Ev, symObjAddr: 0x18A34, symBinAddr: 0x10001B26C, symSize: 0x14 }
  - { offsetInCU: 0x7BC63, offset: 0x7BC63, size: 0x8, addend: 0x0, symName: __ZNSt3__114__split_bufferIiRNS_9allocatorIiEEEC2EmmS3_, symObjAddr: 0x18A48, symBinAddr: 0x10001B280, symSize: 0xD4 }
  - { offsetInCU: 0x7BCD6, offset: 0x7BCD6, size: 0x8, addend: 0x0, symName: __ZNSt3__117__compressed_pairIPiRNS_9allocatorIiEEEC1B7v160006IDnS4_EEOT_OT0_, symObjAddr: 0x18B1C, symBinAddr: 0x10001B354, symSize: 0x3C }
  - { offsetInCU: 0x7BD2E, offset: 0x7BD2E, size: 0x8, addend: 0x0, symName: __ZNSt3__114__split_bufferIiRNS_9allocatorIiEEE7__allocB7v160006Ev, symObjAddr: 0x18B98, symBinAddr: 0x10001B3D0, symSize: 0x28 }
  - { offsetInCU: 0x7BD54, offset: 0x7BD54, size: 0x8, addend: 0x0, symName: __ZNSt3__114__split_bufferIiRNS_9allocatorIiEEE9__end_capB7v160006Ev, symObjAddr: 0x18BC0, symBinAddr: 0x10001B3F8, symSize: 0x28 }
  - { offsetInCU: 0x7BD7A, offset: 0x7BD7A, size: 0x8, addend: 0x0, symName: __ZNSt3__117__compressed_pairIPiRNS_9allocatorIiEEEC2B7v160006IDnS4_EEOT_OT0_, symObjAddr: 0x18BE8, symBinAddr: 0x10001B420, symSize: 0x48 }
  - { offsetInCU: 0x7BDD2, offset: 0x7BDD2, size: 0x8, addend: 0x0, symName: __ZNSt3__122__compressed_pair_elemIRNS_9allocatorIiEELi1ELb0EEC2B7v160006IS3_vEEOT_, symObjAddr: 0x18C30, symBinAddr: 0x10001B468, symSize: 0x20 }
  - { offsetInCU: 0x7BE14, offset: 0x7BE14, size: 0x8, addend: 0x0, symName: __ZNSt3__19allocatorIiE8allocateB7v160006Em, symObjAddr: 0x18C50, symBinAddr: 0x10001B488, symSize: 0x58 }
  - { offsetInCU: 0x7BE48, offset: 0x7BE48, size: 0x8, addend: 0x0, symName: __ZNSt3__117__compressed_pairIPiRNS_9allocatorIiEEE6secondB7v160006Ev, symObjAddr: 0x18CA8, symBinAddr: 0x10001B4E0, symSize: 0x28 }
  - { offsetInCU: 0x7BE6E, offset: 0x7BE6E, size: 0x8, addend: 0x0, symName: __ZNSt3__122__compressed_pair_elemIRNS_9allocatorIiEELi1ELb0EE5__getB7v160006Ev, symObjAddr: 0x18CD0, symBinAddr: 0x10001B508, symSize: 0x18 }
  - { offsetInCU: 0x7BE94, offset: 0x7BE94, size: 0x8, addend: 0x0, symName: __ZNSt3__117__compressed_pairIPiRNS_9allocatorIiEEE5firstB7v160006Ev, symObjAddr: 0x18CE8, symBinAddr: 0x10001B520, symSize: 0x24 }
  - { offsetInCU: 0x7BEBA, offset: 0x7BEBA, size: 0x8, addend: 0x0, symName: __ZNKSt3__16vectorIiNS_9allocatorIiEEE17__annotate_deleteB7v160006Ev, symObjAddr: 0x18D0C, symBinAddr: 0x10001B544, symSize: 0xB8 }
  - { offsetInCU: 0x7BEE0, offset: 0x7BEE0, size: 0x8, addend: 0x0, symName: __ZNSt3__116reverse_iteratorIPiEC1B7v160006ES1_, symObjAddr: 0x18E3C, symBinAddr: 0x10001B674, symSize: 0x34 }
  - { offsetInCU: 0x7BF18, offset: 0x7BF18, size: 0x8, addend: 0x0, symName: __ZNKSt3__116reverse_iteratorIPiE4baseB7v160006Ev, symObjAddr: 0x18E70, symBinAddr: 0x10001B6A8, symSize: 0x18 }
  - { offsetInCU: 0x7BF3E, offset: 0x7BF3E, size: 0x8, addend: 0x0, symName: __ZNKSt3__16vectorIiNS_9allocatorIiEEE14__annotate_newB7v160006Em, symObjAddr: 0x18EC4, symBinAddr: 0x10001B6FC, symSize: 0xAC }
  - { offsetInCU: 0x7BF73, offset: 0x7BF73, size: 0x8, addend: 0x0, symName: __ZNKSt3__16vectorIiNS_9allocatorIiEEE31__annotate_contiguous_containerB7v160006EPKvS5_S5_S5_, symObjAddr: 0x18F80, symBinAddr: 0x10001B7B8, symSize: 0x20 }
  - { offsetInCU: 0x7BFC9, offset: 0x7BFC9, size: 0x8, addend: 0x0, symName: __ZNKSt3__16vectorIiNS_9allocatorIiEEE4dataB7v160006Ev, symObjAddr: 0x18FA0, symBinAddr: 0x10001B7D8, symSize: 0x28 }
  - { offsetInCU: 0x7C009, offset: 0x7C009, size: 0x8, addend: 0x0, symName: __ZNKSt3__111__move_loopINS_17_ClassicAlgPolicyEEclB7v160006INS_16reverse_iteratorIPiEES6_S6_EENS_4pairIT_T1_EES8_T0_S9_, symObjAddr: 0x192B8, symBinAddr: 0x10001BAF0, symSize: 0xA0 }
  - { offsetInCU: 0x7C074, offset: 0x7C074, size: 0x8, addend: 0x0, symName: __ZNSt3__18_IterOpsINS_17_ClassicAlgPolicyEE11__iter_moveB7v160006IRNS_16reverse_iteratorIPiEEEENS_9enable_ifIXsr12is_referenceIDTdeclsr3stdE7declvalIRT_EEEEE5valueEDTclsr3stdE4movedeclsr3stdE7declvalISA_EEEEE4typeEOS9_, symObjAddr: 0x194EC, symBinAddr: 0x10001BD24, symSize: 0x28 }
  - { offsetInCU: 0x7C0A0, offset: 0x7C0A0, size: 0x8, addend: 0x0, symName: __ZNKSt3__116reverse_iteratorIPiEdeB7v160006Ev, symObjAddr: 0x19514, symBinAddr: 0x10001BD4C, symSize: 0x28 }
  - { offsetInCU: 0x7C0D4, offset: 0x7C0D4, size: 0x8, addend: 0x0, symName: __ZNSt3__116reverse_iteratorIPiEppB7v160006Ev, symObjAddr: 0x1953C, symBinAddr: 0x10001BD74, symSize: 0x20 }
  - { offsetInCU: 0x7C0FA, offset: 0x7C0FA, size: 0x8, addend: 0x0, symName: __ZNSt3__18_IterOpsINS_17_ClassicAlgPolicyEE25__validate_iter_referenceB7v160006IRNS_16reverse_iteratorIPiEEEEvv, symObjAddr: 0x1955C, symBinAddr: 0x10001BD94, symSize: 0x4 }
  - { offsetInCU: 0x7C118, offset: 0x7C118, size: 0x8, addend: 0x0, symName: __ZNSt3__118__unwrap_iter_implINS_16reverse_iteratorIPiEELb0EE8__unwrapB7v160006ES3_, symObjAddr: 0x19560, symBinAddr: 0x10001BD98, symSize: 0x24 }
  - { offsetInCU: 0x7C141, offset: 0x7C141, size: 0x8, addend: 0x0, symName: __ZNSt3__14pairINS_16reverse_iteratorIPiEES3_EC1B7v160006IS3_S3_LPv0EEEOT_OT0_, symObjAddr: 0x19584, symBinAddr: 0x10001BDBC, symSize: 0x3C }
  - { offsetInCU: 0x7C19F, offset: 0x7C19F, size: 0x8, addend: 0x0, symName: __ZNSt3__14pairINS_16reverse_iteratorIPiEES3_EC2B7v160006IS3_S3_LPv0EEEOT_OT0_, symObjAddr: 0x195C0, symBinAddr: 0x10001BDF8, symSize: 0x34 }
  - { offsetInCU: 0x7C1FD, offset: 0x7C1FD, size: 0x8, addend: 0x0, symName: __ZNSt3__118__unwrap_iter_implINS_16reverse_iteratorIPiEELb0EE8__rewrapB7v160006ES3_S3_, symObjAddr: 0x195F4, symBinAddr: 0x10001BE2C, symSize: 0x2C }
  - { offsetInCU: 0x7C22B, offset: 0x7C22B, size: 0x8, addend: 0x0, symName: __ZNSt3__116reverse_iteratorIPiEC2B7v160006ES1_, symObjAddr: 0x19620, symBinAddr: 0x10001BE58, symSize: 0x28 }
  - { offsetInCU: 0x7C263, offset: 0x7C263, size: 0x8, addend: 0x0, symName: __ZNSt3__114__split_bufferIiRNS_9allocatorIiEEED2Ev, symObjAddr: 0x19648, symBinAddr: 0x10001BE80, symSize: 0x8C }
  - { offsetInCU: 0x7C28F, offset: 0x7C28F, size: 0x8, addend: 0x0, symName: __ZNSt3__114__split_bufferIiRNS_9allocatorIiEEE5clearB7v160006Ev, symObjAddr: 0x196D4, symBinAddr: 0x10001BF0C, symSize: 0x28 }
  - { offsetInCU: 0x7C2B5, offset: 0x7C2B5, size: 0x8, addend: 0x0, symName: __ZNSt3__116allocator_traitsINS_9allocatorIiEEE10deallocateB7v160006ERS2_Pim, symObjAddr: 0x196FC, symBinAddr: 0x10001BF34, symSize: 0x34 }
  - { offsetInCU: 0x7C2F7, offset: 0x7C2F7, size: 0x8, addend: 0x0, symName: __ZNKSt3__114__split_bufferIiRNS_9allocatorIiEEE8capacityB7v160006Ev, symObjAddr: 0x19730, symBinAddr: 0x10001BF68, symSize: 0x40 }
  - { offsetInCU: 0x7C31D, offset: 0x7C31D, size: 0x8, addend: 0x0, symName: __ZNSt3__114__split_bufferIiRNS_9allocatorIiEEE17__destruct_at_endB7v160006EPi, symObjAddr: 0x19770, symBinAddr: 0x10001BFA8, symSize: 0x2C }
  - { offsetInCU: 0x7C351, offset: 0x7C351, size: 0x8, addend: 0x0, symName: __ZNSt3__114__split_bufferIiRNS_9allocatorIiEEE17__destruct_at_endB7v160006EPiNS_17integral_constantIbLb0EEE, symObjAddr: 0x1979C, symBinAddr: 0x10001BFD4, symSize: 0x80 }
  - { offsetInCU: 0x7C392, offset: 0x7C392, size: 0x8, addend: 0x0, symName: __ZNSt3__116allocator_traitsINS_9allocatorIiEEE7destroyB7v160006IivEEvRS2_PT_, symObjAddr: 0x1981C, symBinAddr: 0x10001C054, symSize: 0x2C }
  - { offsetInCU: 0x7C3CF, offset: 0x7C3CF, size: 0x8, addend: 0x0, symName: __ZNSt3__19allocatorIiE7destroyB7v160006EPi, symObjAddr: 0x19848, symBinAddr: 0x10001C080, symSize: 0x14 }
  - { offsetInCU: 0x7C403, offset: 0x7C403, size: 0x8, addend: 0x0, symName: __ZNSt3__19allocatorIiE10deallocateB7v160006EPim, symObjAddr: 0x1985C, symBinAddr: 0x10001C094, symSize: 0x40 }
  - { offsetInCU: 0x7C445, offset: 0x7C445, size: 0x8, addend: 0x0, symName: __ZNKSt3__114__split_bufferIiRNS_9allocatorIiEEE9__end_capB7v160006Ev, symObjAddr: 0x1989C, symBinAddr: 0x10001C0D4, symSize: 0x28 }
  - { offsetInCU: 0x7C46B, offset: 0x7C46B, size: 0x8, addend: 0x0, symName: __ZNKSt3__117__compressed_pairIPiRNS_9allocatorIiEEE5firstB7v160006Ev, symObjAddr: 0x198C4, symBinAddr: 0x10001C0FC, symSize: 0x24 }
  - { offsetInCU: 0x7C491, offset: 0x7C491, size: 0x8, addend: 0x0, symName: __ZNSt3__16vectorIjNS_9allocatorIjEEE22__construct_one_at_endB7v160006IJRKjEEEvDpOT_, symObjAddr: 0x198E8, symBinAddr: 0x10001C120, symSize: 0x90 }
  - { offsetInCU: 0x7C4E0, offset: 0x7C4E0, size: 0x8, addend: 0x0, symName: __ZNSt3__16vectorIjNS_9allocatorIjEEE21__push_back_slow_pathIRKjEEvOT_, symObjAddr: 0x19978, symBinAddr: 0x10001C1B0, symSize: 0xD8 }
  - { offsetInCU: 0x7C53E, offset: 0x7C53E, size: 0x8, addend: 0x0, symName: __ZNSt3__116allocator_traitsINS_9allocatorIjEEE9constructB7v160006IjJRKjEvEEvRS2_PT_DpOT0_, symObjAddr: 0x19A50, symBinAddr: 0x10001C288, symSize: 0x34 }
  - { offsetInCU: 0x7C595, offset: 0x7C595, size: 0x8, addend: 0x0, symName: __ZNSt3__19allocatorIjE9constructB7v160006IjJRKjEEEvPT_DpOT0_, symObjAddr: 0x19A84, symBinAddr: 0x10001C2BC, symSize: 0x28 }
  - { offsetInCU: 0x7C5EB, offset: 0x7C5EB, size: 0x8, addend: 0x0, symName: __ZN7tinyobj12TinyObjPointC2Ev, symObjAddr: 0x19AAC, symBinAddr: 0x10001C2E4, symSize: 0x24 }
  - { offsetInCU: 0x7C615, offset: 0x7C615, size: 0x8, addend: 0x0, symName: __ZN7tinyobj12TinyObjPointC2Efff, symObjAddr: 0x19AD0, symBinAddr: 0x10001C308, symSize: 0x38 }
  - { offsetInCU: 0x7C66C, offset: 0x7C66C, size: 0x8, addend: 0x0, symName: __ZNSt3__16vectorINS0_INS_5arrayIfLm2EEENS_9allocatorIS2_EEEENS3_IS5_EEEC2B7v160006Ev, symObjAddr: 0x19B08, symBinAddr: 0x10001C340, symSize: 0x58 }
  - { offsetInCU: 0x7C696, offset: 0x7C696, size: 0x8, addend: 0x0, symName: __ZNSt3__117__compressed_pairIPNS_6vectorINS_5arrayIfLm2EEENS_9allocatorIS3_EEEENS4_IS6_EEEC1B7v160006IDnNS_18__default_init_tagEEEOT_OT0_, symObjAddr: 0x19B60, symBinAddr: 0x10001C398, symSize: 0x3C }
  - { offsetInCU: 0x7C6EE, offset: 0x7C6EE, size: 0x8, addend: 0x0, symName: __ZNSt3__117__compressed_pairIPNS_6vectorINS_5arrayIfLm2EEENS_9allocatorIS3_EEEENS4_IS6_EEEC2B7v160006IDnNS_18__default_init_tagEEEOT_OT0_, symObjAddr: 0x19BAC, symBinAddr: 0x10001C3E4, symSize: 0x40 }
  - { offsetInCU: 0x7C746, offset: 0x7C746, size: 0x8, addend: 0x0, symName: __ZNSt3__122__compressed_pair_elemIPNS_6vectorINS_5arrayIfLm2EEENS_9allocatorIS3_EEEELi0ELb0EEC2B7v160006IDnvEEOT_, symObjAddr: 0x19BEC, symBinAddr: 0x10001C424, symSize: 0x1C }
  - { offsetInCU: 0x7C788, offset: 0x7C788, size: 0x8, addend: 0x0, symName: __ZNSt3__122__compressed_pair_elemINS_9allocatorINS_6vectorINS_5arrayIfLm2EEENS1_IS4_EEEEEELi1ELb1EEC2B7v160006ENS_18__default_init_tagE, symObjAddr: 0x19C08, symBinAddr: 0x10001C440, symSize: 0x2C }
  - { offsetInCU: 0x7C7BD, offset: 0x7C7BD, size: 0x8, addend: 0x0, symName: __ZNSt3__19allocatorINS_6vectorINS_5arrayIfLm2EEENS0_IS3_EEEEEC2B7v160006Ev, symObjAddr: 0x19C34, symBinAddr: 0x10001C46C, symSize: 0x2C }
  - { offsetInCU: 0x7C7E7, offset: 0x7C7E7, size: 0x8, addend: 0x0, symName: __ZNSt3__116__non_trivial_ifILb1ENS_9allocatorINS_6vectorINS_5arrayIfLm2EEENS1_IS4_EEEEEEEC2B7v160006Ev, symObjAddr: 0x19C60, symBinAddr: 0x10001C498, symSize: 0x14 }
  - { offsetInCU: 0x7C811, offset: 0x7C811, size: 0x8, addend: 0x0, symName: __ZNSt3__16vectorINS_5arrayIfLm2EEENS_9allocatorIS2_EEEC2B7v160006Ev, symObjAddr: 0x19C74, symBinAddr: 0x10001C4AC, symSize: 0x58 }
  - { offsetInCU: 0x7C83B, offset: 0x7C83B, size: 0x8, addend: 0x0, symName: __ZNSt3__117__compressed_pairIPNS_5arrayIfLm2EEENS_9allocatorIS2_EEEC1B7v160006IDnNS_18__default_init_tagEEEOT_OT0_, symObjAddr: 0x19CCC, symBinAddr: 0x10001C504, symSize: 0x3C }
  - { offsetInCU: 0x7C893, offset: 0x7C893, size: 0x8, addend: 0x0, symName: __ZNSt3__117__compressed_pairIPNS_5arrayIfLm2EEENS_9allocatorIS2_EEEC2B7v160006IDnNS_18__default_init_tagEEEOT_OT0_, symObjAddr: 0x19D18, symBinAddr: 0x10001C550, symSize: 0x40 }
  - { offsetInCU: 0x7C8EB, offset: 0x7C8EB, size: 0x8, addend: 0x0, symName: __ZNSt3__122__compressed_pair_elemIPNS_5arrayIfLm2EEELi0ELb0EEC2B7v160006IDnvEEOT_, symObjAddr: 0x19D58, symBinAddr: 0x10001C590, symSize: 0x1C }
  - { offsetInCU: 0x7C92D, offset: 0x7C92D, size: 0x8, addend: 0x0, symName: __ZNSt3__122__compressed_pair_elemINS_9allocatorINS_5arrayIfLm2EEEEELi1ELb1EEC2B7v160006ENS_18__default_init_tagE, symObjAddr: 0x19D74, symBinAddr: 0x10001C5AC, symSize: 0x2C }
  - { offsetInCU: 0x7C962, offset: 0x7C962, size: 0x8, addend: 0x0, symName: __ZNSt3__19allocatorINS_5arrayIfLm2EEEEC2B7v160006Ev, symObjAddr: 0x19DA0, symBinAddr: 0x10001C5D8, symSize: 0x2C }
  - { offsetInCU: 0x7C98C, offset: 0x7C98C, size: 0x8, addend: 0x0, symName: __ZNSt3__116__non_trivial_ifILb1ENS_9allocatorINS_5arrayIfLm2EEEEEEC2B7v160006Ev, symObjAddr: 0x19DCC, symBinAddr: 0x10001C604, symSize: 0x14 }
  - { offsetInCU: 0x7C9B6, offset: 0x7C9B6, size: 0x8, addend: 0x0, symName: __ZNSt3__16vectorINS_5arrayIfLm2EEENS_9allocatorIS2_EEE9__end_capB7v160006Ev, symObjAddr: 0x19E30, symBinAddr: 0x10001C668, symSize: 0x28 }
  - { offsetInCU: 0x7C9E2, offset: 0x7C9E2, size: 0x8, addend: 0x0, symName: __ZNSt3__16vectorINS_5arrayIfLm2EEENS_9allocatorIS2_EEE22__construct_one_at_endB7v160006IJS2_EEEvDpOT_, symObjAddr: 0x19E58, symBinAddr: 0x10001C690, symSize: 0x90 }
  - { offsetInCU: 0x7CA31, offset: 0x7CA31, size: 0x8, addend: 0x0, symName: __ZNSt3__16vectorINS_5arrayIfLm2EEENS_9allocatorIS2_EEE21__push_back_slow_pathIS2_EEvOT_, symObjAddr: 0x19EE8, symBinAddr: 0x10001C720, symSize: 0xD8 }
  - { offsetInCU: 0x7CA8F, offset: 0x7CA8F, size: 0x8, addend: 0x0, symName: __ZNSt3__117__compressed_pairIPNS_5arrayIfLm2EEENS_9allocatorIS2_EEE5firstB7v160006Ev, symObjAddr: 0x19FC0, symBinAddr: 0x10001C7F8, symSize: 0x24 }
  - { offsetInCU: 0x7CAB5, offset: 0x7CAB5, size: 0x8, addend: 0x0, symName: __ZNSt3__122__compressed_pair_elemIPNS_5arrayIfLm2EEELi0ELb0EE5__getB7v160006Ev, symObjAddr: 0x19FE4, symBinAddr: 0x10001C81C, symSize: 0x14 }
  - { offsetInCU: 0x7CAF4, offset: 0x7CAF4, size: 0x8, addend: 0x0, symName: __ZNSt3__16vectorINS_5arrayIfLm2EEENS_9allocatorIS2_EEE21_ConstructTransactionC1B7v160006ERS5_m, symObjAddr: 0x19FF8, symBinAddr: 0x10001C830, symSize: 0x3C }
  - { offsetInCU: 0x7CB3C, offset: 0x7CB3C, size: 0x8, addend: 0x0, symName: __ZNSt3__116allocator_traitsINS_9allocatorINS_5arrayIfLm2EEEEEE9constructB7v160006IS3_JS3_EvEEvRS4_PT_DpOT0_, symObjAddr: 0x1A034, symBinAddr: 0x10001C86C, symSize: 0x34 }
  - { offsetInCU: 0x7CB93, offset: 0x7CB93, size: 0x8, addend: 0x0, symName: __ZNSt3__16vectorINS_5arrayIfLm2EEENS_9allocatorIS2_EEE7__allocB7v160006Ev, symObjAddr: 0x1A068, symBinAddr: 0x10001C8A0, symSize: 0x28 }
  - { offsetInCU: 0x7CBB9, offset: 0x7CBB9, size: 0x8, addend: 0x0, symName: __ZNSt3__16vectorINS_5arrayIfLm2EEENS_9allocatorIS2_EEE21_ConstructTransactionD1B7v160006Ev, symObjAddr: 0x1A0A4, symBinAddr: 0x10001C8DC, symSize: 0x2C }
  - { offsetInCU: 0x7CBE3, offset: 0x7CBE3, size: 0x8, addend: 0x0, symName: __ZNSt3__16vectorINS_5arrayIfLm2EEENS_9allocatorIS2_EEE21_ConstructTransactionC2B7v160006ERS5_m, symObjAddr: 0x1A0D0, symBinAddr: 0x10001C908, symSize: 0x44 }
  - { offsetInCU: 0x7CC2B, offset: 0x7CC2B, size: 0x8, addend: 0x0, symName: __ZNSt3__19allocatorINS_5arrayIfLm2EEEE9constructB7v160006IS2_JS2_EEEvPT_DpOT0_, symObjAddr: 0x1A114, symBinAddr: 0x10001C94C, symSize: 0x28 }
  - { offsetInCU: 0x7CC81, offset: 0x7CC81, size: 0x8, addend: 0x0, symName: __ZNSt3__117__compressed_pairIPNS_5arrayIfLm2EEENS_9allocatorIS2_EEE6secondB7v160006Ev, symObjAddr: 0x1A13C, symBinAddr: 0x10001C974, symSize: 0x24 }
  - { offsetInCU: 0x7CCA7, offset: 0x7CCA7, size: 0x8, addend: 0x0, symName: __ZNSt3__122__compressed_pair_elemINS_9allocatorINS_5arrayIfLm2EEEEELi1ELb1EE5__getB7v160006Ev, symObjAddr: 0x1A160, symBinAddr: 0x10001C998, symSize: 0x14 }
  - { offsetInCU: 0x7CCCD, offset: 0x7CCCD, size: 0x8, addend: 0x0, symName: __ZNSt3__16vectorINS_5arrayIfLm2EEENS_9allocatorIS2_EEE21_ConstructTransactionD2B7v160006Ev, symObjAddr: 0x1A174, symBinAddr: 0x10001C9AC, symSize: 0x20 }
  - { offsetInCU: 0x7CCF7, offset: 0x7CCF7, size: 0x8, addend: 0x0, symName: __ZNKSt3__16vectorINS_5arrayIfLm2EEENS_9allocatorIS2_EEE11__recommendB7v160006Em, symObjAddr: 0x1A194, symBinAddr: 0x10001C9CC, symSize: 0xB4 }
  - { offsetInCU: 0x7CD4C, offset: 0x7CD4C, size: 0x8, addend: 0x0, symName: __ZNKSt3__16vectorINS_5arrayIfLm2EEENS_9allocatorIS2_EEE4sizeB7v160006Ev, symObjAddr: 0x1A248, symBinAddr: 0x10001CA80, symSize: 0x28 }
  - { offsetInCU: 0x7CD72, offset: 0x7CD72, size: 0x8, addend: 0x0, symName: __ZNSt3__114__split_bufferINS_5arrayIfLm2EEERNS_9allocatorIS2_EEEC1EmmS5_, symObjAddr: 0x1A270, symBinAddr: 0x10001CAA8, symSize: 0x44 }
  - { offsetInCU: 0x7CDC8, offset: 0x7CDC8, size: 0x8, addend: 0x0, symName: __ZNSt3__114__split_bufferINS_5arrayIfLm2EEERNS_9allocatorIS2_EEED1Ev, symObjAddr: 0x1A3CC, symBinAddr: 0x10001CC04, symSize: 0x2C }
  - { offsetInCU: 0x7CDF4, offset: 0x7CDF4, size: 0x8, addend: 0x0, symName: __ZNKSt3__16vectorINS_5arrayIfLm2EEENS_9allocatorIS2_EEE8max_sizeEv, symObjAddr: 0x1A3F8, symBinAddr: 0x10001CC30, symSize: 0x60 }
  - { offsetInCU: 0x7CE1C, offset: 0x7CE1C, size: 0x8, addend: 0x0, symName: __ZNKSt3__16vectorINS_5arrayIfLm2EEENS_9allocatorIS2_EEE20__throw_length_errorB7v160006Ev, symObjAddr: 0x1A458, symBinAddr: 0x10001CC90, symSize: 0x1C }
  - { offsetInCU: 0x7CE42, offset: 0x7CE42, size: 0x8, addend: 0x0, symName: __ZNKSt3__16vectorINS_5arrayIfLm2EEENS_9allocatorIS2_EEE8capacityB7v160006Ev, symObjAddr: 0x1A474, symBinAddr: 0x10001CCAC, symSize: 0x40 }
  - { offsetInCU: 0x7CE72, offset: 0x7CE72, size: 0x8, addend: 0x0, symName: __ZNSt3__116allocator_traitsINS_9allocatorINS_5arrayIfLm2EEEEEE8max_sizeB7v160006IS4_vEEmRKS4_, symObjAddr: 0x1A4B4, symBinAddr: 0x10001CCEC, symSize: 0x24 }
  - { offsetInCU: 0x7CEA0, offset: 0x7CEA0, size: 0x8, addend: 0x0, symName: __ZNKSt3__16vectorINS_5arrayIfLm2EEENS_9allocatorIS2_EEE7__allocB7v160006Ev, symObjAddr: 0x1A4D8, symBinAddr: 0x10001CD10, symSize: 0x28 }
  - { offsetInCU: 0x7CEC6, offset: 0x7CEC6, size: 0x8, addend: 0x0, symName: __ZNKSt3__19allocatorINS_5arrayIfLm2EEEE8max_sizeB7v160006Ev, symObjAddr: 0x1A500, symBinAddr: 0x10001CD38, symSize: 0x14 }
  - { offsetInCU: 0x7CEEC, offset: 0x7CEEC, size: 0x8, addend: 0x0, symName: __ZNKSt3__117__compressed_pairIPNS_5arrayIfLm2EEENS_9allocatorIS2_EEE6secondB7v160006Ev, symObjAddr: 0x1A514, symBinAddr: 0x10001CD4C, symSize: 0x24 }
  - { offsetInCU: 0x7CF12, offset: 0x7CF12, size: 0x8, addend: 0x0, symName: __ZNKSt3__122__compressed_pair_elemINS_9allocatorINS_5arrayIfLm2EEEEELi1ELb1EE5__getB7v160006Ev, symObjAddr: 0x1A538, symBinAddr: 0x10001CD70, symSize: 0x14 }
  - { offsetInCU: 0x7CF38, offset: 0x7CF38, size: 0x8, addend: 0x0, symName: __ZNKSt3__16vectorINS_5arrayIfLm2EEENS_9allocatorIS2_EEE9__end_capB7v160006Ev, symObjAddr: 0x1A54C, symBinAddr: 0x10001CD84, symSize: 0x28 }
  - { offsetInCU: 0x7CF5E, offset: 0x7CF5E, size: 0x8, addend: 0x0, symName: __ZNKSt3__117__compressed_pairIPNS_5arrayIfLm2EEENS_9allocatorIS2_EEE5firstB7v160006Ev, symObjAddr: 0x1A574, symBinAddr: 0x10001CDAC, symSize: 0x24 }
  - { offsetInCU: 0x7CF84, offset: 0x7CF84, size: 0x8, addend: 0x0, symName: __ZNKSt3__122__compressed_pair_elemIPNS_5arrayIfLm2EEELi0ELb0EE5__getB7v160006Ev, symObjAddr: 0x1A598, symBinAddr: 0x10001CDD0, symSize: 0x14 }
  - { offsetInCU: 0x7CFAA, offset: 0x7CFAA, size: 0x8, addend: 0x0, symName: __ZNSt3__114__split_bufferINS_5arrayIfLm2EEERNS_9allocatorIS2_EEEC2EmmS5_, symObjAddr: 0x1A5AC, symBinAddr: 0x10001CDE4, symSize: 0xD4 }
  - { offsetInCU: 0x7D01D, offset: 0x7D01D, size: 0x8, addend: 0x0, symName: __ZNSt3__117__compressed_pairIPNS_5arrayIfLm2EEERNS_9allocatorIS2_EEEC1B7v160006IDnS6_EEOT_OT0_, symObjAddr: 0x1A680, symBinAddr: 0x10001CEB8, symSize: 0x3C }
  - { offsetInCU: 0x7D075, offset: 0x7D075, size: 0x8, addend: 0x0, symName: __ZNSt3__114__split_bufferINS_5arrayIfLm2EEERNS_9allocatorIS2_EEE7__allocB7v160006Ev, symObjAddr: 0x1A6FC, symBinAddr: 0x10001CF34, symSize: 0x28 }
  - { offsetInCU: 0x7D09B, offset: 0x7D09B, size: 0x8, addend: 0x0, symName: __ZNSt3__114__split_bufferINS_5arrayIfLm2EEERNS_9allocatorIS2_EEE9__end_capB7v160006Ev, symObjAddr: 0x1A724, symBinAddr: 0x10001CF5C, symSize: 0x28 }
  - { offsetInCU: 0x7D0C1, offset: 0x7D0C1, size: 0x8, addend: 0x0, symName: __ZNSt3__117__compressed_pairIPNS_5arrayIfLm2EEERNS_9allocatorIS2_EEEC2B7v160006IDnS6_EEOT_OT0_, symObjAddr: 0x1A74C, symBinAddr: 0x10001CF84, symSize: 0x48 }
  - { offsetInCU: 0x7D119, offset: 0x7D119, size: 0x8, addend: 0x0, symName: __ZNSt3__122__compressed_pair_elemIRNS_9allocatorINS_5arrayIfLm2EEEEELi1ELb0EEC2B7v160006IS5_vEEOT_, symObjAddr: 0x1A794, symBinAddr: 0x10001CFCC, symSize: 0x20 }
  - { offsetInCU: 0x7D15B, offset: 0x7D15B, size: 0x8, addend: 0x0, symName: __ZNSt3__19allocatorINS_5arrayIfLm2EEEE8allocateB7v160006Em, symObjAddr: 0x1A7B4, symBinAddr: 0x10001CFEC, symSize: 0x58 }
  - { offsetInCU: 0x7D18F, offset: 0x7D18F, size: 0x8, addend: 0x0, symName: __ZNSt3__117__compressed_pairIPNS_5arrayIfLm2EEERNS_9allocatorIS2_EEE6secondB7v160006Ev, symObjAddr: 0x1A80C, symBinAddr: 0x10001D044, symSize: 0x28 }
  - { offsetInCU: 0x7D1B5, offset: 0x7D1B5, size: 0x8, addend: 0x0, symName: __ZNSt3__122__compressed_pair_elemIRNS_9allocatorINS_5arrayIfLm2EEEEELi1ELb0EE5__getB7v160006Ev, symObjAddr: 0x1A834, symBinAddr: 0x10001D06C, symSize: 0x18 }
  - { offsetInCU: 0x7D1DB, offset: 0x7D1DB, size: 0x8, addend: 0x0, symName: __ZNSt3__117__compressed_pairIPNS_5arrayIfLm2EEERNS_9allocatorIS2_EEE5firstB7v160006Ev, symObjAddr: 0x1A84C, symBinAddr: 0x10001D084, symSize: 0x24 }
  - { offsetInCU: 0x7D201, offset: 0x7D201, size: 0x8, addend: 0x0, symName: __ZNKSt3__16vectorINS_5arrayIfLm2EEENS_9allocatorIS2_EEE17__annotate_deleteB7v160006Ev, symObjAddr: 0x1A870, symBinAddr: 0x10001D0A8, symSize: 0xB8 }
  - { offsetInCU: 0x7D227, offset: 0x7D227, size: 0x8, addend: 0x0, symName: __ZNSt3__116reverse_iteratorIPNS_5arrayIfLm2EEEEC1B7v160006ES3_, symObjAddr: 0x1A9A0, symBinAddr: 0x10001D1D8, symSize: 0x34 }
  - { offsetInCU: 0x7D25F, offset: 0x7D25F, size: 0x8, addend: 0x0, symName: __ZNKSt3__116reverse_iteratorIPNS_5arrayIfLm2EEEE4baseB7v160006Ev, symObjAddr: 0x1A9D4, symBinAddr: 0x10001D20C, symSize: 0x18 }
  - { offsetInCU: 0x7D285, offset: 0x7D285, size: 0x8, addend: 0x0, symName: __ZNKSt3__16vectorINS_5arrayIfLm2EEENS_9allocatorIS2_EEE14__annotate_newB7v160006Em, symObjAddr: 0x1AA28, symBinAddr: 0x10001D260, symSize: 0xAC }
  - { offsetInCU: 0x7D2BA, offset: 0x7D2BA, size: 0x8, addend: 0x0, symName: __ZNKSt3__16vectorINS_5arrayIfLm2EEENS_9allocatorIS2_EEE31__annotate_contiguous_containerB7v160006EPKvS7_S7_S7_, symObjAddr: 0x1AAE4, symBinAddr: 0x10001D31C, symSize: 0x20 }
  - { offsetInCU: 0x7D310, offset: 0x7D310, size: 0x8, addend: 0x0, symName: __ZNKSt3__16vectorINS_5arrayIfLm2EEENS_9allocatorIS2_EEE4dataB7v160006Ev, symObjAddr: 0x1AB04, symBinAddr: 0x10001D33C, symSize: 0x28 }
  - { offsetInCU: 0x7D350, offset: 0x7D350, size: 0x8, addend: 0x0, symName: __ZNKSt3__111__move_loopINS_17_ClassicAlgPolicyEEclB7v160006INS_16reverse_iteratorIPNS_5arrayIfLm2EEEEES8_S8_EENS_4pairIT_T1_EESA_T0_SB_, symObjAddr: 0x1AE1C, symBinAddr: 0x10001D654, symSize: 0xA0 }
  - { offsetInCU: 0x7D3BB, offset: 0x7D3BB, size: 0x8, addend: 0x0, symName: __ZNSt3__18_IterOpsINS_17_ClassicAlgPolicyEE11__iter_moveB7v160006IRNS_16reverse_iteratorIPNS_5arrayIfLm2EEEEEEENS_9enable_ifIXsr12is_referenceIDTdeclsr3stdE7declvalIRT_EEEEE5valueEDTclsr3stdE4movedeclsr3stdE7declvalISC_EEEEE4typeEOSB_, symObjAddr: 0x1B050, symBinAddr: 0x10001D888, symSize: 0x28 }
  - { offsetInCU: 0x7D3E7, offset: 0x7D3E7, size: 0x8, addend: 0x0, symName: __ZNKSt3__116reverse_iteratorIPNS_5arrayIfLm2EEEEdeB7v160006Ev, symObjAddr: 0x1B078, symBinAddr: 0x10001D8B0, symSize: 0x28 }
  - { offsetInCU: 0x7D41B, offset: 0x7D41B, size: 0x8, addend: 0x0, symName: __ZNSt3__116reverse_iteratorIPNS_5arrayIfLm2EEEEppB7v160006Ev, symObjAddr: 0x1B0A0, symBinAddr: 0x10001D8D8, symSize: 0x20 }
  - { offsetInCU: 0x7D441, offset: 0x7D441, size: 0x8, addend: 0x0, symName: __ZNSt3__18_IterOpsINS_17_ClassicAlgPolicyEE25__validate_iter_referenceB7v160006IRNS_16reverse_iteratorIPNS_5arrayIfLm2EEEEEEEvv, symObjAddr: 0x1B0C0, symBinAddr: 0x10001D8F8, symSize: 0x4 }
  - { offsetInCU: 0x7D45F, offset: 0x7D45F, size: 0x8, addend: 0x0, symName: __ZNSt3__118__unwrap_iter_implINS_16reverse_iteratorIPNS_5arrayIfLm2EEEEELb0EE8__unwrapB7v160006ES5_, symObjAddr: 0x1B0C4, symBinAddr: 0x10001D8FC, symSize: 0x24 }
  - { offsetInCU: 0x7D488, offset: 0x7D488, size: 0x8, addend: 0x0, symName: __ZNSt3__14pairINS_16reverse_iteratorIPNS_5arrayIfLm2EEEEES5_EC1B7v160006IS5_S5_LPv0EEEOT_OT0_, symObjAddr: 0x1B0E8, symBinAddr: 0x10001D920, symSize: 0x3C }
  - { offsetInCU: 0x7D4E6, offset: 0x7D4E6, size: 0x8, addend: 0x0, symName: __ZNSt3__14pairINS_16reverse_iteratorIPNS_5arrayIfLm2EEEEES5_EC2B7v160006IS5_S5_LPv0EEEOT_OT0_, symObjAddr: 0x1B124, symBinAddr: 0x10001D95C, symSize: 0x34 }
  - { offsetInCU: 0x7D544, offset: 0x7D544, size: 0x8, addend: 0x0, symName: __ZNSt3__118__unwrap_iter_implINS_16reverse_iteratorIPNS_5arrayIfLm2EEEEELb0EE8__rewrapB7v160006ES5_S5_, symObjAddr: 0x1B158, symBinAddr: 0x10001D990, symSize: 0x2C }
  - { offsetInCU: 0x7D572, offset: 0x7D572, size: 0x8, addend: 0x0, symName: __ZNSt3__116reverse_iteratorIPNS_5arrayIfLm2EEEEC2B7v160006ES3_, symObjAddr: 0x1B184, symBinAddr: 0x10001D9BC, symSize: 0x28 }
  - { offsetInCU: 0x7D5AA, offset: 0x7D5AA, size: 0x8, addend: 0x0, symName: __ZNSt3__114__split_bufferINS_5arrayIfLm2EEERNS_9allocatorIS2_EEED2Ev, symObjAddr: 0x1B1AC, symBinAddr: 0x10001D9E4, symSize: 0x8C }
  - { offsetInCU: 0x7D5D6, offset: 0x7D5D6, size: 0x8, addend: 0x0, symName: __ZNSt3__114__split_bufferINS_5arrayIfLm2EEERNS_9allocatorIS2_EEE5clearB7v160006Ev, symObjAddr: 0x1B238, symBinAddr: 0x10001DA70, symSize: 0x28 }
  - { offsetInCU: 0x7D5FC, offset: 0x7D5FC, size: 0x8, addend: 0x0, symName: __ZNSt3__116allocator_traitsINS_9allocatorINS_5arrayIfLm2EEEEEE10deallocateB7v160006ERS4_PS3_m, symObjAddr: 0x1B260, symBinAddr: 0x10001DA98, symSize: 0x34 }
  - { offsetInCU: 0x7D63E, offset: 0x7D63E, size: 0x8, addend: 0x0, symName: __ZNKSt3__114__split_bufferINS_5arrayIfLm2EEERNS_9allocatorIS2_EEE8capacityB7v160006Ev, symObjAddr: 0x1B294, symBinAddr: 0x10001DACC, symSize: 0x40 }
  - { offsetInCU: 0x7D664, offset: 0x7D664, size: 0x8, addend: 0x0, symName: __ZNSt3__114__split_bufferINS_5arrayIfLm2EEERNS_9allocatorIS2_EEE17__destruct_at_endB7v160006EPS2_, symObjAddr: 0x1B2D4, symBinAddr: 0x10001DB0C, symSize: 0x2C }
  - { offsetInCU: 0x7D698, offset: 0x7D698, size: 0x8, addend: 0x0, symName: __ZNSt3__114__split_bufferINS_5arrayIfLm2EEERNS_9allocatorIS2_EEE17__destruct_at_endB7v160006EPS2_NS_17integral_constantIbLb0EEE, symObjAddr: 0x1B300, symBinAddr: 0x10001DB38, symSize: 0x80 }
  - { offsetInCU: 0x7D6D9, offset: 0x7D6D9, size: 0x8, addend: 0x0, symName: __ZNSt3__116allocator_traitsINS_9allocatorINS_5arrayIfLm2EEEEEE7destroyB7v160006IS3_vEEvRS4_PT_, symObjAddr: 0x1B380, symBinAddr: 0x10001DBB8, symSize: 0x2C }
  - { offsetInCU: 0x7D716, offset: 0x7D716, size: 0x8, addend: 0x0, symName: __ZNSt3__19allocatorINS_5arrayIfLm2EEEE7destroyB7v160006EPS2_, symObjAddr: 0x1B3AC, symBinAddr: 0x10001DBE4, symSize: 0x14 }
  - { offsetInCU: 0x7D74A, offset: 0x7D74A, size: 0x8, addend: 0x0, symName: __ZNSt3__19allocatorINS_5arrayIfLm2EEEE10deallocateB7v160006EPS2_m, symObjAddr: 0x1B3C0, symBinAddr: 0x10001DBF8, symSize: 0x40 }
  - { offsetInCU: 0x7D78C, offset: 0x7D78C, size: 0x8, addend: 0x0, symName: __ZNKSt3__114__split_bufferINS_5arrayIfLm2EEERNS_9allocatorIS2_EEE9__end_capB7v160006Ev, symObjAddr: 0x1B400, symBinAddr: 0x10001DC38, symSize: 0x28 }
  - { offsetInCU: 0x7D7B2, offset: 0x7D7B2, size: 0x8, addend: 0x0, symName: __ZNKSt3__117__compressed_pairIPNS_5arrayIfLm2EEERNS_9allocatorIS2_EEE5firstB7v160006Ev, symObjAddr: 0x1B428, symBinAddr: 0x10001DC60, symSize: 0x24 }
  - { offsetInCU: 0x7D7D8, offset: 0x7D7D8, size: 0x8, addend: 0x0, symName: __ZNSt3__16vectorINS0_INS_5arrayIfLm2EEENS_9allocatorIS2_EEEENS3_IS5_EEE9__end_capB7v160006Ev, symObjAddr: 0x1B44C, symBinAddr: 0x10001DC84, symSize: 0x28 }
  - { offsetInCU: 0x7D7FE, offset: 0x7D7FE, size: 0x8, addend: 0x0, symName: __ZNSt3__16vectorINS0_INS_5arrayIfLm2EEENS_9allocatorIS2_EEEENS3_IS5_EEE22__construct_one_at_endB7v160006IJRKS5_EEEvDpOT_, symObjAddr: 0x1B474, symBinAddr: 0x10001DCAC, symSize: 0x90 }
  - { offsetInCU: 0x7D84D, offset: 0x7D84D, size: 0x8, addend: 0x0, symName: __ZNSt3__16vectorINS0_INS_5arrayIfLm2EEENS_9allocatorIS2_EEEENS3_IS5_EEE21__push_back_slow_pathIRKS5_EEvOT_, symObjAddr: 0x1B504, symBinAddr: 0x10001DD3C, symSize: 0xD8 }
  - { offsetInCU: 0x7D8AB, offset: 0x7D8AB, size: 0x8, addend: 0x0, symName: __ZNSt3__117__compressed_pairIPNS_6vectorINS_5arrayIfLm2EEENS_9allocatorIS3_EEEENS4_IS6_EEE5firstB7v160006Ev, symObjAddr: 0x1B5DC, symBinAddr: 0x10001DE14, symSize: 0x24 }
  - { offsetInCU: 0x7D8D1, offset: 0x7D8D1, size: 0x8, addend: 0x0, symName: __ZNSt3__122__compressed_pair_elemIPNS_6vectorINS_5arrayIfLm2EEENS_9allocatorIS3_EEEELi0ELb0EE5__getB7v160006Ev, symObjAddr: 0x1B600, symBinAddr: 0x10001DE38, symSize: 0x14 }
  - { offsetInCU: 0x7D910, offset: 0x7D910, size: 0x8, addend: 0x0, symName: __ZNSt3__16vectorINS0_INS_5arrayIfLm2EEENS_9allocatorIS2_EEEENS3_IS5_EEE21_ConstructTransactionC1B7v160006ERS7_m, symObjAddr: 0x1B614, symBinAddr: 0x10001DE4C, symSize: 0x3C }
  - { offsetInCU: 0x7D958, offset: 0x7D958, size: 0x8, addend: 0x0, symName: __ZNSt3__116allocator_traitsINS_9allocatorINS_6vectorINS_5arrayIfLm2EEENS1_IS4_EEEEEEE9constructB7v160006IS6_JRKS6_EvEEvRS7_PT_DpOT0_, symObjAddr: 0x1B650, symBinAddr: 0x10001DE88, symSize: 0x34 }
  - { offsetInCU: 0x7D9AF, offset: 0x7D9AF, size: 0x8, addend: 0x0, symName: __ZNSt3__16vectorINS0_INS_5arrayIfLm2EEENS_9allocatorIS2_EEEENS3_IS5_EEE7__allocB7v160006Ev, symObjAddr: 0x1B684, symBinAddr: 0x10001DEBC, symSize: 0x28 }
  - { offsetInCU: 0x7D9D5, offset: 0x7D9D5, size: 0x8, addend: 0x0, symName: __ZNSt3__16vectorINS0_INS_5arrayIfLm2EEENS_9allocatorIS2_EEEENS3_IS5_EEE21_ConstructTransactionD1B7v160006Ev, symObjAddr: 0x1B6C0, symBinAddr: 0x10001DEF8, symSize: 0x2C }
  - { offsetInCU: 0x7D9FF, offset: 0x7D9FF, size: 0x8, addend: 0x0, symName: __ZNSt3__16vectorINS0_INS_5arrayIfLm2EEENS_9allocatorIS2_EEEENS3_IS5_EEE21_ConstructTransactionC2B7v160006ERS7_m, symObjAddr: 0x1B6EC, symBinAddr: 0x10001DF24, symSize: 0x4C }
  - { offsetInCU: 0x7DA47, offset: 0x7DA47, size: 0x8, addend: 0x0, symName: __ZNSt3__19allocatorINS_6vectorINS_5arrayIfLm2EEENS0_IS3_EEEEE9constructB7v160006IS5_JRKS5_EEEvPT_DpOT0_, symObjAddr: 0x1B738, symBinAddr: 0x10001DF70, symSize: 0x30 }
  - { offsetInCU: 0x7DA9D, offset: 0x7DA9D, size: 0x8, addend: 0x0, symName: __ZNSt3__16vectorINS_5arrayIfLm2EEENS_9allocatorIS2_EEEC1ERKS5_, symObjAddr: 0x1B768, symBinAddr: 0x10001DFA0, symSize: 0x34 }
  - { offsetInCU: 0x7DAD8, offset: 0x7DAD8, size: 0x8, addend: 0x0, symName: __ZNSt3__16vectorINS_5arrayIfLm2EEENS_9allocatorIS2_EEEC2ERKS5_, symObjAddr: 0x1B79C, symBinAddr: 0x10001DFD4, symSize: 0x110 }
  - { offsetInCU: 0x7DB37, offset: 0x7DB37, size: 0x8, addend: 0x0, symName: __ZNSt3__116allocator_traitsINS_9allocatorINS_5arrayIfLm2EEEEEE37select_on_container_copy_constructionB7v160006IS4_vvEES4_RKS4_, symObjAddr: 0x1B8AC, symBinAddr: 0x10001E0E4, symSize: 0x10 }
  - { offsetInCU: 0x7DB6C, offset: 0x7DB6C, size: 0x8, addend: 0x0, symName: __ZNSt3__117__compressed_pairIPNS_5arrayIfLm2EEENS_9allocatorIS2_EEEC1B7v160006IDnS5_EEOT_OT0_, symObjAddr: 0x1B8BC, symBinAddr: 0x10001E0F4, symSize: 0x3C }
  - { offsetInCU: 0x7DBC4, offset: 0x7DBC4, size: 0x8, addend: 0x0, symName: __ZNSt3__16vectorINS_5arrayIfLm2EEENS_9allocatorIS2_EEE16__destroy_vectorC1ERS5_, symObjAddr: 0x1B938, symBinAddr: 0x10001E170, symSize: 0x34 }
  - { offsetInCU: 0x7DBFD, offset: 0x7DBFD, size: 0x8, addend: 0x0, symName: __ZNSt3__16vectorINS_5arrayIfLm2EEENS_9allocatorIS2_EEE11__vallocateB7v160006Em, symObjAddr: 0x1B96C, symBinAddr: 0x10001E1A4, symSize: 0xAC }
  - { offsetInCU: 0x7DC41, offset: 0x7DC41, size: 0x8, addend: 0x0, symName: __ZNSt3__16vectorINS_5arrayIfLm2EEENS_9allocatorIS2_EEE18__construct_at_endIPS2_Li0EEEvT_S8_m, symObjAddr: 0x1BA18, symBinAddr: 0x10001E250, symSize: 0x8C }
  - { offsetInCU: 0x7DCB4, offset: 0x7DCB4, size: 0x8, addend: 0x0, symName: __ZNSt3__128__exception_guard_exceptionsINS_6vectorINS_5arrayIfLm2EEENS_9allocatorIS3_EEE16__destroy_vectorEE10__completeB7v160006Ev, symObjAddr: 0x1BAA4, symBinAddr: 0x10001E2DC, symSize: 0x1C }
  - { offsetInCU: 0x7DCDA, offset: 0x7DCDA, size: 0x8, addend: 0x0, symName: __ZNSt3__128__exception_guard_exceptionsINS_6vectorINS_5arrayIfLm2EEENS_9allocatorIS3_EEE16__destroy_vectorEED1B7v160006Ev, symObjAddr: 0x1BAC0, symBinAddr: 0x10001E2F8, symSize: 0x2C }
  - { offsetInCU: 0x7DD04, offset: 0x7DD04, size: 0x8, addend: 0x0, symName: __ZNSt3__117__compressed_pairIPNS_5arrayIfLm2EEENS_9allocatorIS2_EEEC2B7v160006IDnS5_EEOT_OT0_, symObjAddr: 0x1BAEC, symBinAddr: 0x10001E324, symSize: 0x44 }
  - { offsetInCU: 0x7DD5C, offset: 0x7DD5C, size: 0x8, addend: 0x0, symName: __ZNSt3__122__compressed_pair_elemINS_9allocatorINS_5arrayIfLm2EEEEELi1ELb1EEC2B7v160006IS4_vEEOT_, symObjAddr: 0x1BB30, symBinAddr: 0x10001E368, symSize: 0x18 }
  - { offsetInCU: 0x7DD9E, offset: 0x7DD9E, size: 0x8, addend: 0x0, symName: __ZNSt3__128__exception_guard_exceptionsINS_6vectorINS_5arrayIfLm2EEENS_9allocatorIS3_EEE16__destroy_vectorEEC1B7v160006ES7_, symObjAddr: 0x1BB48, symBinAddr: 0x10001E380, symSize: 0x34 }
  - { offsetInCU: 0x7DDD6, offset: 0x7DDD6, size: 0x8, addend: 0x0, symName: __ZNSt3__128__exception_guard_exceptionsINS_6vectorINS_5arrayIfLm2EEENS_9allocatorIS3_EEE16__destroy_vectorEEC2B7v160006ES7_, symObjAddr: 0x1BB7C, symBinAddr: 0x10001E3B4, symSize: 0x24 }
  - { offsetInCU: 0x7DE0E, offset: 0x7DE0E, size: 0x8, addend: 0x0, symName: __ZNSt3__16vectorINS_5arrayIfLm2EEENS_9allocatorIS2_EEE16__destroy_vectorC2ERS5_, symObjAddr: 0x1BBA0, symBinAddr: 0x10001E3D8, symSize: 0x20 }
  - { offsetInCU: 0x7DE47, offset: 0x7DE47, size: 0x8, addend: 0x0, symName: __ZNSt3__129_AllocatorDestroyRangeReverseINS_9allocatorINS_5arrayIfLm2EEEEEPS3_EC1B7v160006ERS4_RS5_S8_, symObjAddr: 0x1BD00, symBinAddr: 0x10001E538, symSize: 0x44 }
  - { offsetInCU: 0x7DE9E, offset: 0x7DE9E, size: 0x8, addend: 0x0, symName: __ZNSt3__116allocator_traitsINS_9allocatorINS_5arrayIfLm2EEEEEE9constructB7v160006IS3_JRS3_EvEEvRS4_PT_DpOT0_, symObjAddr: 0x1BD44, symBinAddr: 0x10001E57C, symSize: 0x34 }
  - { offsetInCU: 0x7DEF5, offset: 0x7DEF5, size: 0x8, addend: 0x0, symName: __ZNSt3__128__exception_guard_exceptionsINS_29_AllocatorDestroyRangeReverseINS_9allocatorINS_5arrayIfLm2EEEEEPS4_EEE10__completeB7v160006Ev, symObjAddr: 0x1BD78, symBinAddr: 0x10001E5B0, symSize: 0x1C }
  - { offsetInCU: 0x7DF1B, offset: 0x7DF1B, size: 0x8, addend: 0x0, symName: __ZNSt3__128__exception_guard_exceptionsINS_29_AllocatorDestroyRangeReverseINS_9allocatorINS_5arrayIfLm2EEEEEPS4_EEED1B7v160006Ev, symObjAddr: 0x1BD94, symBinAddr: 0x10001E5CC, symSize: 0x2C }
  - { offsetInCU: 0x7DF45, offset: 0x7DF45, size: 0x8, addend: 0x0, symName: __ZNSt3__128__exception_guard_exceptionsINS_29_AllocatorDestroyRangeReverseINS_9allocatorINS_5arrayIfLm2EEEEEPS4_EEEC1B7v160006ES7_, symObjAddr: 0x1BDC0, symBinAddr: 0x10001E5F8, symSize: 0x34 }
  - { offsetInCU: 0x7DF7E, offset: 0x7DF7E, size: 0x8, addend: 0x0, symName: __ZNSt3__128__exception_guard_exceptionsINS_29_AllocatorDestroyRangeReverseINS_9allocatorINS_5arrayIfLm2EEEEEPS4_EEEC2B7v160006ES7_, symObjAddr: 0x1BDF4, symBinAddr: 0x10001E62C, symSize: 0x30 }
  - { offsetInCU: 0x7DFB7, offset: 0x7DFB7, size: 0x8, addend: 0x0, symName: __ZNSt3__129_AllocatorDestroyRangeReverseINS_9allocatorINS_5arrayIfLm2EEEEEPS3_EC2B7v160006ERS4_RS5_S8_, symObjAddr: 0x1BE24, symBinAddr: 0x10001E65C, symSize: 0x38 }
  - { offsetInCU: 0x7E00E, offset: 0x7E00E, size: 0x8, addend: 0x0, symName: __ZNSt3__19allocatorINS_5arrayIfLm2EEEE9constructB7v160006IS2_JRS2_EEEvPT_DpOT0_, symObjAddr: 0x1BE5C, symBinAddr: 0x10001E694, symSize: 0x28 }
  - { offsetInCU: 0x7E064, offset: 0x7E064, size: 0x8, addend: 0x0, symName: __ZNSt3__128__exception_guard_exceptionsINS_29_AllocatorDestroyRangeReverseINS_9allocatorINS_5arrayIfLm2EEEEEPS4_EEED2B7v160006Ev, symObjAddr: 0x1BE84, symBinAddr: 0x10001E6BC, symSize: 0x50 }
  - { offsetInCU: 0x7E08E, offset: 0x7E08E, size: 0x8, addend: 0x0, symName: __ZNKSt3__129_AllocatorDestroyRangeReverseINS_9allocatorINS_5arrayIfLm2EEEEEPS3_EclB7v160006Ev, symObjAddr: 0x1BED4, symBinAddr: 0x10001E70C, symSize: 0x68 }
  - { offsetInCU: 0x7E0B9, offset: 0x7E0B9, size: 0x8, addend: 0x0, symName: __ZNSt3__119__to_address_helperINS_16reverse_iteratorIPNS_5arrayIfLm2EEEEEvE6__callB7v160006ERKS5_, symObjAddr: 0x1BFD0, symBinAddr: 0x10001E808, symSize: 0x38 }
  - { offsetInCU: 0x7E0DC, offset: 0x7E0DC, size: 0x8, addend: 0x0, symName: __ZNKSt3__116reverse_iteratorIPNS_5arrayIfLm2EEEEptB7v160006Ev, symObjAddr: 0x1C008, symBinAddr: 0x10001E840, symSize: 0x24 }
  - { offsetInCU: 0x7E102, offset: 0x7E102, size: 0x8, addend: 0x0, symName: __ZNSt3__128__exception_guard_exceptionsINS_6vectorINS_5arrayIfLm2EEENS_9allocatorIS3_EEE16__destroy_vectorEED2B7v160006Ev, symObjAddr: 0x1C02C, symBinAddr: 0x10001E864, symSize: 0x50 }
  - { offsetInCU: 0x7E12C, offset: 0x7E12C, size: 0x8, addend: 0x0, symName: __ZNSt3__16vectorINS_5arrayIfLm2EEENS_9allocatorIS2_EEE16__destroy_vectorclB7v160006Ev, symObjAddr: 0x1C07C, symBinAddr: 0x10001E8B4, symSize: 0x9C }
  - { offsetInCU: 0x7E152, offset: 0x7E152, size: 0x8, addend: 0x0, symName: __ZNSt3__16vectorINS_5arrayIfLm2EEENS_9allocatorIS2_EEE7__clearB7v160006Ev, symObjAddr: 0x1C128, symBinAddr: 0x10001E960, symSize: 0x28 }
  - { offsetInCU: 0x7E178, offset: 0x7E178, size: 0x8, addend: 0x0, symName: __ZNSt3__16vectorINS_5arrayIfLm2EEENS_9allocatorIS2_EEE22__base_destruct_at_endB7v160006EPS2_, symObjAddr: 0x1C150, symBinAddr: 0x10001E988, symSize: 0x8C }
  - { offsetInCU: 0x7E1BC, offset: 0x7E1BC, size: 0x8, addend: 0x0, symName: __ZNSt3__117__compressed_pairIPNS_6vectorINS_5arrayIfLm2EEENS_9allocatorIS3_EEEENS4_IS6_EEE6secondB7v160006Ev, symObjAddr: 0x1C1DC, symBinAddr: 0x10001EA14, symSize: 0x24 }
  - { offsetInCU: 0x7E1E2, offset: 0x7E1E2, size: 0x8, addend: 0x0, symName: __ZNSt3__122__compressed_pair_elemINS_9allocatorINS_6vectorINS_5arrayIfLm2EEENS1_IS4_EEEEEELi1ELb1EE5__getB7v160006Ev, symObjAddr: 0x1C200, symBinAddr: 0x10001EA38, symSize: 0x14 }
  - { offsetInCU: 0x7E208, offset: 0x7E208, size: 0x8, addend: 0x0, symName: __ZNSt3__16vectorINS0_INS_5arrayIfLm2EEENS_9allocatorIS2_EEEENS3_IS5_EEE21_ConstructTransactionD2B7v160006Ev, symObjAddr: 0x1C214, symBinAddr: 0x10001EA4C, symSize: 0x20 }
  - { offsetInCU: 0x7E232, offset: 0x7E232, size: 0x8, addend: 0x0, symName: __ZNKSt3__16vectorINS0_INS_5arrayIfLm2EEENS_9allocatorIS2_EEEENS3_IS5_EEE11__recommendB7v160006Em, symObjAddr: 0x1C234, symBinAddr: 0x10001EA6C, symSize: 0xB4 }
  - { offsetInCU: 0x7E287, offset: 0x7E287, size: 0x8, addend: 0x0, symName: __ZNKSt3__16vectorINS0_INS_5arrayIfLm2EEENS_9allocatorIS2_EEEENS3_IS5_EEE4sizeB7v160006Ev, symObjAddr: 0x1C2E8, symBinAddr: 0x10001EB20, symSize: 0x28 }
  - { offsetInCU: 0x7E2AD, offset: 0x7E2AD, size: 0x8, addend: 0x0, symName: __ZNSt3__114__split_bufferINS_6vectorINS_5arrayIfLm2EEENS_9allocatorIS3_EEEERNS4_IS6_EEEC1EmmS8_, symObjAddr: 0x1C310, symBinAddr: 0x10001EB48, symSize: 0x44 }
  - { offsetInCU: 0x7E303, offset: 0x7E303, size: 0x8, addend: 0x0, symName: __ZNSt3__114__split_bufferINS_6vectorINS_5arrayIfLm2EEENS_9allocatorIS3_EEEERNS4_IS6_EEED1Ev, symObjAddr: 0x1C46C, symBinAddr: 0x10001ECA4, symSize: 0x2C }
  - { offsetInCU: 0x7E32F, offset: 0x7E32F, size: 0x8, addend: 0x0, symName: __ZNKSt3__16vectorINS0_INS_5arrayIfLm2EEENS_9allocatorIS2_EEEENS3_IS5_EEE8max_sizeEv, symObjAddr: 0x1C498, symBinAddr: 0x10001ECD0, symSize: 0x60 }
  - { offsetInCU: 0x7E357, offset: 0x7E357, size: 0x8, addend: 0x0, symName: __ZNKSt3__16vectorINS0_INS_5arrayIfLm2EEENS_9allocatorIS2_EEEENS3_IS5_EEE20__throw_length_errorB7v160006Ev, symObjAddr: 0x1C4F8, symBinAddr: 0x10001ED30, symSize: 0x1C }
  - { offsetInCU: 0x7E37D, offset: 0x7E37D, size: 0x8, addend: 0x0, symName: __ZNKSt3__16vectorINS0_INS_5arrayIfLm2EEENS_9allocatorIS2_EEEENS3_IS5_EEE8capacityB7v160006Ev, symObjAddr: 0x1C514, symBinAddr: 0x10001ED4C, symSize: 0x40 }
  - { offsetInCU: 0x7E3AD, offset: 0x7E3AD, size: 0x8, addend: 0x0, symName: __ZNSt3__116allocator_traitsINS_9allocatorINS_6vectorINS_5arrayIfLm2EEENS1_IS4_EEEEEEE8max_sizeB7v160006IS7_vEEmRKS7_, symObjAddr: 0x1C554, symBinAddr: 0x10001ED8C, symSize: 0x24 }
  - { offsetInCU: 0x7E3DB, offset: 0x7E3DB, size: 0x8, addend: 0x0, symName: __ZNKSt3__16vectorINS0_INS_5arrayIfLm2EEENS_9allocatorIS2_EEEENS3_IS5_EEE7__allocB7v160006Ev, symObjAddr: 0x1C578, symBinAddr: 0x10001EDB0, symSize: 0x28 }
  - { offsetInCU: 0x7E401, offset: 0x7E401, size: 0x8, addend: 0x0, symName: __ZNKSt3__19allocatorINS_6vectorINS_5arrayIfLm2EEENS0_IS3_EEEEE8max_sizeB7v160006Ev, symObjAddr: 0x1C5A0, symBinAddr: 0x10001EDD8, symSize: 0x18 }
  - { offsetInCU: 0x7E427, offset: 0x7E427, size: 0x8, addend: 0x0, symName: __ZNKSt3__117__compressed_pairIPNS_6vectorINS_5arrayIfLm2EEENS_9allocatorIS3_EEEENS4_IS6_EEE6secondB7v160006Ev, symObjAddr: 0x1C5B8, symBinAddr: 0x10001EDF0, symSize: 0x24 }
  - { offsetInCU: 0x7E44D, offset: 0x7E44D, size: 0x8, addend: 0x0, symName: __ZNKSt3__122__compressed_pair_elemINS_9allocatorINS_6vectorINS_5arrayIfLm2EEENS1_IS4_EEEEEELi1ELb1EE5__getB7v160006Ev, symObjAddr: 0x1C5DC, symBinAddr: 0x10001EE14, symSize: 0x14 }
  - { offsetInCU: 0x7E473, offset: 0x7E473, size: 0x8, addend: 0x0, symName: __ZNKSt3__16vectorINS0_INS_5arrayIfLm2EEENS_9allocatorIS2_EEEENS3_IS5_EEE9__end_capB7v160006Ev, symObjAddr: 0x1C5F0, symBinAddr: 0x10001EE28, symSize: 0x28 }
  - { offsetInCU: 0x7E499, offset: 0x7E499, size: 0x8, addend: 0x0, symName: __ZNKSt3__117__compressed_pairIPNS_6vectorINS_5arrayIfLm2EEENS_9allocatorIS3_EEEENS4_IS6_EEE5firstB7v160006Ev, symObjAddr: 0x1C618, symBinAddr: 0x10001EE50, symSize: 0x24 }
  - { offsetInCU: 0x7E4BF, offset: 0x7E4BF, size: 0x8, addend: 0x0, symName: __ZNKSt3__122__compressed_pair_elemIPNS_6vectorINS_5arrayIfLm2EEENS_9allocatorIS3_EEEELi0ELb0EE5__getB7v160006Ev, symObjAddr: 0x1C63C, symBinAddr: 0x10001EE74, symSize: 0x14 }
  - { offsetInCU: 0x7E4E5, offset: 0x7E4E5, size: 0x8, addend: 0x0, symName: __ZNSt3__114__split_bufferINS_6vectorINS_5arrayIfLm2EEENS_9allocatorIS3_EEEERNS4_IS6_EEEC2EmmS8_, symObjAddr: 0x1C650, symBinAddr: 0x10001EE88, symSize: 0xE0 }
  - { offsetInCU: 0x7E558, offset: 0x7E558, size: 0x8, addend: 0x0, symName: __ZNSt3__117__compressed_pairIPNS_6vectorINS_5arrayIfLm2EEENS_9allocatorIS3_EEEERNS4_IS6_EEEC1B7v160006IDnS9_EEOT_OT0_, symObjAddr: 0x1C730, symBinAddr: 0x10001EF68, symSize: 0x3C }
  - { offsetInCU: 0x7E5B0, offset: 0x7E5B0, size: 0x8, addend: 0x0, symName: __ZNSt3__114__split_bufferINS_6vectorINS_5arrayIfLm2EEENS_9allocatorIS3_EEEERNS4_IS6_EEE7__allocB7v160006Ev, symObjAddr: 0x1C7AC, symBinAddr: 0x10001EFE4, symSize: 0x28 }
  - { offsetInCU: 0x7E5D6, offset: 0x7E5D6, size: 0x8, addend: 0x0, symName: __ZNSt3__114__split_bufferINS_6vectorINS_5arrayIfLm2EEENS_9allocatorIS3_EEEERNS4_IS6_EEE9__end_capB7v160006Ev, symObjAddr: 0x1C7D4, symBinAddr: 0x10001F00C, symSize: 0x28 }
  - { offsetInCU: 0x7E5FC, offset: 0x7E5FC, size: 0x8, addend: 0x0, symName: __ZNSt3__117__compressed_pairIPNS_6vectorINS_5arrayIfLm2EEENS_9allocatorIS3_EEEERNS4_IS6_EEEC2B7v160006IDnS9_EEOT_OT0_, symObjAddr: 0x1C7FC, symBinAddr: 0x10001F034, symSize: 0x48 }
  - { offsetInCU: 0x7E654, offset: 0x7E654, size: 0x8, addend: 0x0, symName: __ZNSt3__122__compressed_pair_elemIRNS_9allocatorINS_6vectorINS_5arrayIfLm2EEENS1_IS4_EEEEEELi1ELb0EEC2B7v160006IS8_vEEOT_, symObjAddr: 0x1C844, symBinAddr: 0x10001F07C, symSize: 0x20 }
  - { offsetInCU: 0x7E696, offset: 0x7E696, size: 0x8, addend: 0x0, symName: __ZNSt3__19allocatorINS_6vectorINS_5arrayIfLm2EEENS0_IS3_EEEEE8allocateB7v160006Em, symObjAddr: 0x1C864, symBinAddr: 0x10001F09C, symSize: 0x5C }
  - { offsetInCU: 0x7E6CA, offset: 0x7E6CA, size: 0x8, addend: 0x0, symName: __ZNSt3__117__compressed_pairIPNS_6vectorINS_5arrayIfLm2EEENS_9allocatorIS3_EEEERNS4_IS6_EEE6secondB7v160006Ev, symObjAddr: 0x1C8C0, symBinAddr: 0x10001F0F8, symSize: 0x28 }
  - { offsetInCU: 0x7E6F0, offset: 0x7E6F0, size: 0x8, addend: 0x0, symName: __ZNSt3__122__compressed_pair_elemIRNS_9allocatorINS_6vectorINS_5arrayIfLm2EEENS1_IS4_EEEEEELi1ELb0EE5__getB7v160006Ev, symObjAddr: 0x1C8E8, symBinAddr: 0x10001F120, symSize: 0x18 }
  - { offsetInCU: 0x7E716, offset: 0x7E716, size: 0x8, addend: 0x0, symName: __ZNSt3__117__compressed_pairIPNS_6vectorINS_5arrayIfLm2EEENS_9allocatorIS3_EEEERNS4_IS6_EEE5firstB7v160006Ev, symObjAddr: 0x1C900, symBinAddr: 0x10001F138, symSize: 0x24 }
  - { offsetInCU: 0x7E73C, offset: 0x7E73C, size: 0x8, addend: 0x0, symName: __ZNKSt3__16vectorINS0_INS_5arrayIfLm2EEENS_9allocatorIS2_EEEENS3_IS5_EEE17__annotate_deleteB7v160006Ev, symObjAddr: 0x1C924, symBinAddr: 0x10001F15C, symSize: 0xD4 }
  - { offsetInCU: 0x7E762, offset: 0x7E762, size: 0x8, addend: 0x0, symName: __ZNSt3__116reverse_iteratorIPNS_6vectorINS_5arrayIfLm2EEENS_9allocatorIS3_EEEEEC1B7v160006ES7_, symObjAddr: 0x1CB24, symBinAddr: 0x10001F35C, symSize: 0x34 }
  - { offsetInCU: 0x7E79A, offset: 0x7E79A, size: 0x8, addend: 0x0, symName: __ZNKSt3__116reverse_iteratorIPNS_6vectorINS_5arrayIfLm2EEENS_9allocatorIS3_EEEEE4baseB7v160006Ev, symObjAddr: 0x1CB58, symBinAddr: 0x10001F390, symSize: 0x18 }
  - { offsetInCU: 0x7E7C0, offset: 0x7E7C0, size: 0x8, addend: 0x0, symName: __ZNKSt3__16vectorINS0_INS_5arrayIfLm2EEENS_9allocatorIS2_EEEENS3_IS5_EEE14__annotate_newB7v160006Em, symObjAddr: 0x1CBAC, symBinAddr: 0x10001F3E4, symSize: 0xC8 }
  - { offsetInCU: 0x7E7F5, offset: 0x7E7F5, size: 0x8, addend: 0x0, symName: __ZNKSt3__16vectorINS0_INS_5arrayIfLm2EEENS_9allocatorIS2_EEEENS3_IS5_EEE31__annotate_contiguous_containerB7v160006EPKvS9_S9_S9_, symObjAddr: 0x1CC84, symBinAddr: 0x10001F4BC, symSize: 0x20 }
  - { offsetInCU: 0x7E84B, offset: 0x7E84B, size: 0x8, addend: 0x0, symName: __ZNKSt3__16vectorINS0_INS_5arrayIfLm2EEENS_9allocatorIS2_EEEENS3_IS5_EEE4dataB7v160006Ev, symObjAddr: 0x1CCA4, symBinAddr: 0x10001F4DC, symSize: 0x28 }
  - { offsetInCU: 0x7E871, offset: 0x7E871, size: 0x8, addend: 0x0, symName: __ZNSt3__129_AllocatorDestroyRangeReverseINS_9allocatorINS_6vectorINS_5arrayIfLm2EEENS1_IS4_EEEEEENS_16reverse_iteratorIPS6_EEEC1B7v160006ERS7_RSA_SD_, symObjAddr: 0x1CD18, symBinAddr: 0x10001F550, symSize: 0x44 }
  - { offsetInCU: 0x7E8C8, offset: 0x7E8C8, size: 0x8, addend: 0x0, symName: __ZNSt3__116allocator_traitsINS_9allocatorINS_6vectorINS_5arrayIfLm2EEENS1_IS4_EEEEEEE9constructB7v160006IS6_JS6_EvEEvRS7_PT_DpOT0_, symObjAddr: 0x1CDA4, symBinAddr: 0x10001F5DC, symSize: 0x34 }
  - { offsetInCU: 0x7E91F, offset: 0x7E91F, size: 0x8, addend: 0x0, symName: __ZNKSt3__116reverse_iteratorIPNS_6vectorINS_5arrayIfLm2EEENS_9allocatorIS3_EEEEEdeB7v160006Ev, symObjAddr: 0x1CDFC, symBinAddr: 0x10001F634, symSize: 0x28 }
  - { offsetInCU: 0x7E953, offset: 0x7E953, size: 0x8, addend: 0x0, symName: __ZNSt3__116reverse_iteratorIPNS_6vectorINS_5arrayIfLm2EEENS_9allocatorIS3_EEEEEppB7v160006Ev, symObjAddr: 0x1CE24, symBinAddr: 0x10001F65C, symSize: 0x20 }
  - { offsetInCU: 0x7E979, offset: 0x7E979, size: 0x8, addend: 0x0, symName: __ZNSt3__128__exception_guard_exceptionsINS_29_AllocatorDestroyRangeReverseINS_9allocatorINS_6vectorINS_5arrayIfLm2EEENS2_IS5_EEEEEENS_16reverse_iteratorIPS7_EEEEE10__completeB7v160006Ev, symObjAddr: 0x1CE44, symBinAddr: 0x10001F67C, symSize: 0x1C }
  - { offsetInCU: 0x7E99F, offset: 0x7E99F, size: 0x8, addend: 0x0, symName: __ZNSt3__128__exception_guard_exceptionsINS_29_AllocatorDestroyRangeReverseINS_9allocatorINS_6vectorINS_5arrayIfLm2EEENS2_IS5_EEEEEENS_16reverse_iteratorIPS7_EEEEED1B7v160006Ev, symObjAddr: 0x1CE60, symBinAddr: 0x10001F698, symSize: 0x2C }
  - { offsetInCU: 0x7E9C9, offset: 0x7E9C9, size: 0x8, addend: 0x0, symName: __ZNSt3__128__exception_guard_exceptionsINS_29_AllocatorDestroyRangeReverseINS_9allocatorINS_6vectorINS_5arrayIfLm2EEENS2_IS5_EEEEEENS_16reverse_iteratorIPS7_EEEEEC1B7v160006ESC_, symObjAddr: 0x1CE8C, symBinAddr: 0x10001F6C4, symSize: 0x34 }
  - { offsetInCU: 0x7EA02, offset: 0x7EA02, size: 0x8, addend: 0x0, symName: __ZNSt3__128__exception_guard_exceptionsINS_29_AllocatorDestroyRangeReverseINS_9allocatorINS_6vectorINS_5arrayIfLm2EEENS2_IS5_EEEEEENS_16reverse_iteratorIPS7_EEEEEC2B7v160006ESC_, symObjAddr: 0x1CEC0, symBinAddr: 0x10001F6F8, symSize: 0x30 }
  - { offsetInCU: 0x7EA3B, offset: 0x7EA3B, size: 0x8, addend: 0x0, symName: __ZNSt3__129_AllocatorDestroyRangeReverseINS_9allocatorINS_6vectorINS_5arrayIfLm2EEENS1_IS4_EEEEEENS_16reverse_iteratorIPS6_EEEC2B7v160006ERS7_RSA_SD_, symObjAddr: 0x1CEF0, symBinAddr: 0x10001F728, symSize: 0x38 }
  - { offsetInCU: 0x7EA92, offset: 0x7EA92, size: 0x8, addend: 0x0, symName: __ZNSt3__19allocatorINS_6vectorINS_5arrayIfLm2EEENS0_IS3_EEEEE9constructB7v160006IS5_JS5_EEEvPT_DpOT0_, symObjAddr: 0x1CF28, symBinAddr: 0x10001F760, symSize: 0x30 }
  - { offsetInCU: 0x7EAE8, offset: 0x7EAE8, size: 0x8, addend: 0x0, symName: __ZNSt3__16vectorINS_5arrayIfLm2EEENS_9allocatorIS2_EEEC1B7v160006EOS5_, symObjAddr: 0x1CF58, symBinAddr: 0x10001F790, symSize: 0x34 }
  - { offsetInCU: 0x7EB23, offset: 0x7EB23, size: 0x8, addend: 0x0, symName: __ZNSt3__16vectorINS_5arrayIfLm2EEENS_9allocatorIS2_EEEC2B7v160006EOS5_, symObjAddr: 0x1CF8C, symBinAddr: 0x10001F7C4, symSize: 0xDC }
  - { offsetInCU: 0x7EB63, offset: 0x7EB63, size: 0x8, addend: 0x0, symName: __ZNSt3__119__to_address_helperINS_16reverse_iteratorIPNS_6vectorINS_5arrayIfLm2EEENS_9allocatorIS4_EEEEEEvE6__callB7v160006ERKS9_, symObjAddr: 0x1D07C, symBinAddr: 0x10001F8B4, symSize: 0x38 }
  - { offsetInCU: 0x7EB86, offset: 0x7EB86, size: 0x8, addend: 0x0, symName: __ZNKSt3__116reverse_iteratorIPNS_6vectorINS_5arrayIfLm2EEENS_9allocatorIS3_EEEEEptB7v160006Ev, symObjAddr: 0x1D0B4, symBinAddr: 0x10001F8EC, symSize: 0x24 }
  - { offsetInCU: 0x7EBAC, offset: 0x7EBAC, size: 0x8, addend: 0x0, symName: __ZNSt3__128__exception_guard_exceptionsINS_29_AllocatorDestroyRangeReverseINS_9allocatorINS_6vectorINS_5arrayIfLm2EEENS2_IS5_EEEEEENS_16reverse_iteratorIPS7_EEEEED2B7v160006Ev, symObjAddr: 0x1D0D8, symBinAddr: 0x10001F910, symSize: 0x50 }
  - { offsetInCU: 0x7EBD6, offset: 0x7EBD6, size: 0x8, addend: 0x0, symName: __ZNKSt3__129_AllocatorDestroyRangeReverseINS_9allocatorINS_6vectorINS_5arrayIfLm2EEENS1_IS4_EEEEEENS_16reverse_iteratorIPS6_EEEclB7v160006Ev, symObjAddr: 0x1D128, symBinAddr: 0x10001F960, symSize: 0xB4 }
  - { offsetInCU: 0x7EBFD, offset: 0x7EBFD, size: 0x8, addend: 0x0, symName: __ZNSt3__116reverse_iteratorINS0_IPNS_6vectorINS_5arrayIfLm2EEENS_9allocatorIS3_EEEEEEEC1B7v160006ES8_, symObjAddr: 0x1D24C, symBinAddr: 0x10001FA84, symSize: 0x3C }
  - { offsetInCU: 0x7EC35, offset: 0x7EC35, size: 0x8, addend: 0x0, symName: __ZNSt3__116allocator_traitsINS_9allocatorINS_6vectorINS_5arrayIfLm2EEENS1_IS4_EEEEEEE7destroyB7v160006IS6_vEEvRS7_PT_, symObjAddr: 0x1D2E8, symBinAddr: 0x10001FB20, symSize: 0x2C }
  - { offsetInCU: 0x7EC72, offset: 0x7EC72, size: 0x8, addend: 0x0, symName: __ZNSt3__116reverse_iteratorINS0_IPNS_6vectorINS_5arrayIfLm2EEENS_9allocatorIS3_EEEEEEEppB7v160006Ev, symObjAddr: 0x1D338, symBinAddr: 0x10001FB70, symSize: 0x30 }
  - { offsetInCU: 0x7EC98, offset: 0x7EC98, size: 0x8, addend: 0x0, symName: __ZNKSt3__116reverse_iteratorINS0_IPNS_6vectorINS_5arrayIfLm2EEENS_9allocatorIS3_EEEEEEE4baseB7v160006Ev, symObjAddr: 0x1D368, symBinAddr: 0x10001FBA0, symSize: 0x24 }
  - { offsetInCU: 0x7ECBE, offset: 0x7ECBE, size: 0x8, addend: 0x0, symName: __ZNSt3__19allocatorINS_6vectorINS_5arrayIfLm2EEENS0_IS3_EEEEE7destroyB7v160006EPS5_, symObjAddr: 0x1D38C, symBinAddr: 0x10001FBC4, symSize: 0x28 }
  - { offsetInCU: 0x7ECF7, offset: 0x7ECF7, size: 0x8, addend: 0x0, symName: __ZNSt3__119__to_address_helperINS_16reverse_iteratorINS1_IPNS_6vectorINS_5arrayIfLm2EEENS_9allocatorIS4_EEEEEEEEvE6__callB7v160006ERKSA_, symObjAddr: 0x1D3B4, symBinAddr: 0x10001FBEC, symSize: 0x38 }
  - { offsetInCU: 0x7ED1A, offset: 0x7ED1A, size: 0x8, addend: 0x0, symName: __ZNKSt3__116reverse_iteratorINS0_IPNS_6vectorINS_5arrayIfLm2EEENS_9allocatorIS3_EEEEEEEptB7v160006Ev, symObjAddr: 0x1D3EC, symBinAddr: 0x10001FC24, symSize: 0x24 }
  - { offsetInCU: 0x7ED40, offset: 0x7ED40, size: 0x8, addend: 0x0, symName: __ZNKSt3__116reverse_iteratorINS0_IPNS_6vectorINS_5arrayIfLm2EEENS_9allocatorIS3_EEEEEEEdeB7v160006Ev, symObjAddr: 0x1D410, symBinAddr: 0x10001FC48, symSize: 0x34 }
  - { offsetInCU: 0x7ED74, offset: 0x7ED74, size: 0x8, addend: 0x0, symName: __ZNSt3__116reverse_iteratorIPNS_6vectorINS_5arrayIfLm2EEENS_9allocatorIS3_EEEEEmmB7v160006Ev, symObjAddr: 0x1D444, symBinAddr: 0x10001FC7C, symSize: 0x20 }
  - { offsetInCU: 0x7ED9A, offset: 0x7ED9A, size: 0x8, addend: 0x0, symName: __ZNSt3__116reverse_iteratorINS0_IPNS_6vectorINS_5arrayIfLm2EEENS_9allocatorIS3_EEEEEEEC2B7v160006ES8_, symObjAddr: 0x1D464, symBinAddr: 0x10001FC9C, symSize: 0x2C }
  - { offsetInCU: 0x7EDD2, offset: 0x7EDD2, size: 0x8, addend: 0x0, symName: __ZNSt3__116reverse_iteratorIPNS_6vectorINS_5arrayIfLm2EEENS_9allocatorIS3_EEEEEC2B7v160006ES7_, symObjAddr: 0x1D490, symBinAddr: 0x10001FCC8, symSize: 0x28 }
  - { offsetInCU: 0x7EE0A, offset: 0x7EE0A, size: 0x8, addend: 0x0, symName: __ZNSt3__114__split_bufferINS_6vectorINS_5arrayIfLm2EEENS_9allocatorIS3_EEEERNS4_IS6_EEED2Ev, symObjAddr: 0x1D4B8, symBinAddr: 0x10001FCF0, symSize: 0x8C }
  - { offsetInCU: 0x7EE36, offset: 0x7EE36, size: 0x8, addend: 0x0, symName: __ZNSt3__114__split_bufferINS_6vectorINS_5arrayIfLm2EEENS_9allocatorIS3_EEEERNS4_IS6_EEE5clearB7v160006Ev, symObjAddr: 0x1D544, symBinAddr: 0x10001FD7C, symSize: 0x28 }
  - { offsetInCU: 0x7EE5C, offset: 0x7EE5C, size: 0x8, addend: 0x0, symName: __ZNSt3__116allocator_traitsINS_9allocatorINS_6vectorINS_5arrayIfLm2EEENS1_IS4_EEEEEEE10deallocateB7v160006ERS7_PS6_m, symObjAddr: 0x1D56C, symBinAddr: 0x10001FDA4, symSize: 0x34 }
  - { offsetInCU: 0x7EE9E, offset: 0x7EE9E, size: 0x8, addend: 0x0, symName: __ZNKSt3__114__split_bufferINS_6vectorINS_5arrayIfLm2EEENS_9allocatorIS3_EEEERNS4_IS6_EEE8capacityB7v160006Ev, symObjAddr: 0x1D5A0, symBinAddr: 0x10001FDD8, symSize: 0x40 }
  - { offsetInCU: 0x7EEC4, offset: 0x7EEC4, size: 0x8, addend: 0x0, symName: __ZNSt3__114__split_bufferINS_6vectorINS_5arrayIfLm2EEENS_9allocatorIS3_EEEERNS4_IS6_EEE17__destruct_at_endB7v160006EPS6_, symObjAddr: 0x1D5E0, symBinAddr: 0x10001FE18, symSize: 0x2C }
  - { offsetInCU: 0x7EEF8, offset: 0x7EEF8, size: 0x8, addend: 0x0, symName: __ZNSt3__114__split_bufferINS_6vectorINS_5arrayIfLm2EEENS_9allocatorIS3_EEEERNS4_IS6_EEE17__destruct_at_endB7v160006EPS6_NS_17integral_constantIbLb0EEE, symObjAddr: 0x1D60C, symBinAddr: 0x10001FE44, symSize: 0x80 }
  - { offsetInCU: 0x7EF39, offset: 0x7EF39, size: 0x8, addend: 0x0, symName: __ZNSt3__19allocatorINS_6vectorINS_5arrayIfLm2EEENS0_IS3_EEEEE10deallocateB7v160006EPS5_m, symObjAddr: 0x1D68C, symBinAddr: 0x10001FEC4, symSize: 0x44 }
  - { offsetInCU: 0x7EF7B, offset: 0x7EF7B, size: 0x8, addend: 0x0, symName: __ZNKSt3__114__split_bufferINS_6vectorINS_5arrayIfLm2EEENS_9allocatorIS3_EEEERNS4_IS6_EEE9__end_capB7v160006Ev, symObjAddr: 0x1D6D0, symBinAddr: 0x10001FF08, symSize: 0x28 }
  - { offsetInCU: 0x7EFA1, offset: 0x7EFA1, size: 0x8, addend: 0x0, symName: __ZNKSt3__117__compressed_pairIPNS_6vectorINS_5arrayIfLm2EEENS_9allocatorIS3_EEEERNS4_IS6_EEE5firstB7v160006Ev, symObjAddr: 0x1D6F8, symBinAddr: 0x10001FF30, symSize: 0x24 }
  - { offsetInCU: 0x7EFC7, offset: 0x7EFC7, size: 0x8, addend: 0x0, symName: __ZN6mapbox6detail6EarcutIjEC1Ev, symObjAddr: 0x1D71C, symBinAddr: 0x10001FF54, symSize: 0x2C }
  - { offsetInCU: 0x7EFF3, offset: 0x7EFF3, size: 0x8, addend: 0x0, symName: __ZN6mapbox6detail6EarcutIjEclINSt3__16vectorINS5_INS4_5arrayIfLm2EEENS4_9allocatorIS7_EEEENS8_ISA_EEEEEEvRKT_, symObjAddr: 0x1D748, symBinAddr: 0x10001FF80, symSize: 0x384 }
  - { offsetInCU: 0x7F0B0, offset: 0x7F0B0, size: 0x8, addend: 0x0, symName: __ZNSt3__16vectorIjNS_9allocatorIjEEEC1B7v160006EOS3_, symObjAddr: 0x1DACC, symBinAddr: 0x100020304, symSize: 0x34 }
  - { offsetInCU: 0x7F0EB, offset: 0x7F0EB, size: 0x8, addend: 0x0, symName: __ZN6mapbox6detail6EarcutIjED1Ev, symObjAddr: 0x1DB00, symBinAddr: 0x100020338, symSize: 0x2C }
  - { offsetInCU: 0x7F117, offset: 0x7F117, size: 0x8, addend: 0x0, symName: __ZN6mapbox6detail6EarcutIjEC2Ev, symObjAddr: 0x1DB2C, symBinAddr: 0x100020364, symSize: 0x6C }
  - { offsetInCU: 0x7F143, offset: 0x7F143, size: 0x8, addend: 0x0, symName: __ZN6mapbox6detail6EarcutIjE10ObjectPoolINS2_4NodeENSt3__19allocatorIS4_EEEC1Ev, symObjAddr: 0x1DB98, symBinAddr: 0x1000203D0, symSize: 0x2C }
  - { offsetInCU: 0x7F16D, offset: 0x7F16D, size: 0x8, addend: 0x0, symName: __ZN6mapbox6detail6EarcutIjE10ObjectPoolINS2_4NodeENSt3__19allocatorIS4_EEEC2Ev, symObjAddr: 0x1DBC4, symBinAddr: 0x1000203FC, symSize: 0x4C }
  - { offsetInCU: 0x7F197, offset: 0x7F197, size: 0x8, addend: 0x0, symName: __ZNSt3__16vectorIPN6mapbox6detail6EarcutIjE4NodeENS_9allocatorIS6_EEEC1B7v160006Ev, symObjAddr: 0x1DC10, symBinAddr: 0x100020448, symSize: 0x2C }
  - { offsetInCU: 0x7F1C1, offset: 0x7F1C1, size: 0x8, addend: 0x0, symName: __ZNSt3__19allocatorIN6mapbox6detail6EarcutIjE4NodeEEC1B7v160006Ev, symObjAddr: 0x1DC3C, symBinAddr: 0x100020474, symSize: 0x2C }
  - { offsetInCU: 0x7F1EB, offset: 0x7F1EB, size: 0x8, addend: 0x0, symName: __ZNSt3__16vectorIPN6mapbox6detail6EarcutIjE4NodeENS_9allocatorIS6_EEEC2B7v160006Ev, symObjAddr: 0x1DC68, symBinAddr: 0x1000204A0, symSize: 0x58 }
  - { offsetInCU: 0x7F215, offset: 0x7F215, size: 0x8, addend: 0x0, symName: __ZNSt3__117__compressed_pairIPPN6mapbox6detail6EarcutIjE4NodeENS_9allocatorIS6_EEEC1B7v160006IDnNS_18__default_init_tagEEEOT_OT0_, symObjAddr: 0x1DCC0, symBinAddr: 0x1000204F8, symSize: 0x3C }
  - { offsetInCU: 0x7F26D, offset: 0x7F26D, size: 0x8, addend: 0x0, symName: __ZNSt3__117__compressed_pairIPPN6mapbox6detail6EarcutIjE4NodeENS_9allocatorIS6_EEEC2B7v160006IDnNS_18__default_init_tagEEEOT_OT0_, symObjAddr: 0x1DD0C, symBinAddr: 0x100020544, symSize: 0x40 }
  - { offsetInCU: 0x7F2C5, offset: 0x7F2C5, size: 0x8, addend: 0x0, symName: __ZNSt3__122__compressed_pair_elemIPPN6mapbox6detail6EarcutIjE4NodeELi0ELb0EEC2B7v160006IDnvEEOT_, symObjAddr: 0x1DD4C, symBinAddr: 0x100020584, symSize: 0x1C }
  - { offsetInCU: 0x7F307, offset: 0x7F307, size: 0x8, addend: 0x0, symName: __ZNSt3__122__compressed_pair_elemINS_9allocatorIPN6mapbox6detail6EarcutIjE4NodeEEELi1ELb1EEC2B7v160006ENS_18__default_init_tagE, symObjAddr: 0x1DD68, symBinAddr: 0x1000205A0, symSize: 0x2C }
  - { offsetInCU: 0x7F33C, offset: 0x7F33C, size: 0x8, addend: 0x0, symName: __ZNSt3__19allocatorIPN6mapbox6detail6EarcutIjE4NodeEEC2B7v160006Ev, symObjAddr: 0x1DD94, symBinAddr: 0x1000205CC, symSize: 0x2C }
  - { offsetInCU: 0x7F366, offset: 0x7F366, size: 0x8, addend: 0x0, symName: __ZNSt3__116__non_trivial_ifILb1ENS_9allocatorIPN6mapbox6detail6EarcutIjE4NodeEEEEC2B7v160006Ev, symObjAddr: 0x1DDC0, symBinAddr: 0x1000205F8, symSize: 0x14 }
  - { offsetInCU: 0x7F390, offset: 0x7F390, size: 0x8, addend: 0x0, symName: __ZNSt3__19allocatorIN6mapbox6detail6EarcutIjE4NodeEEC2B7v160006Ev, symObjAddr: 0x1DDD4, symBinAddr: 0x10002060C, symSize: 0x2C }
  - { offsetInCU: 0x7F3BA, offset: 0x7F3BA, size: 0x8, addend: 0x0, symName: __ZNSt3__116__non_trivial_ifILb1ENS_9allocatorIN6mapbox6detail6EarcutIjE4NodeEEEEC2B7v160006Ev, symObjAddr: 0x1DE00, symBinAddr: 0x100020638, symSize: 0x14 }
  - { offsetInCU: 0x7F3E4, offset: 0x7F3E4, size: 0x8, addend: 0x0, symName: __ZNSt3__16vectorIjNS_9allocatorIjEEE5clearB7v160006Ev, symObjAddr: 0x1DE14, symBinAddr: 0x10002064C, symSize: 0x4C }
  - { offsetInCU: 0x7F419, offset: 0x7F419, size: 0x8, addend: 0x0, symName: __ZNKSt3__16vectorINS0_INS_5arrayIfLm2EEENS_9allocatorIS2_EEEENS3_IS5_EEE5emptyB7v160006Ev, symObjAddr: 0x1DE60, symBinAddr: 0x100020698, symSize: 0x28 }
  - { offsetInCU: 0x7F43F, offset: 0x7F43F, size: 0x8, addend: 0x0, symName: __ZNKSt3__16vectorINS0_INS_5arrayIfLm2EEENS_9allocatorIS2_EEEENS3_IS5_EEEixB7v160006Em, symObjAddr: 0x1DE88, symBinAddr: 0x1000206C0, symSize: 0x2C }
  - { offsetInCU: 0x7F476, offset: 0x7F476, size: 0x8, addend: 0x0, symName: __ZN6mapbox6detail6EarcutIjE10ObjectPoolINS2_4NodeENSt3__19allocatorIS4_EEE5resetEm, symObjAddr: 0x1DEB4, symBinAddr: 0x1000206EC, symSize: 0xCC }
  - { offsetInCU: 0x7F4FB, offset: 0x7F4FB, size: 0x8, addend: 0x0, symName: __ZNSt3__16vectorIjNS_9allocatorIjEEE7reserveEm, symObjAddr: 0x1DF80, symBinAddr: 0x1000207B8, symSize: 0xE8 }
  - { offsetInCU: 0x7F557, offset: 0x7F557, size: 0x8, addend: 0x0, symName: __ZN6mapbox6detail6EarcutIjE10linkedListINSt3__16vectorINS4_5arrayIfLm2EEENS4_9allocatorIS7_EEEEEEPNS2_4NodeERKT_b, symObjAddr: 0x1E068, symBinAddr: 0x1000208A0, symSize: 0x2A4 }
  - { offsetInCU: 0x7F64D, offset: 0x7F64D, size: 0x8, addend: 0x0, symName: __ZN6mapbox6detail6EarcutIjE14eliminateHolesINSt3__16vectorINS5_INS4_5arrayIfLm2EEENS4_9allocatorIS7_EEEENS8_ISA_EEEEEEPNS2_4NodeERKT_SE_, symObjAddr: 0x1E30C, symBinAddr: 0x100020B44, symSize: 0x210 }
  - { offsetInCU: 0x7F727, offset: 0x7F727, size: 0x8, addend: 0x0, symName: __ZN6mapbox6detail6EarcutIjE12earcutLinkedEPNS2_4NodeEi, symObjAddr: 0x1E574, symBinAddr: 0x100020DAC, symSize: 0x228 }
  - { offsetInCU: 0x7F7A6, offset: 0x7F7A6, size: 0x8, addend: 0x0, symName: __ZN6mapbox6detail6EarcutIjE10ObjectPoolINS2_4NodeENSt3__19allocatorIS4_EEE5clearEv, symObjAddr: 0x1E79C, symBinAddr: 0x100020FD4, symSize: 0x28 }
  - { offsetInCU: 0x7F7CC, offset: 0x7F7CC, size: 0x8, addend: 0x0, symName: __ZNSt3__16vectorIjNS_9allocatorIjEEE7__clearB7v160006Ev, symObjAddr: 0x1E7C4, symBinAddr: 0x100020FFC, symSize: 0x28 }
  - { offsetInCU: 0x7F7F2, offset: 0x7F7F2, size: 0x8, addend: 0x0, symName: __ZNKSt3__16vectorIjNS_9allocatorIjEEE17__annotate_shrinkB7v160006Em, symObjAddr: 0x1E7EC, symBinAddr: 0x100021024, symSize: 0xB4 }
  - { offsetInCU: 0x7F827, offset: 0x7F827, size: 0x8, addend: 0x0, symName: __ZNSt3__16vectorIjNS_9allocatorIjEEE22__base_destruct_at_endB7v160006EPj, symObjAddr: 0x1E8A0, symBinAddr: 0x1000210D8, symSize: 0x8C }
  - { offsetInCU: 0x7F86B, offset: 0x7F86B, size: 0x8, addend: 0x0, symName: __ZNSt3__16vectorIPN6mapbox6detail6EarcutIjE4NodeENS_9allocatorIS6_EEE5beginB7v160006Ev, symObjAddr: 0x1E92C, symBinAddr: 0x100021164, symSize: 0x30 }
  - { offsetInCU: 0x7F893, offset: 0x7F893, size: 0x8, addend: 0x0, symName: __ZNSt3__16vectorIPN6mapbox6detail6EarcutIjE4NodeENS_9allocatorIS6_EEE3endB7v160006Ev, symObjAddr: 0x1E95C, symBinAddr: 0x100021194, symSize: 0x30 }
  - { offsetInCU: 0x7F8BB, offset: 0x7F8BB, size: 0x8, addend: 0x0, symName: __ZNKSt3__111__wrap_iterIPPN6mapbox6detail6EarcutIjE4NodeEEdeB7v160006Ev, symObjAddr: 0x1E9C0, symBinAddr: 0x1000211F8, symSize: 0x18 }
  - { offsetInCU: 0x7F8E6, offset: 0x7F8E6, size: 0x8, addend: 0x0, symName: __ZNSt3__116allocator_traitsINS_9allocatorIN6mapbox6detail6EarcutIjE4NodeEEEE10deallocateB7v160006ERS7_PS6_m, symObjAddr: 0x1E9D8, symBinAddr: 0x100021210, symSize: 0x34 }
  - { offsetInCU: 0x7F928, offset: 0x7F928, size: 0x8, addend: 0x0, symName: __ZNSt3__111__wrap_iterIPPN6mapbox6detail6EarcutIjE4NodeEEppB7v160006Ev, symObjAddr: 0x1EA0C, symBinAddr: 0x100021244, symSize: 0x20 }
  - { offsetInCU: 0x7F94E, offset: 0x7F94E, size: 0x8, addend: 0x0, symName: __ZNSt3__16vectorIPN6mapbox6detail6EarcutIjE4NodeENS_9allocatorIS6_EEE5clearB7v160006Ev, symObjAddr: 0x1EA2C, symBinAddr: 0x100021264, symSize: 0x54 }
  - { offsetInCU: 0x7F983, offset: 0x7F983, size: 0x8, addend: 0x0, symName: __ZNSt3__16vectorIPN6mapbox6detail6EarcutIjE4NodeENS_9allocatorIS6_EEE11__make_iterB7v160006EPS6_, symObjAddr: 0x1EA80, symBinAddr: 0x1000212B8, symSize: 0x34 }
  - { offsetInCU: 0x7F9B8, offset: 0x7F9B8, size: 0x8, addend: 0x0, symName: __ZNSt3__111__wrap_iterIPPN6mapbox6detail6EarcutIjE4NodeEEC1B7v160006EPKvS7_, symObjAddr: 0x1EAB4, symBinAddr: 0x1000212EC, symSize: 0x3C }
  - { offsetInCU: 0x7F9FE, offset: 0x7F9FE, size: 0x8, addend: 0x0, symName: __ZNSt3__111__wrap_iterIPPN6mapbox6detail6EarcutIjE4NodeEEC2B7v160006EPKvS7_, symObjAddr: 0x1EAF0, symBinAddr: 0x100021328, symSize: 0x24 }
  - { offsetInCU: 0x7FA44, offset: 0x7FA44, size: 0x8, addend: 0x0, symName: __ZNKSt3__111__wrap_iterIPPN6mapbox6detail6EarcutIjE4NodeEE4baseB7v160006Ev, symObjAddr: 0x1EB5C, symBinAddr: 0x100021394, symSize: 0x18 }
  - { offsetInCU: 0x7FA6A, offset: 0x7FA6A, size: 0x8, addend: 0x0, symName: __ZNSt3__19allocatorIN6mapbox6detail6EarcutIjE4NodeEE10deallocateB7v160006EPS5_m, symObjAddr: 0x1EB74, symBinAddr: 0x1000213AC, symSize: 0x44 }
  - { offsetInCU: 0x7FAAC, offset: 0x7FAAC, size: 0x8, addend: 0x0, symName: __ZNKSt3__16vectorIPN6mapbox6detail6EarcutIjE4NodeENS_9allocatorIS6_EEE4sizeB7v160006Ev, symObjAddr: 0x1EBB8, symBinAddr: 0x1000213F0, symSize: 0x28 }
  - { offsetInCU: 0x7FAD2, offset: 0x7FAD2, size: 0x8, addend: 0x0, symName: __ZNSt3__16vectorIPN6mapbox6detail6EarcutIjE4NodeENS_9allocatorIS6_EEE7__clearB7v160006Ev, symObjAddr: 0x1EBE0, symBinAddr: 0x100021418, symSize: 0x28 }
  - { offsetInCU: 0x7FAF8, offset: 0x7FAF8, size: 0x8, addend: 0x0, symName: __ZNKSt3__16vectorIPN6mapbox6detail6EarcutIjE4NodeENS_9allocatorIS6_EEE17__annotate_shrinkB7v160006Em, symObjAddr: 0x1EC08, symBinAddr: 0x100021440, symSize: 0xB4 }
  - { offsetInCU: 0x7FB2D, offset: 0x7FB2D, size: 0x8, addend: 0x0, symName: __ZNSt3__16vectorIPN6mapbox6detail6EarcutIjE4NodeENS_9allocatorIS6_EEE22__base_destruct_at_endB7v160006EPS6_, symObjAddr: 0x1ECCC, symBinAddr: 0x100021504, symSize: 0x8C }
  - { offsetInCU: 0x7FB71, offset: 0x7FB71, size: 0x8, addend: 0x0, symName: __ZNSt3__116allocator_traitsINS_9allocatorIPN6mapbox6detail6EarcutIjE4NodeEEEE7destroyB7v160006IS7_vEEvRS8_PT_, symObjAddr: 0x1ED58, symBinAddr: 0x100021590, symSize: 0x2C }
  - { offsetInCU: 0x7FBAE, offset: 0x7FBAE, size: 0x8, addend: 0x0, symName: __ZNSt3__16vectorIPN6mapbox6detail6EarcutIjE4NodeENS_9allocatorIS6_EEE7__allocB7v160006Ev, symObjAddr: 0x1ED84, symBinAddr: 0x1000215BC, symSize: 0x28 }
  - { offsetInCU: 0x7FBD4, offset: 0x7FBD4, size: 0x8, addend: 0x0, symName: __ZNSt3__19allocatorIPN6mapbox6detail6EarcutIjE4NodeEE7destroyB7v160006EPS6_, symObjAddr: 0x1EDC0, symBinAddr: 0x1000215F8, symSize: 0x14 }
  - { offsetInCU: 0x7FC08, offset: 0x7FC08, size: 0x8, addend: 0x0, symName: __ZNSt3__117__compressed_pairIPPN6mapbox6detail6EarcutIjE4NodeENS_9allocatorIS6_EEE6secondB7v160006Ev, symObjAddr: 0x1EDD4, symBinAddr: 0x10002160C, symSize: 0x24 }
  - { offsetInCU: 0x7FC2E, offset: 0x7FC2E, size: 0x8, addend: 0x0, symName: __ZNSt3__122__compressed_pair_elemINS_9allocatorIPN6mapbox6detail6EarcutIjE4NodeEEELi1ELb1EE5__getB7v160006Ev, symObjAddr: 0x1EDF8, symBinAddr: 0x100021630, symSize: 0x14 }
  - { offsetInCU: 0x7FC54, offset: 0x7FC54, size: 0x8, addend: 0x0, symName: __ZNKSt3__16vectorIPN6mapbox6detail6EarcutIjE4NodeENS_9allocatorIS6_EEE31__annotate_contiguous_containerB7v160006EPKvSB_SB_SB_, symObjAddr: 0x1EE0C, symBinAddr: 0x100021644, symSize: 0x20 }
  - { offsetInCU: 0x7FCAA, offset: 0x7FCAA, size: 0x8, addend: 0x0, symName: __ZNKSt3__16vectorIPN6mapbox6detail6EarcutIjE4NodeENS_9allocatorIS6_EEE4dataB7v160006Ev, symObjAddr: 0x1EE2C, symBinAddr: 0x100021664, symSize: 0x28 }
  - { offsetInCU: 0x7FCD0, offset: 0x7FCD0, size: 0x8, addend: 0x0, symName: __ZNKSt3__16vectorIPN6mapbox6detail6EarcutIjE4NodeENS_9allocatorIS6_EEE8capacityB7v160006Ev, symObjAddr: 0x1EE54, symBinAddr: 0x10002168C, symSize: 0x40 }
  - { offsetInCU: 0x7FCF6, offset: 0x7FCF6, size: 0x8, addend: 0x0, symName: __ZNKSt3__16vectorIPN6mapbox6detail6EarcutIjE4NodeENS_9allocatorIS6_EEE9__end_capB7v160006Ev, symObjAddr: 0x1EE94, symBinAddr: 0x1000216CC, symSize: 0x28 }
  - { offsetInCU: 0x7FD1C, offset: 0x7FD1C, size: 0x8, addend: 0x0, symName: __ZNKSt3__117__compressed_pairIPPN6mapbox6detail6EarcutIjE4NodeENS_9allocatorIS6_EEE5firstB7v160006Ev, symObjAddr: 0x1EEBC, symBinAddr: 0x1000216F4, symSize: 0x24 }
  - { offsetInCU: 0x7FD42, offset: 0x7FD42, size: 0x8, addend: 0x0, symName: __ZNKSt3__122__compressed_pair_elemIPPN6mapbox6detail6EarcutIjE4NodeELi0ELb0EE5__getB7v160006Ev, symObjAddr: 0x1EEE0, symBinAddr: 0x100021718, symSize: 0x14 }
  - { offsetInCU: 0x7FD68, offset: 0x7FD68, size: 0x8, addend: 0x0, symName: __ZNKSt3__16vectorINS_5arrayIfLm2EEENS_9allocatorIS2_EEEixB7v160006Em, symObjAddr: 0x1EEF4, symBinAddr: 0x10002172C, symSize: 0x24 }
  - { offsetInCU: 0x7FD9F, offset: 0x7FD9F, size: 0x8, addend: 0x0, symName: __ZN6mapbox4util3nthILm0ENSt3__15arrayIfLm2EEEE3getERKS4_, symObjAddr: 0x1EF18, symBinAddr: 0x100021750, symSize: 0x28 }
  - { offsetInCU: 0x7FDC2, offset: 0x7FDC2, size: 0x8, addend: 0x0, symName: __ZN6mapbox4util3nthILm1ENSt3__15arrayIfLm2EEEE3getERKS4_, symObjAddr: 0x1EF40, symBinAddr: 0x100021778, symSize: 0x28 }
  - { offsetInCU: 0x7FDE5, offset: 0x7FDE5, size: 0x8, addend: 0x0, symName: __ZN6mapbox6detail6EarcutIjE10insertNodeINSt3__15arrayIfLm2EEEEEPNS2_4NodeEmRKT_S8_, symObjAddr: 0x1EF68, symBinAddr: 0x1000217A0, symSize: 0x124 }
  - { offsetInCU: 0x7FE4F, offset: 0x7FE4F, size: 0x8, addend: 0x0, symName: __ZN6mapbox6detail6EarcutIjE6equalsEPKNS2_4NodeES5_, symObjAddr: 0x1F08C, symBinAddr: 0x1000218C4, symSize: 0x68 }
  - { offsetInCU: 0x7FE93, offset: 0x7FE93, size: 0x8, addend: 0x0, symName: __ZN6mapbox6detail6EarcutIjE10removeNodeEPNS2_4NodeE, symObjAddr: 0x1F0F4, symBinAddr: 0x10002192C, symSize: 0x9C }
  - { offsetInCU: 0x7FECF, offset: 0x7FECF, size: 0x8, addend: 0x0, symName: __ZN6mapbox6detail6EarcutIjE10ObjectPoolINS2_4NodeENSt3__19allocatorIS4_EEE9constructIJjffEEEPS4_DpOT_, symObjAddr: 0x1F1BC, symBinAddr: 0x1000219F4, symSize: 0xB4 }
  - { offsetInCU: 0x7FF42, offset: 0x7FF42, size: 0x8, addend: 0x0, symName: __ZNSt3__116allocator_traitsINS_9allocatorIN6mapbox6detail6EarcutIjE4NodeEEEE8allocateB7v160006ERS7_m, symObjAddr: 0x1F270, symBinAddr: 0x100021AA8, symSize: 0x2C }
  - { offsetInCU: 0x7FF75, offset: 0x7FF75, size: 0x8, addend: 0x0, symName: __ZNSt3__16vectorIPN6mapbox6detail6EarcutIjE4NodeENS_9allocatorIS6_EEE12emplace_backIJRS6_EEESB_DpOT_, symObjAddr: 0x1F29C, symBinAddr: 0x100021AD4, symSize: 0x74 }
  - { offsetInCU: 0x7FFB7, offset: 0x7FFB7, size: 0x8, addend: 0x0, symName: __ZNSt3__116allocator_traitsINS_9allocatorIN6mapbox6detail6EarcutIjE4NodeEEEE9constructB7v160006IS6_JjffEvEEvRS7_PT_DpOT0_, symObjAddr: 0x1F310, symBinAddr: 0x100021B48, symSize: 0x44 }
  - { offsetInCU: 0x80036, offset: 0x80036, size: 0x8, addend: 0x0, symName: __ZNSt3__19allocatorIN6mapbox6detail6EarcutIjE4NodeEE8allocateB7v160006Em, symObjAddr: 0x1F354, symBinAddr: 0x100021B8C, symSize: 0x5C }
  - { offsetInCU: 0x80074, offset: 0x80074, size: 0x8, addend: 0x0, symName: __ZNSt3__116allocator_traitsINS_9allocatorIN6mapbox6detail6EarcutIjE4NodeEEEE8max_sizeB7v160006IS7_vEEmRKS7_, symObjAddr: 0x1F3B0, symBinAddr: 0x100021BE8, symSize: 0x24 }
  - { offsetInCU: 0x800A2, offset: 0x800A2, size: 0x8, addend: 0x0, symName: __ZNKSt3__19allocatorIN6mapbox6detail6EarcutIjE4NodeEE8max_sizeB7v160006Ev, symObjAddr: 0x1F3D4, symBinAddr: 0x100021C0C, symSize: 0x20 }
  - { offsetInCU: 0x800C8, offset: 0x800C8, size: 0x8, addend: 0x0, symName: __ZNSt3__16vectorIPN6mapbox6detail6EarcutIjE4NodeENS_9allocatorIS6_EEE9__end_capB7v160006Ev, symObjAddr: 0x1F3F4, symBinAddr: 0x100021C2C, symSize: 0x28 }
  - { offsetInCU: 0x800EE, offset: 0x800EE, size: 0x8, addend: 0x0, symName: __ZNSt3__16vectorIPN6mapbox6detail6EarcutIjE4NodeENS_9allocatorIS6_EEE22__construct_one_at_endB7v160006IJRS6_EEEvDpOT_, symObjAddr: 0x1F41C, symBinAddr: 0x100021C54, symSize: 0x90 }
  - { offsetInCU: 0x8013D, offset: 0x8013D, size: 0x8, addend: 0x0, symName: __ZNSt3__16vectorIPN6mapbox6detail6EarcutIjE4NodeENS_9allocatorIS6_EEE24__emplace_back_slow_pathIJRS6_EEEvDpOT_, symObjAddr: 0x1F4AC, symBinAddr: 0x100021CE4, symSize: 0xD8 }
  - { offsetInCU: 0x8019D, offset: 0x8019D, size: 0x8, addend: 0x0, symName: __ZNSt3__16vectorIPN6mapbox6detail6EarcutIjE4NodeENS_9allocatorIS6_EEE4backB7v160006Ev, symObjAddr: 0x1F584, symBinAddr: 0x100021DBC, symSize: 0x1C }
  - { offsetInCU: 0x801C3, offset: 0x801C3, size: 0x8, addend: 0x0, symName: __ZNSt3__117__compressed_pairIPPN6mapbox6detail6EarcutIjE4NodeENS_9allocatorIS6_EEE5firstB7v160006Ev, symObjAddr: 0x1F5A0, symBinAddr: 0x100021DD8, symSize: 0x24 }
  - { offsetInCU: 0x801E9, offset: 0x801E9, size: 0x8, addend: 0x0, symName: __ZNSt3__122__compressed_pair_elemIPPN6mapbox6detail6EarcutIjE4NodeELi0ELb0EE5__getB7v160006Ev, symObjAddr: 0x1F5C4, symBinAddr: 0x100021DFC, symSize: 0x14 }
  - { offsetInCU: 0x80228, offset: 0x80228, size: 0x8, addend: 0x0, symName: __ZNSt3__16vectorIPN6mapbox6detail6EarcutIjE4NodeENS_9allocatorIS6_EEE21_ConstructTransactionC1B7v160006ERS9_m, symObjAddr: 0x1F5D8, symBinAddr: 0x100021E10, symSize: 0x3C }
  - { offsetInCU: 0x80270, offset: 0x80270, size: 0x8, addend: 0x0, symName: __ZNSt3__116allocator_traitsINS_9allocatorIPN6mapbox6detail6EarcutIjE4NodeEEEE9constructB7v160006IS7_JRS7_EvEEvRS8_PT_DpOT0_, symObjAddr: 0x1F614, symBinAddr: 0x100021E4C, symSize: 0x34 }
  - { offsetInCU: 0x802C7, offset: 0x802C7, size: 0x8, addend: 0x0, symName: __ZNSt3__16vectorIPN6mapbox6detail6EarcutIjE4NodeENS_9allocatorIS6_EEE21_ConstructTransactionD1B7v160006Ev, symObjAddr: 0x1F648, symBinAddr: 0x100021E80, symSize: 0x2C }
  - { offsetInCU: 0x802F1, offset: 0x802F1, size: 0x8, addend: 0x0, symName: __ZNSt3__16vectorIPN6mapbox6detail6EarcutIjE4NodeENS_9allocatorIS6_EEE21_ConstructTransactionC2B7v160006ERS9_m, symObjAddr: 0x1F674, symBinAddr: 0x100021EAC, symSize: 0x44 }
  - { offsetInCU: 0x80339, offset: 0x80339, size: 0x8, addend: 0x0, symName: __ZNSt3__19allocatorIPN6mapbox6detail6EarcutIjE4NodeEE9constructB7v160006IS6_JRS6_EEEvPT_DpOT0_, symObjAddr: 0x1F6B8, symBinAddr: 0x100021EF0, symSize: 0x28 }
  - { offsetInCU: 0x8038F, offset: 0x8038F, size: 0x8, addend: 0x0, symName: __ZNSt3__16vectorIPN6mapbox6detail6EarcutIjE4NodeENS_9allocatorIS6_EEE21_ConstructTransactionD2B7v160006Ev, symObjAddr: 0x1F6E0, symBinAddr: 0x100021F18, symSize: 0x20 }
  - { offsetInCU: 0x803B9, offset: 0x803B9, size: 0x8, addend: 0x0, symName: __ZNKSt3__16vectorIPN6mapbox6detail6EarcutIjE4NodeENS_9allocatorIS6_EEE11__recommendB7v160006Em, symObjAddr: 0x1F700, symBinAddr: 0x100021F38, symSize: 0xB4 }
  - { offsetInCU: 0x8040E, offset: 0x8040E, size: 0x8, addend: 0x0, symName: __ZNSt3__114__split_bufferIPN6mapbox6detail6EarcutIjE4NodeERNS_9allocatorIS6_EEEC1EmmS9_, symObjAddr: 0x1F7B4, symBinAddr: 0x100021FEC, symSize: 0x44 }
  - { offsetInCU: 0x80464, offset: 0x80464, size: 0x8, addend: 0x0, symName: __ZNSt3__114__split_bufferIPN6mapbox6detail6EarcutIjE4NodeERNS_9allocatorIS6_EEED1Ev, symObjAddr: 0x1F910, symBinAddr: 0x100022148, symSize: 0x2C }
  - { offsetInCU: 0x80490, offset: 0x80490, size: 0x8, addend: 0x0, symName: __ZNKSt3__16vectorIPN6mapbox6detail6EarcutIjE4NodeENS_9allocatorIS6_EEE8max_sizeEv, symObjAddr: 0x1F93C, symBinAddr: 0x100022174, symSize: 0x60 }
  - { offsetInCU: 0x804B8, offset: 0x804B8, size: 0x8, addend: 0x0, symName: __ZNKSt3__16vectorIPN6mapbox6detail6EarcutIjE4NodeENS_9allocatorIS6_EEE20__throw_length_errorB7v160006Ev, symObjAddr: 0x1F99C, symBinAddr: 0x1000221D4, symSize: 0x1C }
  - { offsetInCU: 0x804E8, offset: 0x804E8, size: 0x8, addend: 0x0, symName: __ZNSt3__116allocator_traitsINS_9allocatorIPN6mapbox6detail6EarcutIjE4NodeEEEE8max_sizeB7v160006IS8_vEEmRKS8_, symObjAddr: 0x1F9B8, symBinAddr: 0x1000221F0, symSize: 0x24 }
  - { offsetInCU: 0x80516, offset: 0x80516, size: 0x8, addend: 0x0, symName: __ZNKSt3__16vectorIPN6mapbox6detail6EarcutIjE4NodeENS_9allocatorIS6_EEE7__allocB7v160006Ev, symObjAddr: 0x1F9DC, symBinAddr: 0x100022214, symSize: 0x28 }
  - { offsetInCU: 0x8053C, offset: 0x8053C, size: 0x8, addend: 0x0, symName: __ZNKSt3__19allocatorIPN6mapbox6detail6EarcutIjE4NodeEE8max_sizeB7v160006Ev, symObjAddr: 0x1FA04, symBinAddr: 0x10002223C, symSize: 0x14 }
  - { offsetInCU: 0x80562, offset: 0x80562, size: 0x8, addend: 0x0, symName: __ZNKSt3__117__compressed_pairIPPN6mapbox6detail6EarcutIjE4NodeENS_9allocatorIS6_EEE6secondB7v160006Ev, symObjAddr: 0x1FA18, symBinAddr: 0x100022250, symSize: 0x24 }
  - { offsetInCU: 0x80588, offset: 0x80588, size: 0x8, addend: 0x0, symName: __ZNKSt3__122__compressed_pair_elemINS_9allocatorIPN6mapbox6detail6EarcutIjE4NodeEEELi1ELb1EE5__getB7v160006Ev, symObjAddr: 0x1FA3C, symBinAddr: 0x100022274, symSize: 0x14 }
  - { offsetInCU: 0x805AE, offset: 0x805AE, size: 0x8, addend: 0x0, symName: __ZNSt3__114__split_bufferIPN6mapbox6detail6EarcutIjE4NodeERNS_9allocatorIS6_EEEC2EmmS9_, symObjAddr: 0x1FA50, symBinAddr: 0x100022288, symSize: 0xD4 }
  - { offsetInCU: 0x80621, offset: 0x80621, size: 0x8, addend: 0x0, symName: __ZNSt3__117__compressed_pairIPPN6mapbox6detail6EarcutIjE4NodeERNS_9allocatorIS6_EEEC1B7v160006IDnSA_EEOT_OT0_, symObjAddr: 0x1FB24, symBinAddr: 0x10002235C, symSize: 0x3C }
  - { offsetInCU: 0x80679, offset: 0x80679, size: 0x8, addend: 0x0, symName: __ZNSt3__114__split_bufferIPN6mapbox6detail6EarcutIjE4NodeERNS_9allocatorIS6_EEE7__allocB7v160006Ev, symObjAddr: 0x1FBA0, symBinAddr: 0x1000223D8, symSize: 0x28 }
  - { offsetInCU: 0x8069F, offset: 0x8069F, size: 0x8, addend: 0x0, symName: __ZNSt3__114__split_bufferIPN6mapbox6detail6EarcutIjE4NodeERNS_9allocatorIS6_EEE9__end_capB7v160006Ev, symObjAddr: 0x1FBC8, symBinAddr: 0x100022400, symSize: 0x28 }
  - { offsetInCU: 0x806C5, offset: 0x806C5, size: 0x8, addend: 0x0, symName: __ZNSt3__117__compressed_pairIPPN6mapbox6detail6EarcutIjE4NodeERNS_9allocatorIS6_EEEC2B7v160006IDnSA_EEOT_OT0_, symObjAddr: 0x1FBF0, symBinAddr: 0x100022428, symSize: 0x48 }
  - { offsetInCU: 0x8071D, offset: 0x8071D, size: 0x8, addend: 0x0, symName: __ZNSt3__122__compressed_pair_elemIRNS_9allocatorIPN6mapbox6detail6EarcutIjE4NodeEEELi1ELb0EEC2B7v160006IS9_vEEOT_, symObjAddr: 0x1FC38, symBinAddr: 0x100022470, symSize: 0x20 }
  - { offsetInCU: 0x8075F, offset: 0x8075F, size: 0x8, addend: 0x0, symName: __ZNSt3__19allocatorIPN6mapbox6detail6EarcutIjE4NodeEE8allocateB7v160006Em, symObjAddr: 0x1FC58, symBinAddr: 0x100022490, symSize: 0x58 }
  - { offsetInCU: 0x80793, offset: 0x80793, size: 0x8, addend: 0x0, symName: __ZNSt3__117__compressed_pairIPPN6mapbox6detail6EarcutIjE4NodeERNS_9allocatorIS6_EEE6secondB7v160006Ev, symObjAddr: 0x1FCB0, symBinAddr: 0x1000224E8, symSize: 0x28 }
  - { offsetInCU: 0x807B9, offset: 0x807B9, size: 0x8, addend: 0x0, symName: __ZNSt3__122__compressed_pair_elemIRNS_9allocatorIPN6mapbox6detail6EarcutIjE4NodeEEELi1ELb0EE5__getB7v160006Ev, symObjAddr: 0x1FCD8, symBinAddr: 0x100022510, symSize: 0x18 }
  - { offsetInCU: 0x807DF, offset: 0x807DF, size: 0x8, addend: 0x0, symName: __ZNSt3__117__compressed_pairIPPN6mapbox6detail6EarcutIjE4NodeERNS_9allocatorIS6_EEE5firstB7v160006Ev, symObjAddr: 0x1FCF0, symBinAddr: 0x100022528, symSize: 0x24 }
  - { offsetInCU: 0x80805, offset: 0x80805, size: 0x8, addend: 0x0, symName: __ZNKSt3__16vectorIPN6mapbox6detail6EarcutIjE4NodeENS_9allocatorIS6_EEE17__annotate_deleteB7v160006Ev, symObjAddr: 0x1FD14, symBinAddr: 0x10002254C, symSize: 0xB8 }
  - { offsetInCU: 0x8082B, offset: 0x8082B, size: 0x8, addend: 0x0, symName: __ZNSt3__116reverse_iteratorIPPN6mapbox6detail6EarcutIjE4NodeEEC1B7v160006ES7_, symObjAddr: 0x1FE44, symBinAddr: 0x10002267C, symSize: 0x34 }
  - { offsetInCU: 0x80863, offset: 0x80863, size: 0x8, addend: 0x0, symName: __ZNKSt3__116reverse_iteratorIPPN6mapbox6detail6EarcutIjE4NodeEE4baseB7v160006Ev, symObjAddr: 0x1FE78, symBinAddr: 0x1000226B0, symSize: 0x18 }
  - { offsetInCU: 0x80889, offset: 0x80889, size: 0x8, addend: 0x0, symName: __ZNKSt3__16vectorIPN6mapbox6detail6EarcutIjE4NodeENS_9allocatorIS6_EEE14__annotate_newB7v160006Em, symObjAddr: 0x1FECC, symBinAddr: 0x100022704, symSize: 0xAC }
  - { offsetInCU: 0x808D8, offset: 0x808D8, size: 0x8, addend: 0x0, symName: __ZNKSt3__111__move_loopINS_17_ClassicAlgPolicyEEclB7v160006INS_16reverse_iteratorIPPN6mapbox6detail6EarcutIjE4NodeEEESC_SC_EENS_4pairIT_T1_EESE_T0_SF_, symObjAddr: 0x20268, symBinAddr: 0x100022AA0, symSize: 0xA0 }
  - { offsetInCU: 0x80949, offset: 0x80949, size: 0x8, addend: 0x0, symName: __ZNSt3__18_IterOpsINS_17_ClassicAlgPolicyEE11__iter_moveB7v160006IRNS_16reverse_iteratorIPPN6mapbox6detail6EarcutIjE4NodeEEEEENS_9enable_ifIXsr12is_referenceIDTdeclsr3stdE7declvalIRT_EEEEE5valueEDTclsr3stdE4movedeclsr3stdE7declvalISG_EEEEE4typeEOSF_, symObjAddr: 0x2049C, symBinAddr: 0x100022CD4, symSize: 0x28 }
  - { offsetInCU: 0x80975, offset: 0x80975, size: 0x8, addend: 0x0, symName: __ZNKSt3__116reverse_iteratorIPPN6mapbox6detail6EarcutIjE4NodeEEdeB7v160006Ev, symObjAddr: 0x204C4, symBinAddr: 0x100022CFC, symSize: 0x28 }
  - { offsetInCU: 0x809A9, offset: 0x809A9, size: 0x8, addend: 0x0, symName: __ZNSt3__116reverse_iteratorIPPN6mapbox6detail6EarcutIjE4NodeEEppB7v160006Ev, symObjAddr: 0x204EC, symBinAddr: 0x100022D24, symSize: 0x20 }
  - { offsetInCU: 0x809CF, offset: 0x809CF, size: 0x8, addend: 0x0, symName: __ZNSt3__18_IterOpsINS_17_ClassicAlgPolicyEE25__validate_iter_referenceB7v160006IRNS_16reverse_iteratorIPPN6mapbox6detail6EarcutIjE4NodeEEEEEvv, symObjAddr: 0x2050C, symBinAddr: 0x100022D44, symSize: 0x4 }
  - { offsetInCU: 0x809ED, offset: 0x809ED, size: 0x8, addend: 0x0, symName: __ZNSt3__118__unwrap_iter_implINS_16reverse_iteratorIPPN6mapbox6detail6EarcutIjE4NodeEEELb0EE8__unwrapB7v160006ES9_, symObjAddr: 0x20510, symBinAddr: 0x100022D48, symSize: 0x24 }
  - { offsetInCU: 0x80A16, offset: 0x80A16, size: 0x8, addend: 0x0, symName: __ZNSt3__14pairINS_16reverse_iteratorIPPN6mapbox6detail6EarcutIjE4NodeEEES9_EC1B7v160006IS9_S9_LPv0EEEOT_OT0_, symObjAddr: 0x20534, symBinAddr: 0x100022D6C, symSize: 0x3C }
  - { offsetInCU: 0x80A74, offset: 0x80A74, size: 0x8, addend: 0x0, symName: __ZNSt3__14pairINS_16reverse_iteratorIPPN6mapbox6detail6EarcutIjE4NodeEEES9_EC2B7v160006IS9_S9_LPv0EEEOT_OT0_, symObjAddr: 0x20570, symBinAddr: 0x100022DA8, symSize: 0x34 }
  - { offsetInCU: 0x80AD2, offset: 0x80AD2, size: 0x8, addend: 0x0, symName: __ZNSt3__118__unwrap_iter_implINS_16reverse_iteratorIPPN6mapbox6detail6EarcutIjE4NodeEEELb0EE8__rewrapB7v160006ES9_S9_, symObjAddr: 0x205A4, symBinAddr: 0x100022DDC, symSize: 0x2C }
  - { offsetInCU: 0x80B00, offset: 0x80B00, size: 0x8, addend: 0x0, symName: __ZNSt3__116reverse_iteratorIPPN6mapbox6detail6EarcutIjE4NodeEEC2B7v160006ES7_, symObjAddr: 0x205D0, symBinAddr: 0x100022E08, symSize: 0x28 }
  - { offsetInCU: 0x80B38, offset: 0x80B38, size: 0x8, addend: 0x0, symName: __ZNSt3__114__split_bufferIPN6mapbox6detail6EarcutIjE4NodeERNS_9allocatorIS6_EEED2Ev, symObjAddr: 0x205F8, symBinAddr: 0x100022E30, symSize: 0x8C }
  - { offsetInCU: 0x80B64, offset: 0x80B64, size: 0x8, addend: 0x0, symName: __ZNSt3__114__split_bufferIPN6mapbox6detail6EarcutIjE4NodeERNS_9allocatorIS6_EEE5clearB7v160006Ev, symObjAddr: 0x20684, symBinAddr: 0x100022EBC, symSize: 0x28 }
  - { offsetInCU: 0x80B8A, offset: 0x80B8A, size: 0x8, addend: 0x0, symName: __ZNSt3__116allocator_traitsINS_9allocatorIPN6mapbox6detail6EarcutIjE4NodeEEEE10deallocateB7v160006ERS8_PS7_m, symObjAddr: 0x206AC, symBinAddr: 0x100022EE4, symSize: 0x34 }
  - { offsetInCU: 0x80BCC, offset: 0x80BCC, size: 0x8, addend: 0x0, symName: __ZNKSt3__114__split_bufferIPN6mapbox6detail6EarcutIjE4NodeERNS_9allocatorIS6_EEE8capacityB7v160006Ev, symObjAddr: 0x206E0, symBinAddr: 0x100022F18, symSize: 0x40 }
  - { offsetInCU: 0x80BF2, offset: 0x80BF2, size: 0x8, addend: 0x0, symName: __ZNSt3__114__split_bufferIPN6mapbox6detail6EarcutIjE4NodeERNS_9allocatorIS6_EEE17__destruct_at_endB7v160006EPS6_, symObjAddr: 0x20720, symBinAddr: 0x100022F58, symSize: 0x2C }
  - { offsetInCU: 0x80C26, offset: 0x80C26, size: 0x8, addend: 0x0, symName: __ZNSt3__114__split_bufferIPN6mapbox6detail6EarcutIjE4NodeERNS_9allocatorIS6_EEE17__destruct_at_endB7v160006EPS6_NS_17integral_constantIbLb0EEE, symObjAddr: 0x2074C, symBinAddr: 0x100022F84, symSize: 0x80 }
  - { offsetInCU: 0x80C67, offset: 0x80C67, size: 0x8, addend: 0x0, symName: __ZNSt3__19allocatorIPN6mapbox6detail6EarcutIjE4NodeEE10deallocateB7v160006EPS6_m, symObjAddr: 0x207CC, symBinAddr: 0x100023004, symSize: 0x40 }
  - { offsetInCU: 0x80CA9, offset: 0x80CA9, size: 0x8, addend: 0x0, symName: __ZNKSt3__114__split_bufferIPN6mapbox6detail6EarcutIjE4NodeERNS_9allocatorIS6_EEE9__end_capB7v160006Ev, symObjAddr: 0x2080C, symBinAddr: 0x100023044, symSize: 0x28 }
  - { offsetInCU: 0x80CCF, offset: 0x80CCF, size: 0x8, addend: 0x0, symName: __ZNKSt3__117__compressed_pairIPPN6mapbox6detail6EarcutIjE4NodeERNS_9allocatorIS6_EEE5firstB7v160006Ev, symObjAddr: 0x20834, symBinAddr: 0x10002306C, symSize: 0x24 }
  - { offsetInCU: 0x80CF5, offset: 0x80CF5, size: 0x8, addend: 0x0, symName: __ZNSt3__19allocatorIN6mapbox6detail6EarcutIjE4NodeEE9constructB7v160006IS5_JjffEEEvPT_DpOT0_, symObjAddr: 0x20858, symBinAddr: 0x100023090, symSize: 0x54 }
  - { offsetInCU: 0x80D71, offset: 0x80D71, size: 0x8, addend: 0x0, symName: __ZN6mapbox6detail6EarcutIjE4NodeC1Ejdd, symObjAddr: 0x208AC, symBinAddr: 0x1000230E4, symSize: 0x44 }
  - { offsetInCU: 0x80DC5, offset: 0x80DC5, size: 0x8, addend: 0x0, symName: __ZN6mapbox6detail6EarcutIjE4NodeC2Ejdd, symObjAddr: 0x208F0, symBinAddr: 0x100023128, symSize: 0x50 }
  - { offsetInCU: 0x80E19, offset: 0x80E19, size: 0x8, addend: 0x0, symName: __ZNSt3__16vectorIPN6mapbox6detail6EarcutIjE4NodeENS_9allocatorIS6_EEE9push_backB7v160006EOS6_, symObjAddr: 0x20940, symBinAddr: 0x100023178, symSize: 0x6C }
  - { offsetInCU: 0x80E50, offset: 0x80E50, size: 0x8, addend: 0x0, symName: __ZN6mapbox6detail6EarcutIjE11getLeftmostEPNS2_4NodeE, symObjAddr: 0x209AC, symBinAddr: 0x1000231E4, symSize: 0xC0 }
  - { offsetInCU: 0x80EA4, offset: 0x80EA4, size: 0x8, addend: 0x0, symName: __ZN6mapbox6detail6EarcutIjE13eliminateHoleEPNS2_4NodeES4_, symObjAddr: 0x20AAC, symBinAddr: 0x1000232E4, symSize: 0xE4 }
  - { offsetInCU: 0x80F15, offset: 0x80F15, size: 0x8, addend: 0x0, symName: __ZNSt3__16vectorIPN6mapbox6detail6EarcutIjE4NodeENS_9allocatorIS6_EEEixB7v160006Em, symObjAddr: 0x20B90, symBinAddr: 0x1000233C8, symSize: 0x24 }
  - { offsetInCU: 0x80F4C, offset: 0x80F4C, size: 0x8, addend: 0x0, symName: __ZN6mapbox6detail6EarcutIjE12filterPointsEPNS2_4NodeES4_, symObjAddr: 0x20BB4, symBinAddr: 0x1000233EC, symSize: 0x14C }
  - { offsetInCU: 0x80FAB, offset: 0x80FAB, size: 0x8, addend: 0x0, symName: __ZNSt3__16vectorIPN6mapbox6detail6EarcutIjE4NodeENS_9allocatorIS6_EEED1B7v160006Ev, symObjAddr: 0x20D00, symBinAddr: 0x100023538, symSize: 0x2C }
  - { offsetInCU: 0x80FD5, offset: 0x80FD5, size: 0x8, addend: 0x0, symName: __ZNSt3__16vectorIPN6mapbox6detail6EarcutIjE4NodeENS_9allocatorIS6_EEE22__construct_one_at_endB7v160006IJS6_EEEvDpOT_, symObjAddr: 0x20D2C, symBinAddr: 0x100023564, symSize: 0x90 }
  - { offsetInCU: 0x81024, offset: 0x81024, size: 0x8, addend: 0x0, symName: __ZNSt3__16vectorIPN6mapbox6detail6EarcutIjE4NodeENS_9allocatorIS6_EEE21__push_back_slow_pathIS6_EEvOT_, symObjAddr: 0x20DBC, symBinAddr: 0x1000235F4, symSize: 0xD8 }
  - { offsetInCU: 0x81082, offset: 0x81082, size: 0x8, addend: 0x0, symName: __ZNSt3__116allocator_traitsINS_9allocatorIPN6mapbox6detail6EarcutIjE4NodeEEEE9constructB7v160006IS7_JS7_EvEEvRS8_PT_DpOT0_, symObjAddr: 0x20E94, symBinAddr: 0x1000236CC, symSize: 0x34 }
  - { offsetInCU: 0x810D9, offset: 0x810D9, size: 0x8, addend: 0x0, symName: __ZNSt3__19allocatorIPN6mapbox6detail6EarcutIjE4NodeEE9constructB7v160006IS6_JS6_EEEvPT_DpOT0_, symObjAddr: 0x20EC8, symBinAddr: 0x100023700, symSize: 0x28 }
  - { offsetInCU: 0x81134, offset: 0x81134, size: 0x8, addend: 0x0, symName: __ZNSt3__116_UnwrapAlgPolicyIRZN6mapbox6detail6EarcutIjE14eliminateHolesINS_6vectorINS6_INS_5arrayIfLm2EEENS_9allocatorIS8_EEEENS9_ISB_EEEEEEPNS4_4NodeERKT_SF_EUlPKSE_SK_E_E10__get_compB7v160006ESM_, symObjAddr: 0x21070, symBinAddr: 0x1000238A8, symSize: 0x14 }
  - { offsetInCU: 0x81161, offset: 0x81161, size: 0x8, addend: 0x0, symName: __ZZN6mapbox6detail6EarcutIjE14eliminateHolesINSt3__16vectorINS5_INS4_5arrayIfLm2EEENS4_9allocatorIS7_EEEENS8_ISA_EEEEEEPNS2_4NodeERKT_SE_ENKUlPKSD_SJ_E_clESJ_SJ_, symObjAddr: 0x217C0, symBinAddr: 0x100023FF8, symSize: 0x34 }
  - { offsetInCU: 0x811A9, offset: 0x811A9, size: 0x8, addend: 0x0, symName: __ZNSt3__18_IterOpsINS_17_ClassicAlgPolicyEE9iter_swapB7v160006IRPPN6mapbox6detail6EarcutIjE4NodeESB_EEvOT_OT0_, symObjAddr: 0x217F4, symBinAddr: 0x10002402C, symSize: 0x34 }
  - { offsetInCU: 0x811EC, offset: 0x811EC, size: 0x8, addend: 0x0, symName: __ZNSt3__18_IterOpsINS_17_ClassicAlgPolicyEE11__iter_moveB7v160006IRPPN6mapbox6detail6EarcutIjE4NodeEEENS_9enable_ifIXsr12is_referenceIDTdeclsr3stdE7declvalIRT_EEEEE5valueEDTclsr3stdE4movedeclsr3stdE7declvalISE_EEEEE4typeEOSD_, symObjAddr: 0x22138, symBinAddr: 0x100024970, symSize: 0x28 }
  - { offsetInCU: 0x81218, offset: 0x81218, size: 0x8, addend: 0x0, symName: __ZNSt3__18_IterOpsINS_17_ClassicAlgPolicyEE25__validate_iter_referenceB7v160006IRPPN6mapbox6detail6EarcutIjE4NodeEEEvv, symObjAddr: 0x22160, symBinAddr: 0x100024998, symSize: 0x4 }
  - { offsetInCU: 0x81236, offset: 0x81236, size: 0x8, addend: 0x0, symName: __ZNSt3__18_IterOpsINS_17_ClassicAlgPolicyEE4nextB7v160006IPPN6mapbox6detail6EarcutIjE4NodeEEET_SB_SB_, symObjAddr: 0x22164, symBinAddr: 0x10002499C, symSize: 0x18 }
  - { offsetInCU: 0x8126D, offset: 0x8126D, size: 0x8, addend: 0x0, symName: __ZNSt3__118__unwrap_iter_implINS_11__wrap_iterIPPN6mapbox6detail6EarcutIjE4NodeEEELb1EE8__unwrapB7v160006ES9_, symObjAddr: 0x22A7C, symBinAddr: 0x1000252B4, symSize: 0x28 }
  - { offsetInCU: 0x8129A, offset: 0x8129A, size: 0x8, addend: 0x0, symName: __ZNSt3__119__to_address_helperINS_11__wrap_iterIPPN6mapbox6detail6EarcutIjE4NodeEEEvE6__callB7v160006ERKS9_, symObjAddr: 0x22AC8, symBinAddr: 0x100025300, symSize: 0x30 }
  - { offsetInCU: 0x812BD, offset: 0x812BD, size: 0x8, addend: 0x0, symName: __ZNSt3__114pointer_traitsINS_11__wrap_iterIPPN6mapbox6detail6EarcutIjE4NodeEEEE10to_addressB7v160006ES9_, symObjAddr: 0x22AF8, symBinAddr: 0x100025330, symSize: 0x2C }
  - { offsetInCU: 0x812E1, offset: 0x812E1, size: 0x8, addend: 0x0, symName: __ZN6mapbox6detail6EarcutIjE14findHoleBridgeEPNS2_4NodeES4_, symObjAddr: 0x22B24, symBinAddr: 0x10002535C, symSize: 0x4C0 }
  - { offsetInCU: 0x813DF, offset: 0x813DF, size: 0x8, addend: 0x0, symName: __ZN6mapbox6detail6EarcutIjE12splitPolygonEPNS2_4NodeES4_, symObjAddr: 0x22FE4, symBinAddr: 0x10002581C, symSize: 0xEC }
  - { offsetInCU: 0x8145F, offset: 0x8145F, size: 0x8, addend: 0x0, symName: __ZNSt3__114numeric_limitsIdE8infinityB7v160006Ev, symObjAddr: 0x230D0, symBinAddr: 0x100025908, symSize: 0x14 }
  - { offsetInCU: 0x81473, offset: 0x81473, size: 0x8, addend: 0x0, symName: __ZNK6mapbox6detail6EarcutIjE15pointInTriangleEdddddddd, symObjAddr: 0x230E4, symBinAddr: 0x10002591C, symSize: 0x120 }
  - { offsetInCU: 0x8150D, offset: 0x8150D, size: 0x8, addend: 0x0, symName: __Z3absB7v160006d, symObjAddr: 0x23204, symBinAddr: 0x100025A3C, symSize: 0x18 }
  - { offsetInCU: 0x8153A, offset: 0x8153A, size: 0x8, addend: 0x0, symName: __ZN6mapbox6detail6EarcutIjE13locallyInsideEPKNS2_4NodeES5_, symObjAddr: 0x2321C, symBinAddr: 0x100025A54, symSize: 0x124 }
  - { offsetInCU: 0x8157E, offset: 0x8157E, size: 0x8, addend: 0x0, symName: __ZN6mapbox6detail6EarcutIjE20sectorContainsSectorEPKNS2_4NodeES5_, symObjAddr: 0x23340, symBinAddr: 0x100025B78, symSize: 0x90 }
  - { offsetInCU: 0x815C2, offset: 0x815C2, size: 0x8, addend: 0x0, symName: __ZNSt3__123__libcpp_numeric_limitsIdLb1EE8infinityB7v160006Ev, symObjAddr: 0x233D0, symBinAddr: 0x100025C08, symSize: 0xC }
  - { offsetInCU: 0x815D6, offset: 0x815D6, size: 0x8, addend: 0x0, symName: __ZNK6mapbox6detail6EarcutIjE4areaEPKNS2_4NodeES5_S5_, symObjAddr: 0x233DC, symBinAddr: 0x100025C14, symSize: 0x74 }
  - { offsetInCU: 0x8162D, offset: 0x8162D, size: 0x8, addend: 0x0, symName: __ZN6mapbox6detail6EarcutIjE10ObjectPoolINS2_4NodeENSt3__19allocatorIS4_EEE9constructIJRKjRKdSD_EEEPS4_DpOT_, symObjAddr: 0x23450, symBinAddr: 0x100025C88, symSize: 0xB4 }
  - { offsetInCU: 0x816A0, offset: 0x816A0, size: 0x8, addend: 0x0, symName: __ZNSt3__116allocator_traitsINS_9allocatorIN6mapbox6detail6EarcutIjE4NodeEEEE9constructB7v160006IS6_JRKjRKdSD_EvEEvRS7_PT_DpOT0_, symObjAddr: 0x23504, symBinAddr: 0x100025D3C, symSize: 0x44 }
  - { offsetInCU: 0x8171F, offset: 0x8171F, size: 0x8, addend: 0x0, symName: __ZNSt3__19allocatorIN6mapbox6detail6EarcutIjE4NodeEE9constructB7v160006IS5_JRKjRKdSB_EEEvPT_DpOT0_, symObjAddr: 0x23548, symBinAddr: 0x100025D80, symSize: 0x4C }
  - { offsetInCU: 0x8179B, offset: 0x8179B, size: 0x8, addend: 0x0, symName: __ZNSt3__16vectorIPN6mapbox6detail6EarcutIjE4NodeENS_9allocatorIS6_EEED2B7v160006Ev, symObjAddr: 0x23594, symBinAddr: 0x100025DCC, symSize: 0x44 }
  - { offsetInCU: 0x817C5, offset: 0x817C5, size: 0x8, addend: 0x0, symName: __ZNSt3__16vectorIPN6mapbox6detail6EarcutIjE4NodeENS_9allocatorIS6_EEE16__destroy_vectorC1ERS9_, symObjAddr: 0x235D8, symBinAddr: 0x100025E10, symSize: 0x34 }
  - { offsetInCU: 0x817FE, offset: 0x817FE, size: 0x8, addend: 0x0, symName: __ZNSt3__16vectorIPN6mapbox6detail6EarcutIjE4NodeENS_9allocatorIS6_EEE16__destroy_vectorclB7v160006Ev, symObjAddr: 0x2360C, symBinAddr: 0x100025E44, symSize: 0x9C }
  - { offsetInCU: 0x81824, offset: 0x81824, size: 0x8, addend: 0x0, symName: __ZNSt3__16vectorIPN6mapbox6detail6EarcutIjE4NodeENS_9allocatorIS6_EEE16__destroy_vectorC2ERS9_, symObjAddr: 0x236A8, symBinAddr: 0x100025EE0, symSize: 0x20 }
  - { offsetInCU: 0x81867, offset: 0x81867, size: 0x8, addend: 0x0, symName: __ZNKSt3__16__lessIddEclB7v160006ERKdS3_, symObjAddr: 0x2372C, symBinAddr: 0x100025F64, symSize: 0x34 }
  - { offsetInCU: 0x818A9, offset: 0x818A9, size: 0x8, addend: 0x0, symName: __ZN6mapbox6detail6EarcutIjE10indexCurveEPNS2_4NodeE, symObjAddr: 0x237B4, symBinAddr: 0x100025FEC, symSize: 0x128 }
  - { offsetInCU: 0x818EE, offset: 0x818EE, size: 0x8, addend: 0x0, symName: __ZN6mapbox6detail6EarcutIjE11isEarHashedEPNS2_4NodeE, symObjAddr: 0x238DC, symBinAddr: 0x100026114, symSize: 0x3F0 }
  - { offsetInCU: 0x819BC, offset: 0x819BC, size: 0x8, addend: 0x0, symName: __ZN6mapbox6detail6EarcutIjE5isEarEPNS2_4NodeE, symObjAddr: 0x23CCC, symBinAddr: 0x100026504, symSize: 0x168 }
  - { offsetInCU: 0x81A2E, offset: 0x81A2E, size: 0x8, addend: 0x0, symName: __ZNSt3__16vectorIjNS_9allocatorIjEEE12emplace_backIJRKjEEERjDpOT_, symObjAddr: 0x23E34, symBinAddr: 0x10002666C, symSize: 0x74 }
  - { offsetInCU: 0x81A70, offset: 0x81A70, size: 0x8, addend: 0x0, symName: __ZN6mapbox6detail6EarcutIjE22cureLocalIntersectionsEPNS2_4NodeE, symObjAddr: 0x23EA8, symBinAddr: 0x1000266E0, symSize: 0x144 }
  - { offsetInCU: 0x81AD9, offset: 0x81AD9, size: 0x8, addend: 0x0, symName: __ZN6mapbox6detail6EarcutIjE11splitEarcutEPNS2_4NodeE, symObjAddr: 0x23FEC, symBinAddr: 0x100026824, symSize: 0x14C }
  - { offsetInCU: 0x81B50, offset: 0x81B50, size: 0x8, addend: 0x0, symName: __ZN6mapbox6detail6EarcutIjE6zOrderEdd, symObjAddr: 0x24138, symBinAddr: 0x100026970, symSize: 0x110 }
  - { offsetInCU: 0x81BB2, offset: 0x81BB2, size: 0x8, addend: 0x0, symName: __ZN6mapbox6detail6EarcutIjE10sortLinkedEPNS2_4NodeE, symObjAddr: 0x24248, symBinAddr: 0x100026A80, symSize: 0x2F4 }
  - { offsetInCU: 0x81C6F, offset: 0x81C6F, size: 0x8, addend: 0x0, symName: __ZNSt3__16vectorIjNS_9allocatorIjEEE24__emplace_back_slow_pathIJRKjEEEvDpOT_, symObjAddr: 0x2453C, symBinAddr: 0x100026D74, symSize: 0xD8 }
  - { offsetInCU: 0x81CCF, offset: 0x81CCF, size: 0x8, addend: 0x0, symName: __ZNSt3__16vectorIjNS_9allocatorIjEEE4backB7v160006Ev, symObjAddr: 0x24614, symBinAddr: 0x100026E4C, symSize: 0x1C }
  - { offsetInCU: 0x81CF5, offset: 0x81CF5, size: 0x8, addend: 0x0, symName: __ZN6mapbox6detail6EarcutIjE10intersectsEPKNS2_4NodeES5_S5_S5_, symObjAddr: 0x24630, symBinAddr: 0x100026E68, symSize: 0x22C }
  - { offsetInCU: 0x81D91, offset: 0x81D91, size: 0x8, addend: 0x0, symName: __ZN6mapbox6detail6EarcutIjE4signEd, symObjAddr: 0x2485C, symBinAddr: 0x100027094, symSize: 0x3C }
  - { offsetInCU: 0x81DC7, offset: 0x81DC7, size: 0x8, addend: 0x0, symName: __ZN6mapbox6detail6EarcutIjE9onSegmentEPKNS2_4NodeES5_S5_, symObjAddr: 0x24898, symBinAddr: 0x1000270D0, symSize: 0x128 }
  - { offsetInCU: 0x81E19, offset: 0x81E19, size: 0x8, addend: 0x0, symName: __ZN6mapbox6detail6EarcutIjE15isValidDiagonalEPNS2_4NodeES4_, symObjAddr: 0x249C0, symBinAddr: 0x1000271F8, symSize: 0x1F0 }
  - { offsetInCU: 0x81E5D, offset: 0x81E5D, size: 0x8, addend: 0x0, symName: __ZN6mapbox6detail6EarcutIjE17intersectsPolygonEPKNS2_4NodeES5_, symObjAddr: 0x24BB0, symBinAddr: 0x1000273E8, symSize: 0x13C }
  - { offsetInCU: 0x81EB0, offset: 0x81EB0, size: 0x8, addend: 0x0, symName: __ZN6mapbox6detail6EarcutIjE12middleInsideEPKNS2_4NodeES5_, symObjAddr: 0x24CEC, symBinAddr: 0x100027524, symSize: 0x17C }
  - { offsetInCU: 0x81F30, offset: 0x81F30, size: 0x8, addend: 0x0, symName: __ZNSt3__16vectorIjNS_9allocatorIjEEEC2B7v160006EOS3_, symObjAddr: 0x24E68, symBinAddr: 0x1000276A0, symSize: 0xDC }
  - { offsetInCU: 0x81F71, offset: 0x81F71, size: 0x8, addend: 0x0, symName: __ZNSt3__117__compressed_pairIPjNS_9allocatorIjEEEC1B7v160006IDnS3_EEOT_OT0_, symObjAddr: 0x24F44, symBinAddr: 0x10002777C, symSize: 0x3C }
  - { offsetInCU: 0x81FC9, offset: 0x81FC9, size: 0x8, addend: 0x0, symName: __ZNSt3__117__compressed_pairIPjNS_9allocatorIjEEEC2B7v160006IDnS3_EEOT_OT0_, symObjAddr: 0x24F94, symBinAddr: 0x1000277CC, symSize: 0x44 }
  - { offsetInCU: 0x82021, offset: 0x82021, size: 0x8, addend: 0x0, symName: __ZNSt3__122__compressed_pair_elemINS_9allocatorIjEELi1ELb1EEC2B7v160006IS2_vEEOT_, symObjAddr: 0x24FD8, symBinAddr: 0x100027810, symSize: 0x18 }
  - { offsetInCU: 0x82063, offset: 0x82063, size: 0x8, addend: 0x0, symName: __ZN6mapbox6detail6EarcutIjED2Ev, symObjAddr: 0x24FF0, symBinAddr: 0x100027828, symSize: 0x38 }
  - { offsetInCU: 0x8208F, offset: 0x8208F, size: 0x8, addend: 0x0, symName: __ZN6mapbox6detail6EarcutIjE10ObjectPoolINS2_4NodeENSt3__19allocatorIS4_EEED1Ev, symObjAddr: 0x25028, symBinAddr: 0x100027860, symSize: 0x2C }
  - { offsetInCU: 0x820B9, offset: 0x820B9, size: 0x8, addend: 0x0, symName: __ZN6mapbox6detail6EarcutIjE10ObjectPoolINS2_4NodeENSt3__19allocatorIS4_EEED2Ev, symObjAddr: 0x25054, symBinAddr: 0x10002788C, symSize: 0x40 }
  - { offsetInCU: 0x820E3, offset: 0x820E3, size: 0x8, addend: 0x0, symName: __ZNSt3__16vectorIjNS_9allocatorIjEEED2B7v160006Ev, symObjAddr: 0x25094, symBinAddr: 0x1000278CC, symSize: 0x44 }
  - { offsetInCU: 0x8210D, offset: 0x8210D, size: 0x8, addend: 0x0, symName: __ZNSt3__16vectorIjNS_9allocatorIjEEE16__destroy_vectorC1ERS3_, symObjAddr: 0x250D8, symBinAddr: 0x100027910, symSize: 0x34 }
  - { offsetInCU: 0x82146, offset: 0x82146, size: 0x8, addend: 0x0, symName: __ZNSt3__16vectorIjNS_9allocatorIjEEE16__destroy_vectorclB7v160006Ev, symObjAddr: 0x2510C, symBinAddr: 0x100027944, symSize: 0x9C }
  - { offsetInCU: 0x8216C, offset: 0x8216C, size: 0x8, addend: 0x0, symName: __ZNSt3__16vectorIjNS_9allocatorIjEEE16__destroy_vectorC2ERS3_, symObjAddr: 0x251A8, symBinAddr: 0x1000279E0, symSize: 0x20 }
  - { offsetInCU: 0x821A5, offset: 0x821A5, size: 0x8, addend: 0x0, symName: __ZNSt3__16vectorINS_5arrayIfLm2EEENS_9allocatorIS2_EEED2B7v160006Ev, symObjAddr: 0x251D8, symBinAddr: 0x100027A10, symSize: 0x44 }
  - { offsetInCU: 0x821CF, offset: 0x821CF, size: 0x8, addend: 0x0, symName: __ZNSt3__16vectorINS0_INS_5arrayIfLm2EEENS_9allocatorIS2_EEEENS3_IS5_EEED2B7v160006Ev, symObjAddr: 0x2521C, symBinAddr: 0x100027A54, symSize: 0x44 }
  - { offsetInCU: 0x821F9, offset: 0x821F9, size: 0x8, addend: 0x0, symName: __ZNSt3__16vectorINS0_INS_5arrayIfLm2EEENS_9allocatorIS2_EEEENS3_IS5_EEE16__destroy_vectorC1ERS7_, symObjAddr: 0x25260, symBinAddr: 0x100027A98, symSize: 0x34 }
  - { offsetInCU: 0x82232, offset: 0x82232, size: 0x8, addend: 0x0, symName: __ZNSt3__16vectorINS0_INS_5arrayIfLm2EEENS_9allocatorIS2_EEEENS3_IS5_EEE16__destroy_vectorclB7v160006Ev, symObjAddr: 0x25294, symBinAddr: 0x100027ACC, symSize: 0x9C }
  - { offsetInCU: 0x82258, offset: 0x82258, size: 0x8, addend: 0x0, symName: __ZNSt3__16vectorINS0_INS_5arrayIfLm2EEENS_9allocatorIS2_EEEENS3_IS5_EEE16__destroy_vectorC2ERS7_, symObjAddr: 0x25330, symBinAddr: 0x100027B68, symSize: 0x20 }
  - { offsetInCU: 0x82291, offset: 0x82291, size: 0x8, addend: 0x0, symName: __ZNSt3__16vectorINS0_INS_5arrayIfLm2EEENS_9allocatorIS2_EEEENS3_IS5_EEE7__clearB7v160006Ev, symObjAddr: 0x25360, symBinAddr: 0x100027B98, symSize: 0x28 }
  - { offsetInCU: 0x822B7, offset: 0x822B7, size: 0x8, addend: 0x0, symName: __ZNSt3__16vectorINS0_INS_5arrayIfLm2EEENS_9allocatorIS2_EEEENS3_IS5_EEE22__base_destruct_at_endB7v160006EPS5_, symObjAddr: 0x25388, symBinAddr: 0x100027BC0, symSize: 0x8C }
  - { offsetInCU: 0x822FB, offset: 0x822FB, size: 0x8, addend: 0x0, symName: __ZNSt3__16vectorIN7tinyobj5tag_tENS_9allocatorIS2_EEE19__copy_assign_allocB7v160006ERKS5_, symObjAddr: 0x25414, symBinAddr: 0x100027C4C, symSize: 0x2C }
  - { offsetInCU: 0x82330, offset: 0x82330, size: 0x8, addend: 0x0, symName: __ZNSt3__16vectorIN7tinyobj5tag_tENS_9allocatorIS2_EEE6assignIPS2_Li0EEEvT_S8_, symObjAddr: 0x25440, symBinAddr: 0x100027C78, symSize: 0x17C }
  - { offsetInCU: 0x823CF, offset: 0x823CF, size: 0x8, addend: 0x0, symName: __ZNSt3__16vectorIN7tinyobj5tag_tENS_9allocatorIS2_EEE19__copy_assign_allocB7v160006ERKS5_NS_17integral_constantIbLb0EEE, symObjAddr: 0x255BC, symBinAddr: 0x100027DF4, symSize: 0x14 }
  - { offsetInCU: 0x8240D, offset: 0x8240D, size: 0x8, addend: 0x0, symName: __ZNKSt3__16vectorIN7tinyobj5tag_tENS_9allocatorIS2_EEE8capacityB7v160006Ev, symObjAddr: 0x255FC, symBinAddr: 0x100027E34, symSize: 0x40 }
  - { offsetInCU: 0x82433, offset: 0x82433, size: 0x8, addend: 0x0, symName: __ZNKSt3__16vectorIN7tinyobj5tag_tENS_9allocatorIS2_EEE4sizeB7v160006Ev, symObjAddr: 0x2563C, symBinAddr: 0x100027E74, symSize: 0x28 }
  - { offsetInCU: 0x82459, offset: 0x82459, size: 0x8, addend: 0x0, symName: __ZNSt3__16vectorIN7tinyobj5tag_tENS_9allocatorIS2_EEE18__construct_at_endIPS2_Li0EEEvT_S8_m, symObjAddr: 0x256F4, symBinAddr: 0x100027F2C, symSize: 0x8C }
  - { offsetInCU: 0x824CC, offset: 0x824CC, size: 0x8, addend: 0x0, symName: __ZNSt3__16vectorIN7tinyobj5tag_tENS_9allocatorIS2_EEE17__destruct_at_endB7v160006EPS2_, symObjAddr: 0x25780, symBinAddr: 0x100027FB8, symSize: 0x60 }
  - { offsetInCU: 0x82510, offset: 0x82510, size: 0x8, addend: 0x0, symName: __ZNSt3__16vectorIN7tinyobj5tag_tENS_9allocatorIS2_EEE13__vdeallocateEv, symObjAddr: 0x257E0, symBinAddr: 0x100028018, symSize: 0x8C }
  - { offsetInCU: 0x82538, offset: 0x82538, size: 0x8, addend: 0x0, symName: __ZNSt3__16vectorIN7tinyobj5tag_tENS_9allocatorIS2_EEE11__vallocateB7v160006Em, symObjAddr: 0x2586C, symBinAddr: 0x1000280A4, symSize: 0xB4 }
  - { offsetInCU: 0x8257C, offset: 0x8257C, size: 0x8, addend: 0x0, symName: __ZNKSt3__16vectorIN7tinyobj5tag_tENS_9allocatorIS2_EEE11__recommendB7v160006Em, symObjAddr: 0x25920, symBinAddr: 0x100028158, symSize: 0xB4 }
  - { offsetInCU: 0x825D1, offset: 0x825D1, size: 0x8, addend: 0x0, symName: __ZNKSt3__16vectorIN7tinyobj5tag_tENS_9allocatorIS2_EEE9__end_capB7v160006Ev, symObjAddr: 0x25A0C, symBinAddr: 0x100028244, symSize: 0x28 }
  - { offsetInCU: 0x825F7, offset: 0x825F7, size: 0x8, addend: 0x0, symName: __ZNKSt3__117__compressed_pairIPN7tinyobj5tag_tENS_9allocatorIS2_EEE5firstB7v160006Ev, symObjAddr: 0x25A34, symBinAddr: 0x10002826C, symSize: 0x24 }
  - { offsetInCU: 0x8261D, offset: 0x8261D, size: 0x8, addend: 0x0, symName: __ZNKSt3__122__compressed_pair_elemIPN7tinyobj5tag_tELi0ELb0EE5__getB7v160006Ev, symObjAddr: 0x25A58, symBinAddr: 0x100028290, symSize: 0x14 }
  - { offsetInCU: 0x82667, offset: 0x82667, size: 0x8, addend: 0x0, symName: __ZNKSt3__111__copy_loopINS_17_ClassicAlgPolicyEEclB7v160006IPN7tinyobj5tag_tES6_S6_EENS_4pairIT_T1_EES8_T0_S9_, symObjAddr: 0x25C38, symBinAddr: 0x100028470, symSize: 0x88 }
  - { offsetInCU: 0x826D2, offset: 0x826D2, size: 0x8, addend: 0x0, symName: __ZN7tinyobj5tag_taSERKS0_, symObjAddr: 0x25D84, symBinAddr: 0x1000285BC, symSize: 0x70 }
  - { offsetInCU: 0x82704, offset: 0x82704, size: 0x8, addend: 0x0, symName: __ZNSt3__16vectorIiNS_9allocatorIiEEEaSB7v160006ERKS3_, symObjAddr: 0x25DF4, symBinAddr: 0x10002862C, symSize: 0x68 }
  - { offsetInCU: 0x8273B, offset: 0x8273B, size: 0x8, addend: 0x0, symName: __ZNSt3__16vectorIfNS_9allocatorIfEEEaSB7v160006ERKS3_, symObjAddr: 0x25E5C, symBinAddr: 0x100028694, symSize: 0x68 }
  - { offsetInCU: 0x82772, offset: 0x82772, size: 0x8, addend: 0x0, symName: __ZNSt3__16vectorINS_12basic_stringIcNS_11char_traitsIcEENS_9allocatorIcEEEENS4_IS6_EEEaSB7v160006ERKS8_, symObjAddr: 0x25EC4, symBinAddr: 0x1000286FC, symSize: 0x68 }
  - { offsetInCU: 0x827A9, offset: 0x827A9, size: 0x8, addend: 0x0, symName: __ZNSt3__16vectorIiNS_9allocatorIiEEE19__copy_assign_allocB7v160006ERKS3_, symObjAddr: 0x25F2C, symBinAddr: 0x100028764, symSize: 0x2C }
  - { offsetInCU: 0x827DE, offset: 0x827DE, size: 0x8, addend: 0x0, symName: __ZNSt3__16vectorIiNS_9allocatorIiEEE6assignIPiLi0EEEvT_S6_, symObjAddr: 0x25F58, symBinAddr: 0x100028790, symSize: 0x17C }
  - { offsetInCU: 0x8287D, offset: 0x8287D, size: 0x8, addend: 0x0, symName: __ZNSt3__16vectorIiNS_9allocatorIiEEE19__copy_assign_allocB7v160006ERKS3_NS_17integral_constantIbLb0EEE, symObjAddr: 0x260D4, symBinAddr: 0x10002890C, symSize: 0x14 }
  - { offsetInCU: 0x828BB, offset: 0x828BB, size: 0x8, addend: 0x0, symName: __ZNSt3__16vectorIiNS_9allocatorIiEEE18__construct_at_endIPiLi0EEEvT_S6_m, symObjAddr: 0x261A4, symBinAddr: 0x1000289DC, symSize: 0x8C }
  - { offsetInCU: 0x8292E, offset: 0x8292E, size: 0x8, addend: 0x0, symName: __ZNSt3__16vectorIiNS_9allocatorIiEEE17__destruct_at_endB7v160006EPi, symObjAddr: 0x26230, symBinAddr: 0x100028A68, symSize: 0x60 }
  - { offsetInCU: 0x82972, offset: 0x82972, size: 0x8, addend: 0x0, symName: __ZNSt3__16vectorIiNS_9allocatorIiEEE13__vdeallocateEv, symObjAddr: 0x26290, symBinAddr: 0x100028AC8, symSize: 0x8C }
  - { offsetInCU: 0x8299A, offset: 0x8299A, size: 0x8, addend: 0x0, symName: __ZNSt3__16vectorIiNS_9allocatorIiEEE11__vallocateB7v160006Em, symObjAddr: 0x2631C, symBinAddr: 0x100028B54, symSize: 0xAC }
  - { offsetInCU: 0x829F8, offset: 0x829F8, size: 0x8, addend: 0x0, symName: __ZNKSt3__114__copy_trivialclB7v160006IiiLi0EEENS_4pairIPT_PT0_EES4_S4_S6_, symObjAddr: 0x265B4, symBinAddr: 0x100028DEC, symSize: 0x48 }
  - { offsetInCU: 0x82A66, offset: 0x82A66, size: 0x8, addend: 0x0, symName: __ZNSt3__14pairIPiS1_EC1B7v160006IRS1_S1_LPv0EEEOT_OT0_, symObjAddr: 0x2677C, symBinAddr: 0x100028FB4, symSize: 0x3C }
  - { offsetInCU: 0x82AC4, offset: 0x82AC4, size: 0x8, addend: 0x0, symName: __ZNSt3__14pairIPiS1_EC2B7v160006IRS1_S1_LPv0EEEOT_OT0_, symObjAddr: 0x267B8, symBinAddr: 0x100028FF0, symSize: 0x34 }
  - { offsetInCU: 0x82B22, offset: 0x82B22, size: 0x8, addend: 0x0, symName: __ZNSt3__118__unwrap_iter_implIPiLb1EE8__unwrapB7v160006ES1_, symObjAddr: 0x267EC, symBinAddr: 0x100029024, symSize: 0x24 }
  - { offsetInCU: 0x82B45, offset: 0x82B45, size: 0x8, addend: 0x0, symName: __ZNSt3__14pairIPiS1_EC1B7v160006IS1_S1_LPv0EEEOT_OT0_, symObjAddr: 0x26810, symBinAddr: 0x100029048, symSize: 0x3C }
  - { offsetInCU: 0x82BA3, offset: 0x82BA3, size: 0x8, addend: 0x0, symName: __ZNSt3__14pairIPiS1_EC2B7v160006IS1_S1_LPv0EEEOT_OT0_, symObjAddr: 0x2684C, symBinAddr: 0x100029084, symSize: 0x34 }
  - { offsetInCU: 0x82C01, offset: 0x82C01, size: 0x8, addend: 0x0, symName: __ZNSt3__118__unwrap_iter_implIPiLb1EE8__rewrapB7v160006ES1_S1_, symObjAddr: 0x26880, symBinAddr: 0x1000290B8, symSize: 0x50 }
  - { offsetInCU: 0x82C32, offset: 0x82C32, size: 0x8, addend: 0x0, symName: __ZNSt3__129_AllocatorDestroyRangeReverseINS_9allocatorIiEEPiEC1B7v160006ERS2_RS3_S6_, symObjAddr: 0x26A10, symBinAddr: 0x100029248, symSize: 0x44 }
  - { offsetInCU: 0x82C89, offset: 0x82C89, size: 0x8, addend: 0x0, symName: __ZNSt3__116allocator_traitsINS_9allocatorIiEEE9constructB7v160006IiJRiEvEEvRS2_PT_DpOT0_, symObjAddr: 0x26A54, symBinAddr: 0x10002928C, symSize: 0x34 }
  - { offsetInCU: 0x82CE0, offset: 0x82CE0, size: 0x8, addend: 0x0, symName: __ZNSt3__128__exception_guard_exceptionsINS_29_AllocatorDestroyRangeReverseINS_9allocatorIiEEPiEEE10__completeB7v160006Ev, symObjAddr: 0x26A88, symBinAddr: 0x1000292C0, symSize: 0x1C }
  - { offsetInCU: 0x82D06, offset: 0x82D06, size: 0x8, addend: 0x0, symName: __ZNSt3__128__exception_guard_exceptionsINS_29_AllocatorDestroyRangeReverseINS_9allocatorIiEEPiEEED1B7v160006Ev, symObjAddr: 0x26AA4, symBinAddr: 0x1000292DC, symSize: 0x2C }
  - { offsetInCU: 0x82D30, offset: 0x82D30, size: 0x8, addend: 0x0, symName: __ZNSt3__128__exception_guard_exceptionsINS_29_AllocatorDestroyRangeReverseINS_9allocatorIiEEPiEEEC1B7v160006ES5_, symObjAddr: 0x26AD0, symBinAddr: 0x100029308, symSize: 0x34 }
  - { offsetInCU: 0x82D69, offset: 0x82D69, size: 0x8, addend: 0x0, symName: __ZNSt3__128__exception_guard_exceptionsINS_29_AllocatorDestroyRangeReverseINS_9allocatorIiEEPiEEEC2B7v160006ES5_, symObjAddr: 0x26B04, symBinAddr: 0x10002933C, symSize: 0x30 }
  - { offsetInCU: 0x82DA2, offset: 0x82DA2, size: 0x8, addend: 0x0, symName: __ZNSt3__129_AllocatorDestroyRangeReverseINS_9allocatorIiEEPiEC2B7v160006ERS2_RS3_S6_, symObjAddr: 0x26B34, symBinAddr: 0x10002936C, symSize: 0x38 }
  - { offsetInCU: 0x82DF9, offset: 0x82DF9, size: 0x8, addend: 0x0, symName: __ZNSt3__19allocatorIiE9constructB7v160006IiJRiEEEvPT_DpOT0_, symObjAddr: 0x26B6C, symBinAddr: 0x1000293A4, symSize: 0x28 }
  - { offsetInCU: 0x82E4F, offset: 0x82E4F, size: 0x8, addend: 0x0, symName: __ZNSt3__128__exception_guard_exceptionsINS_29_AllocatorDestroyRangeReverseINS_9allocatorIiEEPiEEED2B7v160006Ev, symObjAddr: 0x26B94, symBinAddr: 0x1000293CC, symSize: 0x50 }
  - { offsetInCU: 0x82E79, offset: 0x82E79, size: 0x8, addend: 0x0, symName: __ZNKSt3__129_AllocatorDestroyRangeReverseINS_9allocatorIiEEPiEclB7v160006Ev, symObjAddr: 0x26BE4, symBinAddr: 0x10002941C, symSize: 0x68 }
  - { offsetInCU: 0x82EA4, offset: 0x82EA4, size: 0x8, addend: 0x0, symName: __ZNSt3__119__to_address_helperINS_16reverse_iteratorIPiEEvE6__callB7v160006ERKS3_, symObjAddr: 0x26CE0, symBinAddr: 0x100029518, symSize: 0x38 }
  - { offsetInCU: 0x82EC7, offset: 0x82EC7, size: 0x8, addend: 0x0, symName: __ZNKSt3__116reverse_iteratorIPiEptB7v160006Ev, symObjAddr: 0x26D18, symBinAddr: 0x100029550, symSize: 0x24 }
  - { offsetInCU: 0x82EED, offset: 0x82EED, size: 0x8, addend: 0x0, symName: __ZNSt3__16vectorIiNS_9allocatorIiEEE27__invalidate_iterators_pastB7v160006EPi, symObjAddr: 0x26D3C, symBinAddr: 0x100029574, symSize: 0x14 }
  - { offsetInCU: 0x82F24, offset: 0x82F24, size: 0x8, addend: 0x0, symName: __ZNSt3__16vectorIiNS_9allocatorIiEEE22__base_destruct_at_endB7v160006EPi, symObjAddr: 0x26D50, symBinAddr: 0x100029588, symSize: 0x8C }
  - { offsetInCU: 0x82F68, offset: 0x82F68, size: 0x8, addend: 0x0, symName: __ZNKSt3__16vectorIiNS_9allocatorIiEEE17__annotate_shrinkB7v160006Em, symObjAddr: 0x26DDC, symBinAddr: 0x100029614, symSize: 0xB4 }
  - { offsetInCU: 0x82F9D, offset: 0x82F9D, size: 0x8, addend: 0x0, symName: __ZNSt3__16vectorIiNS_9allocatorIiEEE5clearB7v160006Ev, symObjAddr: 0x26E90, symBinAddr: 0x1000296C8, symSize: 0x4C }
  - { offsetInCU: 0x82FD2, offset: 0x82FD2, size: 0x8, addend: 0x0, symName: __ZNSt3__16vectorIiNS_9allocatorIiEEE7__clearB7v160006Ev, symObjAddr: 0x26EDC, symBinAddr: 0x100029714, symSize: 0x28 }
  - { offsetInCU: 0x82FF8, offset: 0x82FF8, size: 0x8, addend: 0x0, symName: __ZNSt3__16vectorIfNS_9allocatorIfEEE19__copy_assign_allocB7v160006ERKS3_, symObjAddr: 0x26F04, symBinAddr: 0x10002973C, symSize: 0x2C }
  - { offsetInCU: 0x8302D, offset: 0x8302D, size: 0x8, addend: 0x0, symName: __ZNSt3__16vectorIfNS_9allocatorIfEEE6assignIPfLi0EEEvT_S6_, symObjAddr: 0x26F30, symBinAddr: 0x100029768, symSize: 0x17C }
  - { offsetInCU: 0x830CC, offset: 0x830CC, size: 0x8, addend: 0x0, symName: __ZNSt3__16vectorIfNS_9allocatorIfEEE19__copy_assign_allocB7v160006ERKS3_NS_17integral_constantIbLb0EEE, symObjAddr: 0x270AC, symBinAddr: 0x1000298E4, symSize: 0x14 }
  - { offsetInCU: 0x8310A, offset: 0x8310A, size: 0x8, addend: 0x0, symName: __ZNKSt3__16vectorIfNS_9allocatorIfEEE8capacityB7v160006Ev, symObjAddr: 0x270EC, symBinAddr: 0x100029924, symSize: 0x40 }
  - { offsetInCU: 0x83130, offset: 0x83130, size: 0x8, addend: 0x0, symName: __ZNSt3__16vectorIfNS_9allocatorIfEEE18__construct_at_endIPfLi0EEEvT_S6_m, symObjAddr: 0x271BC, symBinAddr: 0x1000299F4, symSize: 0x8C }
  - { offsetInCU: 0x831A3, offset: 0x831A3, size: 0x8, addend: 0x0, symName: __ZNSt3__16vectorIfNS_9allocatorIfEEE17__destruct_at_endB7v160006EPf, symObjAddr: 0x27248, symBinAddr: 0x100029A80, symSize: 0x60 }
  - { offsetInCU: 0x831E7, offset: 0x831E7, size: 0x8, addend: 0x0, symName: __ZNSt3__16vectorIfNS_9allocatorIfEEE13__vdeallocateEv, symObjAddr: 0x272A8, symBinAddr: 0x100029AE0, symSize: 0x8C }
  - { offsetInCU: 0x8320F, offset: 0x8320F, size: 0x8, addend: 0x0, symName: __ZNSt3__16vectorIfNS_9allocatorIfEEE11__vallocateB7v160006Em, symObjAddr: 0x27334, symBinAddr: 0x100029B6C, symSize: 0xAC }
  - { offsetInCU: 0x83253, offset: 0x83253, size: 0x8, addend: 0x0, symName: __ZNKSt3__16vectorIfNS_9allocatorIfEEE11__recommendB7v160006Em, symObjAddr: 0x273E0, symBinAddr: 0x100029C18, symSize: 0xB4 }
  - { offsetInCU: 0x832A8, offset: 0x832A8, size: 0x8, addend: 0x0, symName: __ZNKSt3__16vectorIfNS_9allocatorIfEEE9__end_capB7v160006Ev, symObjAddr: 0x274CC, symBinAddr: 0x100029D04, symSize: 0x28 }
  - { offsetInCU: 0x832CE, offset: 0x832CE, size: 0x8, addend: 0x0, symName: __ZNKSt3__117__compressed_pairIPfNS_9allocatorIfEEE5firstB7v160006Ev, symObjAddr: 0x274F4, symBinAddr: 0x100029D2C, symSize: 0x24 }
  - { offsetInCU: 0x832F4, offset: 0x832F4, size: 0x8, addend: 0x0, symName: __ZNKSt3__122__compressed_pair_elemIPfLi0ELb0EE5__getB7v160006Ev, symObjAddr: 0x27518, symBinAddr: 0x100029D50, symSize: 0x14 }
  - { offsetInCU: 0x83334, offset: 0x83334, size: 0x8, addend: 0x0, symName: __ZNKSt3__114__copy_trivialclB7v160006IffLi0EEENS_4pairIPT_PT0_EES4_S4_S6_, symObjAddr: 0x276F0, symBinAddr: 0x100029F28, symSize: 0x48 }
  - { offsetInCU: 0x833A2, offset: 0x833A2, size: 0x8, addend: 0x0, symName: __ZNSt3__14pairIPfS1_EC1B7v160006IRS1_S1_LPv0EEEOT_OT0_, symObjAddr: 0x278B8, symBinAddr: 0x10002A0F0, symSize: 0x3C }
  - { offsetInCU: 0x83400, offset: 0x83400, size: 0x8, addend: 0x0, symName: __ZNSt3__14pairIPfS1_EC2B7v160006IRS1_S1_LPv0EEEOT_OT0_, symObjAddr: 0x278F4, symBinAddr: 0x10002A12C, symSize: 0x34 }
  - { offsetInCU: 0x8345E, offset: 0x8345E, size: 0x8, addend: 0x0, symName: __ZNSt3__118__unwrap_iter_implIPfLb1EE8__unwrapB7v160006ES1_, symObjAddr: 0x27928, symBinAddr: 0x10002A160, symSize: 0x24 }
  - { offsetInCU: 0x83481, offset: 0x83481, size: 0x8, addend: 0x0, symName: __ZNSt3__14pairIPfS1_EC1B7v160006IS1_S1_LPv0EEEOT_OT0_, symObjAddr: 0x27960, symBinAddr: 0x10002A198, symSize: 0x3C }
  - { offsetInCU: 0x834DF, offset: 0x834DF, size: 0x8, addend: 0x0, symName: __ZNSt3__14pairIPfS1_EC2B7v160006IS1_S1_LPv0EEEOT_OT0_, symObjAddr: 0x2799C, symBinAddr: 0x10002A1D4, symSize: 0x34 }
  - { offsetInCU: 0x8353D, offset: 0x8353D, size: 0x8, addend: 0x0, symName: __ZNSt3__118__unwrap_iter_implIPfLb1EE8__rewrapB7v160006ES1_S1_, symObjAddr: 0x279D0, symBinAddr: 0x10002A208, symSize: 0x50 }
  - { offsetInCU: 0x83587, offset: 0x83587, size: 0x8, addend: 0x0, symName: __ZNSt3__16vectorIfNS_9allocatorIfEEE21_ConstructTransactionC1B7v160006ERS3_m, symObjAddr: 0x27A20, symBinAddr: 0x10002A258, symSize: 0x3C }
  - { offsetInCU: 0x835CF, offset: 0x835CF, size: 0x8, addend: 0x0, symName: __ZNSt3__16vectorIfNS_9allocatorIfEEE7__allocB7v160006Ev, symObjAddr: 0x27B50, symBinAddr: 0x10002A388, symSize: 0x28 }
  - { offsetInCU: 0x835F5, offset: 0x835F5, size: 0x8, addend: 0x0, symName: __ZNSt3__16vectorIfNS_9allocatorIfEEE21_ConstructTransactionD1B7v160006Ev, symObjAddr: 0x27B78, symBinAddr: 0x10002A3B0, symSize: 0x2C }
  - { offsetInCU: 0x8361F, offset: 0x8361F, size: 0x8, addend: 0x0, symName: __ZNSt3__16vectorIfNS_9allocatorIfEEE21_ConstructTransactionC2B7v160006ERS3_m, symObjAddr: 0x27BA4, symBinAddr: 0x10002A3DC, symSize: 0x44 }
  - { offsetInCU: 0x83667, offset: 0x83667, size: 0x8, addend: 0x0, symName: __ZNSt3__129_AllocatorDestroyRangeReverseINS_9allocatorIfEEPfEC1B7v160006ERS2_RS3_S6_, symObjAddr: 0x27C34, symBinAddr: 0x10002A46C, symSize: 0x44 }
  - { offsetInCU: 0x836BE, offset: 0x836BE, size: 0x8, addend: 0x0, symName: __ZNSt3__116allocator_traitsINS_9allocatorIfEEE9constructB7v160006IfJRfEvEEvRS2_PT_DpOT0_, symObjAddr: 0x27C78, symBinAddr: 0x10002A4B0, symSize: 0x34 }
  - { offsetInCU: 0x83715, offset: 0x83715, size: 0x8, addend: 0x0, symName: __ZNSt3__128__exception_guard_exceptionsINS_29_AllocatorDestroyRangeReverseINS_9allocatorIfEEPfEEE10__completeB7v160006Ev, symObjAddr: 0x27CAC, symBinAddr: 0x10002A4E4, symSize: 0x1C }
  - { offsetInCU: 0x8373B, offset: 0x8373B, size: 0x8, addend: 0x0, symName: __ZNSt3__128__exception_guard_exceptionsINS_29_AllocatorDestroyRangeReverseINS_9allocatorIfEEPfEEED1B7v160006Ev, symObjAddr: 0x27CC8, symBinAddr: 0x10002A500, symSize: 0x2C }
  - { offsetInCU: 0x83765, offset: 0x83765, size: 0x8, addend: 0x0, symName: __ZNSt3__128__exception_guard_exceptionsINS_29_AllocatorDestroyRangeReverseINS_9allocatorIfEEPfEEEC1B7v160006ES5_, symObjAddr: 0x27CF4, symBinAddr: 0x10002A52C, symSize: 0x34 }
  - { offsetInCU: 0x8379E, offset: 0x8379E, size: 0x8, addend: 0x0, symName: __ZNSt3__128__exception_guard_exceptionsINS_29_AllocatorDestroyRangeReverseINS_9allocatorIfEEPfEEEC2B7v160006ES5_, symObjAddr: 0x27D28, symBinAddr: 0x10002A560, symSize: 0x30 }
  - { offsetInCU: 0x837D7, offset: 0x837D7, size: 0x8, addend: 0x0, symName: __ZNSt3__129_AllocatorDestroyRangeReverseINS_9allocatorIfEEPfEC2B7v160006ERS2_RS3_S6_, symObjAddr: 0x27D58, symBinAddr: 0x10002A590, symSize: 0x38 }
  - { offsetInCU: 0x8382E, offset: 0x8382E, size: 0x8, addend: 0x0, symName: __ZNSt3__19allocatorIfE9constructB7v160006IfJRfEEEvPT_DpOT0_, symObjAddr: 0x27D90, symBinAddr: 0x10002A5C8, symSize: 0x28 }
  - { offsetInCU: 0x83884, offset: 0x83884, size: 0x8, addend: 0x0, symName: __ZNSt3__128__exception_guard_exceptionsINS_29_AllocatorDestroyRangeReverseINS_9allocatorIfEEPfEEED2B7v160006Ev, symObjAddr: 0x27DB8, symBinAddr: 0x10002A5F0, symSize: 0x50 }
  - { offsetInCU: 0x838AE, offset: 0x838AE, size: 0x8, addend: 0x0, symName: __ZNKSt3__129_AllocatorDestroyRangeReverseINS_9allocatorIfEEPfEclB7v160006Ev, symObjAddr: 0x27E08, symBinAddr: 0x10002A640, symSize: 0x68 }
  - { offsetInCU: 0x838D4, offset: 0x838D4, size: 0x8, addend: 0x0, symName: __ZNSt3__116reverse_iteratorIPfEC1B7v160006ES1_, symObjAddr: 0x27EE0, symBinAddr: 0x10002A718, symSize: 0x34 }
  - { offsetInCU: 0x8390C, offset: 0x8390C, size: 0x8, addend: 0x0, symName: __ZNSt3__116allocator_traitsINS_9allocatorIfEEE7destroyB7v160006IfvEEvRS2_PT_, symObjAddr: 0x27F5C, symBinAddr: 0x10002A794, symSize: 0x2C }
  - { offsetInCU: 0x83949, offset: 0x83949, size: 0x8, addend: 0x0, symName: __ZNSt3__116reverse_iteratorIPfEppB7v160006Ev, symObjAddr: 0x27FAC, symBinAddr: 0x10002A7E4, symSize: 0x20 }
  - { offsetInCU: 0x8396F, offset: 0x8396F, size: 0x8, addend: 0x0, symName: __ZNKSt3__116reverse_iteratorIPfE4baseB7v160006Ev, symObjAddr: 0x27FCC, symBinAddr: 0x10002A804, symSize: 0x18 }
  - { offsetInCU: 0x83995, offset: 0x83995, size: 0x8, addend: 0x0, symName: __ZNSt3__19allocatorIfE7destroyB7v160006EPf, symObjAddr: 0x27FE4, symBinAddr: 0x10002A81C, symSize: 0x14 }
  - { offsetInCU: 0x839CE, offset: 0x839CE, size: 0x8, addend: 0x0, symName: __ZNSt3__119__to_address_helperINS_16reverse_iteratorIPfEEvE6__callB7v160006ERKS3_, symObjAddr: 0x27FF8, symBinAddr: 0x10002A830, symSize: 0x38 }
  - { offsetInCU: 0x839F1, offset: 0x839F1, size: 0x8, addend: 0x0, symName: __ZNKSt3__116reverse_iteratorIPfEptB7v160006Ev, symObjAddr: 0x28030, symBinAddr: 0x10002A868, symSize: 0x24 }
  - { offsetInCU: 0x83A17, offset: 0x83A17, size: 0x8, addend: 0x0, symName: __ZNKSt3__116reverse_iteratorIPfEdeB7v160006Ev, symObjAddr: 0x28054, symBinAddr: 0x10002A88C, symSize: 0x28 }
  - { offsetInCU: 0x83A4B, offset: 0x83A4B, size: 0x8, addend: 0x0, symName: __ZNSt3__116reverse_iteratorIPfEC2B7v160006ES1_, symObjAddr: 0x2807C, symBinAddr: 0x10002A8B4, symSize: 0x28 }
  - { offsetInCU: 0x83A83, offset: 0x83A83, size: 0x8, addend: 0x0, symName: __ZNSt3__117__compressed_pairIPfNS_9allocatorIfEEE6secondB7v160006Ev, symObjAddr: 0x280A4, symBinAddr: 0x10002A8DC, symSize: 0x24 }
  - { offsetInCU: 0x83AA9, offset: 0x83AA9, size: 0x8, addend: 0x0, symName: __ZNSt3__122__compressed_pair_elemINS_9allocatorIfEELi1ELb1EE5__getB7v160006Ev, symObjAddr: 0x280C8, symBinAddr: 0x10002A900, symSize: 0x14 }
  - { offsetInCU: 0x83ACF, offset: 0x83ACF, size: 0x8, addend: 0x0, symName: __ZNSt3__16vectorIfNS_9allocatorIfEEE21_ConstructTransactionD2B7v160006Ev, symObjAddr: 0x280DC, symBinAddr: 0x10002A914, symSize: 0x20 }
  - { offsetInCU: 0x83AF9, offset: 0x83AF9, size: 0x8, addend: 0x0, symName: __ZNSt3__16vectorIfNS_9allocatorIfEEE27__invalidate_iterators_pastB7v160006EPf, symObjAddr: 0x280FC, symBinAddr: 0x10002A934, symSize: 0x14 }
  - { offsetInCU: 0x83B30, offset: 0x83B30, size: 0x8, addend: 0x0, symName: __ZNSt3__16vectorIfNS_9allocatorIfEEE22__base_destruct_at_endB7v160006EPf, symObjAddr: 0x28110, symBinAddr: 0x10002A948, symSize: 0x8C }
  - { offsetInCU: 0x83B74, offset: 0x83B74, size: 0x8, addend: 0x0, symName: __ZNKSt3__16vectorIfNS_9allocatorIfEEE17__annotate_shrinkB7v160006Em, symObjAddr: 0x2819C, symBinAddr: 0x10002A9D4, symSize: 0xB4 }
  - { offsetInCU: 0x83BA9, offset: 0x83BA9, size: 0x8, addend: 0x0, symName: __ZNKSt3__16vectorIfNS_9allocatorIfEEE31__annotate_contiguous_containerB7v160006EPKvS5_S5_S5_, symObjAddr: 0x28250, symBinAddr: 0x10002AA88, symSize: 0x20 }
  - { offsetInCU: 0x83BFF, offset: 0x83BFF, size: 0x8, addend: 0x0, symName: __ZNKSt3__16vectorIfNS_9allocatorIfEEE4dataB7v160006Ev, symObjAddr: 0x28270, symBinAddr: 0x10002AAA8, symSize: 0x28 }
  - { offsetInCU: 0x83C25, offset: 0x83C25, size: 0x8, addend: 0x0, symName: __ZNSt3__116allocator_traitsINS_9allocatorIfEEE10deallocateB7v160006ERS2_Pfm, symObjAddr: 0x28298, symBinAddr: 0x10002AAD0, symSize: 0x34 }
  - { offsetInCU: 0x83C67, offset: 0x83C67, size: 0x8, addend: 0x0, symName: __ZNSt3__16vectorIfNS_9allocatorIfEEE9__end_capB7v160006Ev, symObjAddr: 0x282CC, symBinAddr: 0x10002AB04, symSize: 0x28 }
  - { offsetInCU: 0x83C8D, offset: 0x83C8D, size: 0x8, addend: 0x0, symName: __ZNSt3__19allocatorIfE10deallocateB7v160006EPfm, symObjAddr: 0x282F4, symBinAddr: 0x10002AB2C, symSize: 0x40 }
  - { offsetInCU: 0x83CCF, offset: 0x83CCF, size: 0x8, addend: 0x0, symName: __ZNSt3__117__compressed_pairIPfNS_9allocatorIfEEE5firstB7v160006Ev, symObjAddr: 0x28334, symBinAddr: 0x10002AB6C, symSize: 0x24 }
  - { offsetInCU: 0x83CF5, offset: 0x83CF5, size: 0x8, addend: 0x0, symName: __ZNSt3__122__compressed_pair_elemIPfLi0ELb0EE5__getB7v160006Ev, symObjAddr: 0x28358, symBinAddr: 0x10002AB90, symSize: 0x14 }
  - { offsetInCU: 0x83D1B, offset: 0x83D1B, size: 0x8, addend: 0x0, symName: __ZNKSt3__16vectorIfNS_9allocatorIfEEE8max_sizeEv, symObjAddr: 0x2836C, symBinAddr: 0x10002ABA4, symSize: 0x60 }
  - { offsetInCU: 0x83D43, offset: 0x83D43, size: 0x8, addend: 0x0, symName: __ZNKSt3__16vectorIfNS_9allocatorIfEEE20__throw_length_errorB7v160006Ev, symObjAddr: 0x283CC, symBinAddr: 0x10002AC04, symSize: 0x1C }
  - { offsetInCU: 0x83D69, offset: 0x83D69, size: 0x8, addend: 0x0, symName: __ZNKSt3__16vectorIfNS_9allocatorIfEEE14__annotate_newB7v160006Em, symObjAddr: 0x28428, symBinAddr: 0x10002AC60, symSize: 0xAC }
  - { offsetInCU: 0x83DA8, offset: 0x83DA8, size: 0x8, addend: 0x0, symName: __ZNSt3__116allocator_traitsINS_9allocatorIfEEE8max_sizeB7v160006IS2_vEEmRKS2_, symObjAddr: 0x284D4, symBinAddr: 0x10002AD0C, symSize: 0x24 }
  - { offsetInCU: 0x83DD6, offset: 0x83DD6, size: 0x8, addend: 0x0, symName: __ZNKSt3__16vectorIfNS_9allocatorIfEEE7__allocB7v160006Ev, symObjAddr: 0x284F8, symBinAddr: 0x10002AD30, symSize: 0x28 }
  - { offsetInCU: 0x83DFC, offset: 0x83DFC, size: 0x8, addend: 0x0, symName: __ZNKSt3__19allocatorIfE8max_sizeB7v160006Ev, symObjAddr: 0x28520, symBinAddr: 0x10002AD58, symSize: 0x14 }
  - { offsetInCU: 0x83E22, offset: 0x83E22, size: 0x8, addend: 0x0, symName: __ZNKSt3__117__compressed_pairIPfNS_9allocatorIfEEE6secondB7v160006Ev, symObjAddr: 0x28534, symBinAddr: 0x10002AD6C, symSize: 0x24 }
  - { offsetInCU: 0x83E48, offset: 0x83E48, size: 0x8, addend: 0x0, symName: __ZNKSt3__122__compressed_pair_elemINS_9allocatorIfEELi1ELb1EE5__getB7v160006Ev, symObjAddr: 0x28558, symBinAddr: 0x10002AD90, symSize: 0x14 }
  - { offsetInCU: 0x83E6E, offset: 0x83E6E, size: 0x8, addend: 0x0, symName: __ZNSt3__19allocatorIfE8allocateB7v160006Em, symObjAddr: 0x2856C, symBinAddr: 0x10002ADA4, symSize: 0x58 }
  - { offsetInCU: 0x83EA2, offset: 0x83EA2, size: 0x8, addend: 0x0, symName: __ZNSt3__16vectorINS_12basic_stringIcNS_11char_traitsIcEENS_9allocatorIcEEEENS4_IS6_EEE19__copy_assign_allocB7v160006ERKS8_, symObjAddr: 0x285C4, symBinAddr: 0x10002ADFC, symSize: 0x2C }
  - { offsetInCU: 0x83ED7, offset: 0x83ED7, size: 0x8, addend: 0x0, symName: __ZNSt3__16vectorINS_12basic_stringIcNS_11char_traitsIcEENS_9allocatorIcEEEENS4_IS6_EEE6assignIPS6_Li0EEEvT_SB_, symObjAddr: 0x285F0, symBinAddr: 0x10002AE28, symSize: 0x17C }
  - { offsetInCU: 0x83F76, offset: 0x83F76, size: 0x8, addend: 0x0, symName: __ZNSt3__16vectorINS_12basic_stringIcNS_11char_traitsIcEENS_9allocatorIcEEEENS4_IS6_EEE19__copy_assign_allocB7v160006ERKS8_NS_17integral_constantIbLb0EEE, symObjAddr: 0x2876C, symBinAddr: 0x10002AFA4, symSize: 0x14 }
  - { offsetInCU: 0x83FB4, offset: 0x83FB4, size: 0x8, addend: 0x0, symName: __ZNKSt3__16vectorINS_12basic_stringIcNS_11char_traitsIcEENS_9allocatorIcEEEENS4_IS6_EEE8capacityB7v160006Ev, symObjAddr: 0x287AC, symBinAddr: 0x10002AFE4, symSize: 0x40 }
  - { offsetInCU: 0x83FDA, offset: 0x83FDA, size: 0x8, addend: 0x0, symName: __ZNSt3__16vectorINS_12basic_stringIcNS_11char_traitsIcEENS_9allocatorIcEEEENS4_IS6_EEE18__construct_at_endIPS6_Li0EEEvT_SB_m, symObjAddr: 0x2887C, symBinAddr: 0x10002B0B4, symSize: 0x8C }
  - { offsetInCU: 0x8404D, offset: 0x8404D, size: 0x8, addend: 0x0, symName: __ZNSt3__16vectorINS_12basic_stringIcNS_11char_traitsIcEENS_9allocatorIcEEEENS4_IS6_EEE17__destruct_at_endB7v160006EPS6_, symObjAddr: 0x28908, symBinAddr: 0x10002B140, symSize: 0x60 }
  - { offsetInCU: 0x84091, offset: 0x84091, size: 0x8, addend: 0x0, symName: __ZNSt3__16vectorINS_12basic_stringIcNS_11char_traitsIcEENS_9allocatorIcEEEENS4_IS6_EEE13__vdeallocateEv, symObjAddr: 0x28968, symBinAddr: 0x10002B1A0, symSize: 0x8C }
  - { offsetInCU: 0x840B9, offset: 0x840B9, size: 0x8, addend: 0x0, symName: __ZNSt3__16vectorINS_12basic_stringIcNS_11char_traitsIcEENS_9allocatorIcEEEENS4_IS6_EEE11__vallocateB7v160006Em, symObjAddr: 0x289F4, symBinAddr: 0x10002B22C, symSize: 0xB4 }
  - { offsetInCU: 0x840FD, offset: 0x840FD, size: 0x8, addend: 0x0, symName: __ZNKSt3__16vectorINS_12basic_stringIcNS_11char_traitsIcEENS_9allocatorIcEEEENS4_IS6_EEE11__recommendB7v160006Em, symObjAddr: 0x28AA8, symBinAddr: 0x10002B2E0, symSize: 0xB4 }
  - { offsetInCU: 0x84152, offset: 0x84152, size: 0x8, addend: 0x0, symName: __ZNKSt3__16vectorINS_12basic_stringIcNS_11char_traitsIcEENS_9allocatorIcEEEENS4_IS6_EEE9__end_capB7v160006Ev, symObjAddr: 0x28B94, symBinAddr: 0x10002B3CC, symSize: 0x28 }
  - { offsetInCU: 0x84178, offset: 0x84178, size: 0x8, addend: 0x0, symName: __ZNKSt3__117__compressed_pairIPNS_12basic_stringIcNS_11char_traitsIcEENS_9allocatorIcEEEENS4_IS6_EEE5firstB7v160006Ev, symObjAddr: 0x28BBC, symBinAddr: 0x10002B3F4, symSize: 0x24 }
  - { offsetInCU: 0x8419E, offset: 0x8419E, size: 0x8, addend: 0x0, symName: __ZNKSt3__122__compressed_pair_elemIPNS_12basic_stringIcNS_11char_traitsIcEENS_9allocatorIcEEEELi0ELb0EE5__getB7v160006Ev, symObjAddr: 0x28BE0, symBinAddr: 0x10002B418, symSize: 0x14 }
  - { offsetInCU: 0x841DE, offset: 0x841DE, size: 0x8, addend: 0x0, symName: __ZNKSt3__111__copy_loopINS_17_ClassicAlgPolicyEEclB7v160006IPNS_12basic_stringIcNS_11char_traitsIcEENS_9allocatorIcEEEESA_SA_EENS_4pairIT_T1_EESC_T0_SD_, symObjAddr: 0x28DC0, symBinAddr: 0x10002B5F8, symSize: 0x88 }
  - { offsetInCU: 0x84249, offset: 0x84249, size: 0x8, addend: 0x0, symName: __ZNSt3__118__unwrap_iter_implIPNS_12basic_stringIcNS_11char_traitsIcEENS_9allocatorIcEEEELb1EE8__unwrapB7v160006ES7_, symObjAddr: 0x28F0C, symBinAddr: 0x10002B744, symSize: 0x24 }
  - { offsetInCU: 0x84272, offset: 0x84272, size: 0x8, addend: 0x0, symName: __ZNSt3__14pairIPNS_12basic_stringIcNS_11char_traitsIcEENS_9allocatorIcEEEES7_EC1B7v160006IS7_S7_LPv0EEEOT_OT0_, symObjAddr: 0x28F44, symBinAddr: 0x10002B77C, symSize: 0x3C }
  - { offsetInCU: 0x842D0, offset: 0x842D0, size: 0x8, addend: 0x0, symName: __ZNSt3__14pairIPNS_12basic_stringIcNS_11char_traitsIcEENS_9allocatorIcEEEES7_EC2B7v160006IS7_S7_LPv0EEEOT_OT0_, symObjAddr: 0x28F80, symBinAddr: 0x10002B7B8, symSize: 0x34 }
  - { offsetInCU: 0x8432E, offset: 0x8432E, size: 0x8, addend: 0x0, symName: __ZNSt3__118__unwrap_iter_implIPNS_12basic_stringIcNS_11char_traitsIcEENS_9allocatorIcEEEELb1EE8__rewrapB7v160006ES7_S7_, symObjAddr: 0x28FB4, symBinAddr: 0x10002B7EC, symSize: 0x58 }
  - { offsetInCU: 0x84378, offset: 0x84378, size: 0x8, addend: 0x0, symName: __ZNSt3__16vectorINS_12basic_stringIcNS_11char_traitsIcEENS_9allocatorIcEEEENS4_IS6_EEE21_ConstructTransactionC1B7v160006ERS8_m, symObjAddr: 0x2900C, symBinAddr: 0x10002B844, symSize: 0x3C }
  - { offsetInCU: 0x843C0, offset: 0x843C0, size: 0x8, addend: 0x0, symName: __ZNSt3__16vectorINS_12basic_stringIcNS_11char_traitsIcEENS_9allocatorIcEEEENS4_IS6_EEE7__allocB7v160006Ev, symObjAddr: 0x2913C, symBinAddr: 0x10002B974, symSize: 0x28 }
  - { offsetInCU: 0x843E6, offset: 0x843E6, size: 0x8, addend: 0x0, symName: __ZNSt3__16vectorINS_12basic_stringIcNS_11char_traitsIcEENS_9allocatorIcEEEENS4_IS6_EEE21_ConstructTransactionD1B7v160006Ev, symObjAddr: 0x29164, symBinAddr: 0x10002B99C, symSize: 0x2C }
  - { offsetInCU: 0x84410, offset: 0x84410, size: 0x8, addend: 0x0, symName: __ZNSt3__16vectorINS_12basic_stringIcNS_11char_traitsIcEENS_9allocatorIcEEEENS4_IS6_EEE21_ConstructTransactionC2B7v160006ERS8_m, symObjAddr: 0x29190, symBinAddr: 0x10002B9C8, symSize: 0x4C }
  - { offsetInCU: 0x84458, offset: 0x84458, size: 0x8, addend: 0x0, symName: __ZNSt3__129_AllocatorDestroyRangeReverseINS_9allocatorINS_12basic_stringIcNS_11char_traitsIcEENS1_IcEEEEEEPS6_EC1B7v160006ERS7_RS8_SB_, symObjAddr: 0x29228, symBinAddr: 0x10002BA60, symSize: 0x44 }
  - { offsetInCU: 0x844AF, offset: 0x844AF, size: 0x8, addend: 0x0, symName: __ZNSt3__116allocator_traitsINS_9allocatorINS_12basic_stringIcNS_11char_traitsIcEENS1_IcEEEEEEE9constructB7v160006IS6_JRS6_EvEEvRS7_PT_DpOT0_, symObjAddr: 0x2926C, symBinAddr: 0x10002BAA4, symSize: 0x34 }
  - { offsetInCU: 0x84506, offset: 0x84506, size: 0x8, addend: 0x0, symName: __ZNSt3__128__exception_guard_exceptionsINS_29_AllocatorDestroyRangeReverseINS_9allocatorINS_12basic_stringIcNS_11char_traitsIcEENS2_IcEEEEEEPS7_EEE10__completeB7v160006Ev, symObjAddr: 0x292A0, symBinAddr: 0x10002BAD8, symSize: 0x1C }
  - { offsetInCU: 0x8452C, offset: 0x8452C, size: 0x8, addend: 0x0, symName: __ZNSt3__128__exception_guard_exceptionsINS_29_AllocatorDestroyRangeReverseINS_9allocatorINS_12basic_stringIcNS_11char_traitsIcEENS2_IcEEEEEEPS7_EEED1B7v160006Ev, symObjAddr: 0x292BC, symBinAddr: 0x10002BAF4, symSize: 0x2C }
  - { offsetInCU: 0x84556, offset: 0x84556, size: 0x8, addend: 0x0, symName: __ZNSt3__128__exception_guard_exceptionsINS_29_AllocatorDestroyRangeReverseINS_9allocatorINS_12basic_stringIcNS_11char_traitsIcEENS2_IcEEEEEEPS7_EEEC1B7v160006ESA_, symObjAddr: 0x292E8, symBinAddr: 0x10002BB20, symSize: 0x34 }
  - { offsetInCU: 0x8458F, offset: 0x8458F, size: 0x8, addend: 0x0, symName: __ZNSt3__128__exception_guard_exceptionsINS_29_AllocatorDestroyRangeReverseINS_9allocatorINS_12basic_stringIcNS_11char_traitsIcEENS2_IcEEEEEEPS7_EEEC2B7v160006ESA_, symObjAddr: 0x2931C, symBinAddr: 0x10002BB54, symSize: 0x30 }
  - { offsetInCU: 0x845C8, offset: 0x845C8, size: 0x8, addend: 0x0, symName: __ZNSt3__129_AllocatorDestroyRangeReverseINS_9allocatorINS_12basic_stringIcNS_11char_traitsIcEENS1_IcEEEEEEPS6_EC2B7v160006ERS7_RS8_SB_, symObjAddr: 0x2934C, symBinAddr: 0x10002BB84, symSize: 0x38 }
  - { offsetInCU: 0x8461F, offset: 0x8461F, size: 0x8, addend: 0x0, symName: __ZNSt3__19allocatorINS_12basic_stringIcNS_11char_traitsIcEENS0_IcEEEEE9constructB7v160006IS5_JRS5_EEEvPT_DpOT0_, symObjAddr: 0x29384, symBinAddr: 0x10002BBBC, symSize: 0x30 }
  - { offsetInCU: 0x84675, offset: 0x84675, size: 0x8, addend: 0x0, symName: __ZNSt3__128__exception_guard_exceptionsINS_29_AllocatorDestroyRangeReverseINS_9allocatorINS_12basic_stringIcNS_11char_traitsIcEENS2_IcEEEEEEPS7_EEED2B7v160006Ev, symObjAddr: 0x293B4, symBinAddr: 0x10002BBEC, symSize: 0x50 }
  - { offsetInCU: 0x8469F, offset: 0x8469F, size: 0x8, addend: 0x0, symName: __ZNKSt3__129_AllocatorDestroyRangeReverseINS_9allocatorINS_12basic_stringIcNS_11char_traitsIcEENS1_IcEEEEEEPS6_EclB7v160006Ev, symObjAddr: 0x29404, symBinAddr: 0x10002BC3C, symSize: 0x68 }
  - { offsetInCU: 0x846C5, offset: 0x846C5, size: 0x8, addend: 0x0, symName: __ZNSt3__116reverse_iteratorIPNS_12basic_stringIcNS_11char_traitsIcEENS_9allocatorIcEEEEEC1B7v160006ES7_, symObjAddr: 0x294DC, symBinAddr: 0x10002BD14, symSize: 0x34 }
  - { offsetInCU: 0x846FD, offset: 0x846FD, size: 0x8, addend: 0x0, symName: __ZNSt3__116allocator_traitsINS_9allocatorINS_12basic_stringIcNS_11char_traitsIcEENS1_IcEEEEEEE7destroyB7v160006IS6_vEEvRS7_PT_, symObjAddr: 0x29558, symBinAddr: 0x10002BD90, symSize: 0x2C }
  - { offsetInCU: 0x8473A, offset: 0x8473A, size: 0x8, addend: 0x0, symName: __ZNSt3__116reverse_iteratorIPNS_12basic_stringIcNS_11char_traitsIcEENS_9allocatorIcEEEEEppB7v160006Ev, symObjAddr: 0x295A8, symBinAddr: 0x10002BDE0, symSize: 0x20 }
  - { offsetInCU: 0x84760, offset: 0x84760, size: 0x8, addend: 0x0, symName: __ZNKSt3__116reverse_iteratorIPNS_12basic_stringIcNS_11char_traitsIcEENS_9allocatorIcEEEEE4baseB7v160006Ev, symObjAddr: 0x295C8, symBinAddr: 0x10002BE00, symSize: 0x18 }
  - { offsetInCU: 0x84786, offset: 0x84786, size: 0x8, addend: 0x0, symName: __ZNSt3__19allocatorINS_12basic_stringIcNS_11char_traitsIcEENS0_IcEEEEE7destroyB7v160006EPS5_, symObjAddr: 0x295E0, symBinAddr: 0x10002BE18, symSize: 0x28 }
  - { offsetInCU: 0x847BF, offset: 0x847BF, size: 0x8, addend: 0x0, symName: __ZNSt3__119__to_address_helperINS_16reverse_iteratorIPNS_12basic_stringIcNS_11char_traitsIcEENS_9allocatorIcEEEEEEvE6__callB7v160006ERKS9_, symObjAddr: 0x29608, symBinAddr: 0x10002BE40, symSize: 0x38 }
  - { offsetInCU: 0x847E2, offset: 0x847E2, size: 0x8, addend: 0x0, symName: __ZNKSt3__116reverse_iteratorIPNS_12basic_stringIcNS_11char_traitsIcEENS_9allocatorIcEEEEEptB7v160006Ev, symObjAddr: 0x29640, symBinAddr: 0x10002BE78, symSize: 0x24 }
  - { offsetInCU: 0x84808, offset: 0x84808, size: 0x8, addend: 0x0, symName: __ZNKSt3__116reverse_iteratorIPNS_12basic_stringIcNS_11char_traitsIcEENS_9allocatorIcEEEEEdeB7v160006Ev, symObjAddr: 0x29664, symBinAddr: 0x10002BE9C, symSize: 0x28 }
  - { offsetInCU: 0x8483C, offset: 0x8483C, size: 0x8, addend: 0x0, symName: __ZNSt3__116reverse_iteratorIPNS_12basic_stringIcNS_11char_traitsIcEENS_9allocatorIcEEEEEC2B7v160006ES7_, symObjAddr: 0x2968C, symBinAddr: 0x10002BEC4, symSize: 0x28 }
  - { offsetInCU: 0x84874, offset: 0x84874, size: 0x8, addend: 0x0, symName: __ZNSt3__117__compressed_pairIPNS_12basic_stringIcNS_11char_traitsIcEENS_9allocatorIcEEEENS4_IS6_EEE6secondB7v160006Ev, symObjAddr: 0x296B4, symBinAddr: 0x10002BEEC, symSize: 0x24 }
  - { offsetInCU: 0x8489A, offset: 0x8489A, size: 0x8, addend: 0x0, symName: __ZNSt3__122__compressed_pair_elemINS_9allocatorINS_12basic_stringIcNS_11char_traitsIcEENS1_IcEEEEEELi1ELb1EE5__getB7v160006Ev, symObjAddr: 0x296D8, symBinAddr: 0x10002BF10, symSize: 0x14 }
  - { offsetInCU: 0x848C0, offset: 0x848C0, size: 0x8, addend: 0x0, symName: __ZNSt3__16vectorINS_12basic_stringIcNS_11char_traitsIcEENS_9allocatorIcEEEENS4_IS6_EEE21_ConstructTransactionD2B7v160006Ev, symObjAddr: 0x296EC, symBinAddr: 0x10002BF24, symSize: 0x20 }
  - { offsetInCU: 0x848EA, offset: 0x848EA, size: 0x8, addend: 0x0, symName: __ZNSt3__16vectorINS_12basic_stringIcNS_11char_traitsIcEENS_9allocatorIcEEEENS4_IS6_EEE27__invalidate_iterators_pastB7v160006EPS6_, symObjAddr: 0x2970C, symBinAddr: 0x10002BF44, symSize: 0x14 }
  - { offsetInCU: 0x84921, offset: 0x84921, size: 0x8, addend: 0x0, symName: __ZNSt3__16vectorINS_12basic_stringIcNS_11char_traitsIcEENS_9allocatorIcEEEENS4_IS6_EEE22__base_destruct_at_endB7v160006EPS6_, symObjAddr: 0x29720, symBinAddr: 0x10002BF58, symSize: 0x8C }
  - { offsetInCU: 0x84965, offset: 0x84965, size: 0x8, addend: 0x0, symName: __ZNKSt3__16vectorINS_12basic_stringIcNS_11char_traitsIcEENS_9allocatorIcEEEENS4_IS6_EEE17__annotate_shrinkB7v160006Em, symObjAddr: 0x297AC, symBinAddr: 0x10002BFE4, symSize: 0xD0 }
  - { offsetInCU: 0x8499A, offset: 0x8499A, size: 0x8, addend: 0x0, symName: __ZNKSt3__16vectorINS_12basic_stringIcNS_11char_traitsIcEENS_9allocatorIcEEEENS4_IS6_EEE31__annotate_contiguous_containerB7v160006EPKvSA_SA_SA_, symObjAddr: 0x2987C, symBinAddr: 0x10002C0B4, symSize: 0x20 }
  - { offsetInCU: 0x849F0, offset: 0x849F0, size: 0x8, addend: 0x0, symName: __ZNKSt3__16vectorINS_12basic_stringIcNS_11char_traitsIcEENS_9allocatorIcEEEENS4_IS6_EEE4dataB7v160006Ev, symObjAddr: 0x2989C, symBinAddr: 0x10002C0D4, symSize: 0x28 }
  - { offsetInCU: 0x84A16, offset: 0x84A16, size: 0x8, addend: 0x0, symName: __ZNSt3__116allocator_traitsINS_9allocatorINS_12basic_stringIcNS_11char_traitsIcEENS1_IcEEEEEEE10deallocateB7v160006ERS7_PS6_m, symObjAddr: 0x298C4, symBinAddr: 0x10002C0FC, symSize: 0x34 }
  - { offsetInCU: 0x84A58, offset: 0x84A58, size: 0x8, addend: 0x0, symName: __ZNSt3__16vectorINS_12basic_stringIcNS_11char_traitsIcEENS_9allocatorIcEEEENS4_IS6_EEE9__end_capB7v160006Ev, symObjAddr: 0x298F8, symBinAddr: 0x10002C130, symSize: 0x28 }
  - { offsetInCU: 0x84A7E, offset: 0x84A7E, size: 0x8, addend: 0x0, symName: __ZNSt3__19allocatorINS_12basic_stringIcNS_11char_traitsIcEENS0_IcEEEEE10deallocateB7v160006EPS5_m, symObjAddr: 0x29920, symBinAddr: 0x10002C158, symSize: 0x44 }
  - { offsetInCU: 0x84AC0, offset: 0x84AC0, size: 0x8, addend: 0x0, symName: __ZNSt3__117__compressed_pairIPNS_12basic_stringIcNS_11char_traitsIcEENS_9allocatorIcEEEENS4_IS6_EEE5firstB7v160006Ev, symObjAddr: 0x29964, symBinAddr: 0x10002C19C, symSize: 0x24 }
  - { offsetInCU: 0x84AE6, offset: 0x84AE6, size: 0x8, addend: 0x0, symName: __ZNSt3__122__compressed_pair_elemIPNS_12basic_stringIcNS_11char_traitsIcEENS_9allocatorIcEEEELi0ELb0EE5__getB7v160006Ev, symObjAddr: 0x29988, symBinAddr: 0x10002C1C0, symSize: 0x14 }
  - { offsetInCU: 0x84B0C, offset: 0x84B0C, size: 0x8, addend: 0x0, symName: __ZNKSt3__16vectorINS_12basic_stringIcNS_11char_traitsIcEENS_9allocatorIcEEEENS4_IS6_EEE8max_sizeEv, symObjAddr: 0x2999C, symBinAddr: 0x10002C1D4, symSize: 0x60 }
  - { offsetInCU: 0x84B34, offset: 0x84B34, size: 0x8, addend: 0x0, symName: __ZNKSt3__16vectorINS_12basic_stringIcNS_11char_traitsIcEENS_9allocatorIcEEEENS4_IS6_EEE20__throw_length_errorB7v160006Ev, symObjAddr: 0x299FC, symBinAddr: 0x10002C234, symSize: 0x1C }
  - { offsetInCU: 0x84B5A, offset: 0x84B5A, size: 0x8, addend: 0x0, symName: __ZNKSt3__16vectorINS_12basic_stringIcNS_11char_traitsIcEENS_9allocatorIcEEEENS4_IS6_EEE14__annotate_newB7v160006Em, symObjAddr: 0x29A58, symBinAddr: 0x10002C290, symSize: 0xC8 }
  - { offsetInCU: 0x84B99, offset: 0x84B99, size: 0x8, addend: 0x0, symName: __ZNSt3__116allocator_traitsINS_9allocatorINS_12basic_stringIcNS_11char_traitsIcEENS1_IcEEEEEEE8max_sizeB7v160006IS7_vEEmRKS7_, symObjAddr: 0x29B20, symBinAddr: 0x10002C358, symSize: 0x24 }
  - { offsetInCU: 0x84BC7, offset: 0x84BC7, size: 0x8, addend: 0x0, symName: __ZNKSt3__16vectorINS_12basic_stringIcNS_11char_traitsIcEENS_9allocatorIcEEEENS4_IS6_EEE7__allocB7v160006Ev, symObjAddr: 0x29B44, symBinAddr: 0x10002C37C, symSize: 0x28 }
  - { offsetInCU: 0x84BED, offset: 0x84BED, size: 0x8, addend: 0x0, symName: __ZNKSt3__19allocatorINS_12basic_stringIcNS_11char_traitsIcEENS0_IcEEEEE8max_sizeB7v160006Ev, symObjAddr: 0x29B6C, symBinAddr: 0x10002C3A4, symSize: 0x18 }
  - { offsetInCU: 0x84C13, offset: 0x84C13, size: 0x8, addend: 0x0, symName: __ZNKSt3__117__compressed_pairIPNS_12basic_stringIcNS_11char_traitsIcEENS_9allocatorIcEEEENS4_IS6_EEE6secondB7v160006Ev, symObjAddr: 0x29B84, symBinAddr: 0x10002C3BC, symSize: 0x24 }
  - { offsetInCU: 0x84C39, offset: 0x84C39, size: 0x8, addend: 0x0, symName: __ZNKSt3__122__compressed_pair_elemINS_9allocatorINS_12basic_stringIcNS_11char_traitsIcEENS1_IcEEEEEELi1ELb1EE5__getB7v160006Ev, symObjAddr: 0x29BA8, symBinAddr: 0x10002C3E0, symSize: 0x14 }
  - { offsetInCU: 0x84C5F, offset: 0x84C5F, size: 0x8, addend: 0x0, symName: __ZNSt3__19allocatorINS_12basic_stringIcNS_11char_traitsIcEENS0_IcEEEEE8allocateB7v160006Em, symObjAddr: 0x29BBC, symBinAddr: 0x10002C3F4, symSize: 0x5C }
  - { offsetInCU: 0x84C93, offset: 0x84C93, size: 0x8, addend: 0x0, symName: __ZNSt3__118__unwrap_iter_implIPN7tinyobj5tag_tELb1EE8__unwrapB7v160006ES3_, symObjAddr: 0x29C18, symBinAddr: 0x10002C450, symSize: 0x24 }
  - { offsetInCU: 0x84CBC, offset: 0x84CBC, size: 0x8, addend: 0x0, symName: __ZNSt3__14pairIPN7tinyobj5tag_tES3_EC1B7v160006IS3_S3_LPv0EEEOT_OT0_, symObjAddr: 0x29C50, symBinAddr: 0x10002C488, symSize: 0x3C }
  - { offsetInCU: 0x84D1A, offset: 0x84D1A, size: 0x8, addend: 0x0, symName: __ZNSt3__14pairIPN7tinyobj5tag_tES3_EC2B7v160006IS3_S3_LPv0EEEOT_OT0_, symObjAddr: 0x29C8C, symBinAddr: 0x10002C4C4, symSize: 0x34 }
  - { offsetInCU: 0x84D78, offset: 0x84D78, size: 0x8, addend: 0x0, symName: __ZNSt3__118__unwrap_iter_implIPN7tinyobj5tag_tELb1EE8__rewrapB7v160006ES3_S3_, symObjAddr: 0x29CC0, symBinAddr: 0x10002C4F8, symSize: 0x58 }
  - { offsetInCU: 0x84DC2, offset: 0x84DC2, size: 0x8, addend: 0x0, symName: __ZNSt3__16vectorIN7tinyobj5tag_tENS_9allocatorIS2_EEE21_ConstructTransactionC1B7v160006ERS5_m, symObjAddr: 0x29D18, symBinAddr: 0x10002C550, symSize: 0x3C }
  - { offsetInCU: 0x84E0A, offset: 0x84E0A, size: 0x8, addend: 0x0, symName: __ZNSt3__16vectorIN7tinyobj5tag_tENS_9allocatorIS2_EEE7__allocB7v160006Ev, symObjAddr: 0x29E48, symBinAddr: 0x10002C680, symSize: 0x28 }
  - { offsetInCU: 0x84E30, offset: 0x84E30, size: 0x8, addend: 0x0, symName: __ZNSt3__16vectorIN7tinyobj5tag_tENS_9allocatorIS2_EEE21_ConstructTransactionD1B7v160006Ev, symObjAddr: 0x29E70, symBinAddr: 0x10002C6A8, symSize: 0x2C }
  - { offsetInCU: 0x84E5A, offset: 0x84E5A, size: 0x8, addend: 0x0, symName: __ZNSt3__16vectorIN7tinyobj5tag_tENS_9allocatorIS2_EEE21_ConstructTransactionC2B7v160006ERS5_m, symObjAddr: 0x29E9C, symBinAddr: 0x10002C6D4, symSize: 0x4C }
  - { offsetInCU: 0x84EA2, offset: 0x84EA2, size: 0x8, addend: 0x0, symName: __ZNSt3__129_AllocatorDestroyRangeReverseINS_9allocatorIN7tinyobj5tag_tEEEPS3_EC1B7v160006ERS4_RS5_S8_, symObjAddr: 0x29F34, symBinAddr: 0x10002C76C, symSize: 0x44 }
  - { offsetInCU: 0x84EF9, offset: 0x84EF9, size: 0x8, addend: 0x0, symName: __ZNSt3__116allocator_traitsINS_9allocatorIN7tinyobj5tag_tEEEE9constructB7v160006IS3_JRS3_EvEEvRS4_PT_DpOT0_, symObjAddr: 0x29F78, symBinAddr: 0x10002C7B0, symSize: 0x34 }
  - { offsetInCU: 0x84F50, offset: 0x84F50, size: 0x8, addend: 0x0, symName: __ZNSt3__128__exception_guard_exceptionsINS_29_AllocatorDestroyRangeReverseINS_9allocatorIN7tinyobj5tag_tEEEPS4_EEE10__completeB7v160006Ev, symObjAddr: 0x29FAC, symBinAddr: 0x10002C7E4, symSize: 0x1C }
  - { offsetInCU: 0x84F76, offset: 0x84F76, size: 0x8, addend: 0x0, symName: __ZNSt3__128__exception_guard_exceptionsINS_29_AllocatorDestroyRangeReverseINS_9allocatorIN7tinyobj5tag_tEEEPS4_EEED1B7v160006Ev, symObjAddr: 0x29FC8, symBinAddr: 0x10002C800, symSize: 0x2C }
  - { offsetInCU: 0x84FA0, offset: 0x84FA0, size: 0x8, addend: 0x0, symName: __ZNSt3__128__exception_guard_exceptionsINS_29_AllocatorDestroyRangeReverseINS_9allocatorIN7tinyobj5tag_tEEEPS4_EEEC1B7v160006ES7_, symObjAddr: 0x29FF4, symBinAddr: 0x10002C82C, symSize: 0x34 }
  - { offsetInCU: 0x84FD9, offset: 0x84FD9, size: 0x8, addend: 0x0, symName: __ZNSt3__128__exception_guard_exceptionsINS_29_AllocatorDestroyRangeReverseINS_9allocatorIN7tinyobj5tag_tEEEPS4_EEEC2B7v160006ES7_, symObjAddr: 0x2A028, symBinAddr: 0x10002C860, symSize: 0x30 }
  - { offsetInCU: 0x85012, offset: 0x85012, size: 0x8, addend: 0x0, symName: __ZNSt3__129_AllocatorDestroyRangeReverseINS_9allocatorIN7tinyobj5tag_tEEEPS3_EC2B7v160006ERS4_RS5_S8_, symObjAddr: 0x2A058, symBinAddr: 0x10002C890, symSize: 0x38 }
  - { offsetInCU: 0x85069, offset: 0x85069, size: 0x8, addend: 0x0, symName: __ZNSt3__19allocatorIN7tinyobj5tag_tEE9constructB7v160006IS2_JRS2_EEEvPT_DpOT0_, symObjAddr: 0x2A090, symBinAddr: 0x10002C8C8, symSize: 0x30 }
  - { offsetInCU: 0x850BF, offset: 0x850BF, size: 0x8, addend: 0x0, symName: __ZN7tinyobj5tag_tC1ERKS0_, symObjAddr: 0x2A0C0, symBinAddr: 0x10002C8F8, symSize: 0x34 }
  - { offsetInCU: 0x850F5, offset: 0x850F5, size: 0x8, addend: 0x0, symName: __ZN7tinyobj5tag_tC2ERKS0_, symObjAddr: 0x2A0F4, symBinAddr: 0x10002C92C, symSize: 0xE0 }
  - { offsetInCU: 0x8512B, offset: 0x8512B, size: 0x8, addend: 0x0, symName: __ZNSt3__16vectorIiNS_9allocatorIiEEEC1ERKS3_, symObjAddr: 0x2A1D4, symBinAddr: 0x10002CA0C, symSize: 0x34 }
  - { offsetInCU: 0x85166, offset: 0x85166, size: 0x8, addend: 0x0, symName: __ZNSt3__16vectorIfNS_9allocatorIfEEEC1ERKS3_, symObjAddr: 0x2A208, symBinAddr: 0x10002CA40, symSize: 0x34 }
  - { offsetInCU: 0x851A1, offset: 0x851A1, size: 0x8, addend: 0x0, symName: __ZNSt3__16vectorINS_12basic_stringIcNS_11char_traitsIcEENS_9allocatorIcEEEENS4_IS6_EEEC1ERKS8_, symObjAddr: 0x2A23C, symBinAddr: 0x10002CA74, symSize: 0x34 }
  - { offsetInCU: 0x851DC, offset: 0x851DC, size: 0x8, addend: 0x0, symName: __ZNSt3__16vectorIiNS_9allocatorIiEEED1B7v160006Ev, symObjAddr: 0x2A270, symBinAddr: 0x10002CAA8, symSize: 0x2C }
  - { offsetInCU: 0x85206, offset: 0x85206, size: 0x8, addend: 0x0, symName: __ZNSt3__16vectorIiNS_9allocatorIiEEEC2ERKS3_, symObjAddr: 0x2A29C, symBinAddr: 0x10002CAD4, symSize: 0x110 }
  - { offsetInCU: 0x85265, offset: 0x85265, size: 0x8, addend: 0x0, symName: __ZNSt3__116allocator_traitsINS_9allocatorIiEEE37select_on_container_copy_constructionB7v160006IS2_vvEES2_RKS2_, symObjAddr: 0x2A3AC, symBinAddr: 0x10002CBE4, symSize: 0x10 }
  - { offsetInCU: 0x8529A, offset: 0x8529A, size: 0x8, addend: 0x0, symName: __ZNSt3__117__compressed_pairIPiNS_9allocatorIiEEEC1B7v160006IDnS3_EEOT_OT0_, symObjAddr: 0x2A3BC, symBinAddr: 0x10002CBF4, symSize: 0x3C }
  - { offsetInCU: 0x852F2, offset: 0x852F2, size: 0x8, addend: 0x0, symName: __ZNSt3__16vectorIiNS_9allocatorIiEEE16__destroy_vectorC1ERS3_, symObjAddr: 0x2A438, symBinAddr: 0x10002CC70, symSize: 0x34 }
  - { offsetInCU: 0x8532B, offset: 0x8532B, size: 0x8, addend: 0x0, symName: __ZNSt3__128__exception_guard_exceptionsINS_6vectorIiNS_9allocatorIiEEE16__destroy_vectorEE10__completeB7v160006Ev, symObjAddr: 0x2A46C, symBinAddr: 0x10002CCA4, symSize: 0x1C }
  - { offsetInCU: 0x85351, offset: 0x85351, size: 0x8, addend: 0x0, symName: __ZNSt3__128__exception_guard_exceptionsINS_6vectorIiNS_9allocatorIiEEE16__destroy_vectorEED1B7v160006Ev, symObjAddr: 0x2A488, symBinAddr: 0x10002CCC0, symSize: 0x2C }
  - { offsetInCU: 0x8537B, offset: 0x8537B, size: 0x8, addend: 0x0, symName: __ZNSt3__117__compressed_pairIPiNS_9allocatorIiEEEC2B7v160006IDnS3_EEOT_OT0_, symObjAddr: 0x2A4B4, symBinAddr: 0x10002CCEC, symSize: 0x44 }
  - { offsetInCU: 0x853D3, offset: 0x853D3, size: 0x8, addend: 0x0, symName: __ZNSt3__122__compressed_pair_elemINS_9allocatorIiEELi1ELb1EEC2B7v160006IS2_vEEOT_, symObjAddr: 0x2A4F8, symBinAddr: 0x10002CD30, symSize: 0x18 }
  - { offsetInCU: 0x85415, offset: 0x85415, size: 0x8, addend: 0x0, symName: __ZNSt3__128__exception_guard_exceptionsINS_6vectorIiNS_9allocatorIiEEE16__destroy_vectorEEC1B7v160006ES5_, symObjAddr: 0x2A510, symBinAddr: 0x10002CD48, symSize: 0x34 }
  - { offsetInCU: 0x8544D, offset: 0x8544D, size: 0x8, addend: 0x0, symName: __ZNSt3__128__exception_guard_exceptionsINS_6vectorIiNS_9allocatorIiEEE16__destroy_vectorEEC2B7v160006ES5_, symObjAddr: 0x2A544, symBinAddr: 0x10002CD7C, symSize: 0x24 }
  - { offsetInCU: 0x85485, offset: 0x85485, size: 0x8, addend: 0x0, symName: __ZNSt3__16vectorIiNS_9allocatorIiEEE16__destroy_vectorC2ERS3_, symObjAddr: 0x2A568, symBinAddr: 0x10002CDA0, symSize: 0x20 }
  - { offsetInCU: 0x854BE, offset: 0x854BE, size: 0x8, addend: 0x0, symName: __ZNSt3__128__exception_guard_exceptionsINS_6vectorIiNS_9allocatorIiEEE16__destroy_vectorEED2B7v160006Ev, symObjAddr: 0x2A588, symBinAddr: 0x10002CDC0, symSize: 0x50 }
  - { offsetInCU: 0x854E8, offset: 0x854E8, size: 0x8, addend: 0x0, symName: __ZNSt3__16vectorIiNS_9allocatorIiEEE16__destroy_vectorclB7v160006Ev, symObjAddr: 0x2A5D8, symBinAddr: 0x10002CE10, symSize: 0x9C }
